
kernel_master_debug.bin: formato do arquivo elf32-bigmips

Disassembly of section .text:

00000000 <entry>:
       0:	3c1d0003 	lui	sp,0x3
       4:	37bdffff 	ori	sp,sp,0xffff
       8:	0c00168b 	jal	5a2c <main>
       c:	00000000 	nop
      10:	08000004 	j	10 <entry+0x10>
      14:	00000000 	nop

00000018 <get_net_address>:
      18:	3c022000 	lui	v0,0x2000
      1c:	34420140 	ori	v0,v0,0x140
      20:	8c420000 	lw	v0,0(v0)
      24:	03e00008 	jr	ra
      28:	00000000 	nop

0000002c <itoa>:
      2c:	14800007 	bnez	a0,4c <itoa+0x20>
      30:	3c050005 	lui	a1,0x5
      34:	24a305bc 	addiu	v1,a1,1468
      38:	24020030 	li	v0,48
      3c:	00602021 	move	a0,v1
      40:	a0a205bc 	sb	v0,1468(a1)
      44:	08000044 	j	110 <itoa+0xe4>
      48:	a0600001 	sb	zero,1(v1)
      4c:	3c02cccc 	lui	v0,0xcccc
      50:	3442cccd 	ori	v0,v0,0xcccd
      54:	00820019 	multu	a0,v0
      58:	00404021 	move	t0,v0
      5c:	24a705bc 	addiu	a3,a1,1468
      60:	24060001 	li	a2,1
      64:	2409000b 	li	t1,11
      68:	00001810 	mfhi	v1
      6c:	000318c2 	srl	v1,v1,0x3
      70:	000310c0 	sll	v0,v1,0x3
      74:	00031840 	sll	v1,v1,0x1
      78:	00621821 	addu	v1,v1,v0
      7c:	00831823 	subu	v1,a0,v1
      80:	24630030 	addiu	v1,v1,48
      84:	0800002e 	j	b8 <itoa+0x8c>
      88:	a0a305bc 	sb	v1,1468(a1)
      8c:	00880019 	multu	a0,t0
      90:	24c60001 	addiu	a2,a2,1
      94:	00001010 	mfhi	v0
      98:	000210c2 	srl	v0,v0,0x3
      9c:	000218c0 	sll	v1,v0,0x3
      a0:	00021040 	sll	v0,v0,0x1
      a4:	00431021 	addu	v0,v0,v1
      a8:	00821023 	subu	v0,a0,v0
      ac:	24420030 	addiu	v0,v0,48
      b0:	10c90006 	beq	a2,t1,cc <itoa+0xa0>
      b4:	a0e20000 	sb	v0,0(a3)
      b8:	00880019 	multu	a0,t0
      bc:	00001010 	mfhi	v0
      c0:	000220c2 	srl	a0,v0,0x3
      c4:	1480fff1 	bnez	a0,8c <itoa+0x60>
      c8:	24e70001 	addiu	a3,a3,1
      cc:	3c020005 	lui	v0,0x5
      d0:	244205b0 	addiu	v0,v0,1456
      d4:	24c4ffff 	addiu	a0,a2,-1
      d8:	3c030005 	lui	v1,0x5
      dc:	00822821 	addu	a1,a0,v0
      e0:	246305bc 	addiu	v1,v1,1468
      e4:	00c21021 	addu	v0,a2,v0
      e8:	0800003f 	j	fc <itoa+0xd0>
      ec:	a0400000 	sb	zero,0(v0)
      f0:	9062ffff 	lbu	v0,-1(v1)
      f4:	2484ffff 	addiu	a0,a0,-1
      f8:	a0a20001 	sb	v0,1(a1)
      fc:	24630001 	addiu	v1,v1,1
     100:	0481fffb 	bgez	a0,f0 <itoa+0xc4>
     104:	24a5ffff 	addiu	a1,a1,-1
     108:	3c020005 	lui	v0,0x5
     10c:	244405b0 	addiu	a0,v0,1456
     110:	03e00008 	jr	ra
     114:	00801021 	move	v0,a0

00000118 <itoh>:
     118:	3c020005 	lui	v0,0x5
     11c:	24050030 	li	a1,48
     120:	244305a4 	addiu	v1,v0,1444
     124:	a04505a4 	sb	a1,1444(v0)
     128:	24020078 	li	v0,120
     12c:	a0620001 	sb	v0,1(v1)
     130:	1480000a 	bnez	a0,15c <itoh+0x44>
     134:	a060000a 	sb	zero,10(v1)
     138:	a0650009 	sb	a1,9(v1)
     13c:	a0650002 	sb	a1,2(v1)
     140:	a0650003 	sb	a1,3(v1)
     144:	a0650004 	sb	a1,4(v1)
     148:	a0650005 	sb	a1,5(v1)
     14c:	a0650006 	sb	a1,6(v1)
     150:	a0650007 	sb	a1,7(v1)
     154:	08000067 	j	19c <itoh+0x84>
     158:	a0650008 	sb	a1,8(v1)
     15c:	3c020005 	lui	v0,0x5
     160:	244505ad 	addiu	a1,v0,1453
     164:	3c020005 	lui	v0,0x5
     168:	244705a5 	addiu	a3,v0,1445
     16c:	3082000f 	andi	v0,a0,0xf
     170:	24460030 	addiu	a2,v0,48
     174:	24430057 	addiu	v1,v0,87
     178:	2c42000a 	sltiu	v0,v0,10
     17c:	10400003 	beqz	v0,18c <itoh+0x74>
     180:	00000000 	nop
     184:	08000064 	j	190 <itoh+0x78>
     188:	a0a60000 	sb	a2,0(a1)
     18c:	a0a30000 	sb	v1,0(a1)
     190:	24a5ffff 	addiu	a1,a1,-1
     194:	14a7fff5 	bne	a1,a3,16c <itoh+0x54>
     198:	00042102 	srl	a0,a0,0x4
     19c:	3c020005 	lui	v0,0x5
     1a0:	03e00008 	jr	ra
     1a4:	244205a4 	addiu	v0,v0,1444

000001a8 <abs>:
     1a8:	04810002 	bgez	a0,1b4 <abs+0xc>
     1ac:	00801021 	move	v0,a0
     1b0:	00041023 	negu	v0,a0
     1b4:	03e00008 	jr	ra
     1b8:	00000000 	nop

000001bc <rand>:
     1bc:	30820001 	andi	v0,a0,0x1
     1c0:	00021023 	negu	v0,v0
     1c4:	3042b400 	andi	v0,v0,0xb400
     1c8:	00042043 	sra	a0,a0,0x1
     1cc:	00822026 	xor	a0,a0,v0
     1d0:	14c00002 	bnez	a2,1dc <rand+0x20>
     1d4:	0086001a 	div	zero,a0,a2
     1d8:	0007000d 	break	0x7
     1dc:	00001010 	mfhi	v0
     1e0:	03e00008 	jr	ra
     1e4:	00451021 	addu	v0,v0,a1

000001e8 <add>:
     1e8:	03e00008 	jr	ra
     1ec:	00851021 	addu	v0,a0,a1

000001f0 <sub>:
     1f0:	03e00008 	jr	ra
     1f4:	00851023 	subu	v0,a0,a1

000001f8 <memset>:
     1f8:	00801021 	move	v0,a0
     1fc:	08000083 	j	20c <memset+0x14>
     200:	00801821 	move	v1,a0
     204:	a0650000 	sb	a1,0(v1)
     208:	24630001 	addiu	v1,v1,1
     20c:	1cc0fffd 	bgtz	a2,204 <memset+0xc>
     210:	24c6ffff 	addiu	a2,a2,-1
     214:	03e00008 	jr	ra
     218:	00000000 	nop

0000021c <fixetoa>:
     21c:	0481003c 	bgez	a0,310 <fixetoa+0xf4>
     220:	00801021 	move	v0,a0
     224:	3c020005 	lui	v0,0x5
     228:	24470594 	addiu	a3,v0,1428
     22c:	3c026666 	lui	v0,0x6666
     230:	00042823 	negu	a1,a0
     234:	344a6667 	ori	t2,v0,0x6667
     238:	00003021 	move	a2,zero
     23c:	24090030 	li	t1,48
     240:	080000a2 	j	288 <fixetoa+0x6c>
     244:	2408000c 	li	t0,12
     248:	0800009f 	j	27c <fixetoa+0x60>
     24c:	a0e90000 	sb	t1,0(a3)
     250:	00aa0018 	mult	a1,t2
     254:	00001010 	mfhi	v0
     258:	00021083 	sra	v0,v0,0x2
     25c:	00431023 	subu	v0,v0,v1
     260:	00021840 	sll	v1,v0,0x1
     264:	000220c0 	sll	a0,v0,0x3
     268:	00641821 	addu	v1,v1,a0
     26c:	00a31823 	subu	v1,a1,v1
     270:	24630030 	addiu	v1,v1,48
     274:	00402821 	move	a1,v0
     278:	a0e30000 	sb	v1,0(a3)
     27c:	24c60001 	addiu	a2,a2,1
     280:	10c80006 	beq	a2,t0,29c <fixetoa+0x80>
     284:	24e70001 	addiu	a3,a3,1
     288:	00051fc3 	sra	v1,a1,0x1f
     28c:	14a0fff0 	bnez	a1,250 <fixetoa+0x34>
     290:	28c20005 	slti	v0,a2,5
     294:	1440ffec 	bnez	v0,248 <fixetoa+0x2c>
     298:	00000000 	nop
     29c:	3c030005 	lui	v1,0x5
     2a0:	24630584 	addiu	v1,v1,1412
     2a4:	3c020005 	lui	v0,0x5
     2a8:	24c40001 	addiu	a0,a2,1
     2ac:	00604021 	move	t0,v1
     2b0:	24470594 	addiu	a3,v0,1428
     2b4:	00c31821 	addu	v1,a2,v1
     2b8:	00002821 	move	a1,zero
     2bc:	24090004 	li	t1,4
     2c0:	2406002e 	li	a2,46
     2c4:	080000bd 	j	2f4 <fixetoa+0xd8>
     2c8:	a0600002 	sb	zero,2(v1)
     2cc:	14a90003 	bne	a1,t1,2dc <fixetoa+0xc0>
     2d0:	00000000 	nop
     2d4:	a0460000 	sb	a2,0(v0)
     2d8:	2484ffff 	addiu	a0,a0,-1
     2dc:	90e30000 	lbu	v1,0(a3)
     2e0:	00881021 	addu	v0,a0,t0
     2e4:	24a50001 	addiu	a1,a1,1
     2e8:	a0430000 	sb	v1,0(v0)
     2ec:	2484ffff 	addiu	a0,a0,-1
     2f0:	24e70001 	addiu	a3,a3,1
     2f4:	0481fff5 	bgez	a0,2cc <fixetoa+0xb0>
     2f8:	00881021 	addu	v0,a0,t0
     2fc:	3c030005 	lui	v1,0x5
     300:	2402002d 	li	v0,45
     304:	24650584 	addiu	a1,v1,1412
     308:	08000103 	j	40c <fixetoa+0x1f0>
     30c:	a0620584 	sb	v0,1412(v1)
     310:	10400005 	beqz	v0,328 <fixetoa+0x10c>
     314:	3c040005 	lui	a0,0x5
     318:	00402821 	move	a1,v0
     31c:	24870594 	addiu	a3,a0,1428
     320:	080000e4 	j	390 <fixetoa+0x174>
     324:	00003021 	move	a2,zero
     328:	24830594 	addiu	v1,a0,1428
     32c:	24020030 	li	v0,48
     330:	00602821 	move	a1,v1
     334:	a0820594 	sb	v0,1428(a0)
     338:	08000103 	j	40c <fixetoa+0x1f0>
     33c:	a0600001 	sb	zero,1(v1)
     340:	24020030 	li	v0,48
     344:	080000e0 	j	380 <fixetoa+0x164>
     348:	a0e20000 	sb	v0,0(a3)
     34c:	3c026666 	lui	v0,0x6666
     350:	34426667 	ori	v0,v0,0x6667
     354:	00a20018 	mult	a1,v0
     358:	00001010 	mfhi	v0
     35c:	00021083 	sra	v0,v0,0x2
     360:	00431023 	subu	v0,v0,v1
     364:	00021840 	sll	v1,v0,0x1
     368:	000220c0 	sll	a0,v0,0x3
     36c:	00641821 	addu	v1,v1,a0
     370:	00a31823 	subu	v1,a1,v1
     374:	24630030 	addiu	v1,v1,48
     378:	00402821 	move	a1,v0
     37c:	a0e30000 	sb	v1,0(a3)
     380:	24c60001 	addiu	a2,a2,1
     384:	2402000c 	li	v0,12
     388:	10c20006 	beq	a2,v0,3a4 <fixetoa+0x188>
     38c:	24e70001 	addiu	a3,a3,1
     390:	00051fc3 	sra	v1,a1,0x1f
     394:	14a0ffed 	bnez	a1,34c <fixetoa+0x130>
     398:	28c20005 	slti	v0,a2,5
     39c:	1440ffe8 	bnez	v0,340 <fixetoa+0x124>
     3a0:	00000000 	nop
     3a4:	3c030005 	lui	v1,0x5
     3a8:	24630584 	addiu	v1,v1,1412
     3ac:	3c020005 	lui	v0,0x5
     3b0:	00c02021 	move	a0,a2
     3b4:	00604021 	move	t0,v1
     3b8:	24470594 	addiu	a3,v0,1428
     3bc:	00c31821 	addu	v1,a2,v1
     3c0:	00002821 	move	a1,zero
     3c4:	24090004 	li	t1,4
     3c8:	2406002e 	li	a2,46
     3cc:	080000ff 	j	3fc <fixetoa+0x1e0>
     3d0:	a0600001 	sb	zero,1(v1)
     3d4:	14a90003 	bne	a1,t1,3e4 <fixetoa+0x1c8>
     3d8:	00000000 	nop
     3dc:	a0460000 	sb	a2,0(v0)
     3e0:	2484ffff 	addiu	a0,a0,-1
     3e4:	90e30000 	lbu	v1,0(a3)
     3e8:	00881021 	addu	v0,a0,t0
     3ec:	24a50001 	addiu	a1,a1,1
     3f0:	a0430000 	sb	v1,0(v0)
     3f4:	2484ffff 	addiu	a0,a0,-1
     3f8:	24e70001 	addiu	a3,a3,1
     3fc:	0481fff5 	bgez	a0,3d4 <fixetoa+0x1b8>
     400:	00881021 	addu	v0,a0,t0
     404:	3c020005 	lui	v0,0x5
     408:	24450584 	addiu	a1,v0,1412
     40c:	03e00008 	jr	ra
     410:	00a01021 	move	v0,a1

00000414 <strcpy>:
     414:	00801821 	move	v1,a0
     418:	80a20000 	lb	v0,0(a1)
     41c:	24a50001 	addiu	a1,a1,1
     420:	a0620000 	sb	v0,0(v1)
     424:	1440fffc 	bnez	v0,418 <strcpy+0x4>
     428:	24630001 	addiu	v1,v1,1
     42c:	03e00008 	jr	ra
     430:	00801021 	move	v0,a0

00000434 <strlen>:
     434:	00801821 	move	v1,a0
     438:	80620000 	lb	v0,0(v1)
     43c:	00000000 	nop
     440:	1440fffd 	bnez	v0,438 <strlen+0x4>
     444:	24630001 	addiu	v1,v1,1
     448:	00641023 	subu	v0,v1,a0
     44c:	03e00008 	jr	ra
     450:	2442ffff 	addiu	v0,v0,-1

00000454 <get_service_header_slot>:
     454:	3c020005 	lui	v0,0x5
     458:	244421c4 	addiu	a0,v0,8644
     45c:	8c83003c 	lw	v1,60(a0)
     460:	3c020005 	lui	v0,0x5
     464:	00803821 	move	a3,a0
     468:	10600005 	beqz	v1,480 <get_service_header_slot+0x2c>
     46c:	24462170 	addiu	a2,v0,8560
     470:	24020001 	li	v0,1
     474:	acc2003c 	sw	v0,60(a2)
     478:	08000124 	j	490 <get_service_header_slot+0x3c>
     47c:	ac80003c 	sw	zero,60(a0)
     480:	24020001 	li	v0,1
     484:	ac82003c 	sw	v0,60(a0)
     488:	acc0003c 	sw	zero,60(a2)
     48c:	00c03821 	move	a3,a2
     490:	03e00008 	jr	ra
     494:	00e01021 	move	v0,a3

00000498 <init_service_header_slots>:
     498:	24020001 	li	v0,1
     49c:	3c030005 	lui	v1,0x5
     4a0:	ac6221ac 	sw	v0,8620(v1)
     4a4:	3c030005 	lui	v1,0x5
     4a8:	03e00008 	jr	ra
     4ac:	ac622200 	sw	v0,8704(v1)

000004b0 <DMA_read_data>:
     4b0:	3c022000 	lui	v0,0x2000
     4b4:	24090001 	li	t1,1
     4b8:	34430200 	ori	v1,v0,0x200
     4bc:	34460220 	ori	a2,v0,0x220
     4c0:	34470210 	ori	a3,v0,0x210
     4c4:	34480230 	ori	t0,v0,0x230
     4c8:	ac650000 	sw	a1,0(v1)
     4cc:	acc90000 	sw	t1,0(a2)
     4d0:	34430260 	ori	v1,v0,0x260
     4d4:	ace40000 	sw	a0,0(a3)
     4d8:	ad090000 	sw	t1,0(t0)
     4dc:	8c620000 	lw	v0,0(v1)
     4e0:	00000000 	nop
     4e4:	1440fffd 	bnez	v0,4dc <DMA_read_data+0x2c>
     4e8:	00000000 	nop
     4ec:	03e00008 	jr	ra
     4f0:	00000000 	nop

000004f4 <DMA_send_data>:
     4f4:	3c062000 	lui	a2,0x2000
     4f8:	00804021 	move	t0,a0
     4fc:	00a03821 	move	a3,a1
     500:	34c30250 	ori	v1,a2,0x250
     504:	8c620000 	lw	v0,0(v1)
     508:	00000000 	nop
     50c:	1440fffd 	bnez	v0,504 <DMA_send_data+0x10>
     510:	34c20200 	ori	v0,a2,0x200
     514:	ac470000 	sw	a3,0(v0)
     518:	34c50230 	ori	a1,a2,0x230
     51c:	34c30220 	ori	v1,a2,0x220
     520:	34c40210 	ori	a0,a2,0x210
     524:	24020001 	li	v0,1
     528:	ac600000 	sw	zero,0(v1)
     52c:	ac880000 	sw	t0,0(a0)
     530:	aca20000 	sw	v0,0(a1)
     534:	03e00008 	jr	ra
     538:	00000000 	nop

0000053c <send_packet>:
     53c:	24c2000d 	addiu	v0,a2,13
     540:	ac820004 	sw	v0,4(a0)
     544:	3c022000 	lui	v0,0x2000
     548:	ac80001c 	sw	zero,28(a0)
     54c:	34420140 	ori	v0,v0,0x140
     550:	8c420000 	lw	v0,0(v0)
     554:	3c072000 	lui	a3,0x2000
     558:	00804021 	move	t0,a0
     55c:	ac820014 	sw	v0,20(a0)
     560:	34e30250 	ori	v1,a3,0x250
     564:	8c620000 	lw	v0,0(v1)
     568:	00000000 	nop
     56c:	1440fffd 	bnez	v0,564 <send_packet+0x28>
     570:	34e20300 	ori	v0,a3,0x300
     574:	8c420000 	lw	v0,0(v0)
     578:	34e30200 	ori	v1,a3,0x200
     57c:	ad020018 	sw	v0,24(t0)
     580:	34e40210 	ori	a0,a3,0x210
     584:	2402000f 	li	v0,15
     588:	ac620000 	sw	v0,0(v1)
     58c:	ac880000 	sw	t0,0(a0)
     590:	10c00004 	beqz	a2,5a4 <send_packet+0x68>
     594:	34e20205 	ori	v0,a3,0x205
     598:	34e30215 	ori	v1,a3,0x215
     59c:	ac460000 	sw	a2,0(v0)
     5a0:	ac650000 	sw	a1,0(v1)
     5a4:	34e30220 	ori	v1,a3,0x220
     5a8:	ac600000 	sw	zero,0(v1)
     5ac:	34e20230 	ori	v0,a3,0x230
     5b0:	24030001 	li	v1,1
     5b4:	ac430000 	sw	v1,0(v0)
     5b8:	03e00008 	jr	ra
     5bc:	00000000 	nop

000005c0 <read_packet>:
     5c0:	3c032000 	lui	v1,0x2000
     5c4:	24090001 	li	t1,1
     5c8:	34650200 	ori	a1,v1,0x200
     5cc:	34660220 	ori	a2,v1,0x220
     5d0:	34670210 	ori	a3,v1,0x210
     5d4:	34680230 	ori	t0,v1,0x230
     5d8:	2402000f 	li	v0,15
     5dc:	aca20000 	sw	v0,0(a1)
     5e0:	34630260 	ori	v1,v1,0x260
     5e4:	acc90000 	sw	t1,0(a2)
     5e8:	ace40000 	sw	a0,0(a3)
     5ec:	ad090000 	sw	t1,0(t0)
     5f0:	8c620000 	lw	v0,0(v1)
     5f4:	00000000 	nop
     5f8:	1440fffd 	bnez	v0,5f0 <read_packet+0x30>
     5fc:	00000000 	nop
     600:	03e00008 	jr	ra
     604:	00000000 	nop

00000608 <init_new_task_list>:
     608:	3c020005 	lui	v0,0x5
     60c:	24432434 	addiu	v1,v0,9268
     610:	3c020005 	lui	v0,0x5
     614:	24422bdc 	addiu	v0,v0,11228
     618:	2404ffff 	li	a0,-1
     61c:	ac640000 	sw	a0,0(v1)
     620:	2463001c 	addiu	v1,v1,28
     624:	1462fffd 	bne	v1,v0,61c <init_new_task_list+0x14>
     628:	00000000 	nop
     62c:	03e00008 	jr	ra
     630:	00000000 	nop

00000634 <add_new_task>:
     634:	3c060005 	lui	a2,0x5
     638:	8cc5eed8 	lw	a1,-4392(a2)
     63c:	00804021 	move	t0,a0
     640:	00051080 	sll	v0,a1,0x2
     644:	00051940 	sll	v1,a1,0x5
     648:	00621823 	subu	v1,v1,v0
     64c:	3c020005 	lui	v0,0x5
     650:	24422434 	addiu	v0,v0,9268
     654:	00624821 	addu	t1,v1,v0
     658:	24020045 	li	v0,69
     65c:	14a20003 	bne	a1,v0,66c <add_new_task+0x38>
     660:	24a70001 	addiu	a3,a1,1
     664:	0800019c 	j	670 <add_new_task+0x3c>
     668:	acc0eed8 	sw	zero,-4392(a2)
     66c:	acc7eed8 	sw	a3,-4392(a2)
     670:	8d020018 	lw	v0,24(t0)
     674:	8d030000 	lw	v1,0(t0)
     678:	8d040004 	lw	a0,4(t0)
     67c:	8d050008 	lw	a1,8(t0)
     680:	8d06000c 	lw	a2,12(t0)
     684:	8d070010 	lw	a3,16(t0)
     688:	8d080014 	lw	t0,20(t0)
     68c:	ad220018 	sw	v0,24(t1)
     690:	ad230000 	sw	v1,0(t1)
     694:	ad240004 	sw	a0,4(t1)
     698:	ad250008 	sw	a1,8(t1)
     69c:	ad26000c 	sw	a2,12(t1)
     6a0:	ad270010 	sw	a3,16(t1)
     6a4:	03e00008 	jr	ra
     6a8:	ad280014 	sw	t0,20(t1)

000006ac <get_next_new_task>:
     6ac:	3c070005 	lui	a3,0x5
     6b0:	3c020005 	lui	v0,0x5
     6b4:	8ce5eed4 	lw	a1,-4396(a3)
     6b8:	8c44eed8 	lw	a0,-4392(v0)
     6bc:	00051880 	sll	v1,a1,0x2
     6c0:	00051140 	sll	v0,a1,0x5
     6c4:	00433023 	subu	a2,v0,v1
     6c8:	10a4000a 	beq	a1,a0,6f4 <get_next_new_task+0x48>
     6cc:	00004021 	move	t0,zero
     6d0:	3c020005 	lui	v0,0x5
     6d4:	24422434 	addiu	v0,v0,9268
     6d8:	00c24021 	addu	t0,a2,v0
     6dc:	24020045 	li	v0,69
     6e0:	14a20003 	bne	a1,v0,6f0 <get_next_new_task+0x44>
     6e4:	24a30001 	addiu	v1,a1,1
     6e8:	080001bd 	j	6f4 <get_next_new_task+0x48>
     6ec:	ace0eed4 	sw	zero,-4396(a3)
     6f0:	ace3eed4 	sw	v1,-4396(a3)
     6f4:	03e00008 	jr	ra
     6f8:	01001021 	move	v0,t0

000006fc <init_task_req_list>:
     6fc:	3c020005 	lui	v0,0x5
     700:	24432204 	addiu	v1,v0,8708
     704:	3c020005 	lui	v0,0x5
     708:	24422434 	addiu	v0,v0,9268
     70c:	2404ffff 	li	a0,-1
     710:	ac640000 	sw	a0,0(v1)
     714:	24630008 	addiu	v1,v1,8
     718:	1462fffd 	bne	v1,v0,710 <init_task_req_list+0x14>
     71c:	00000000 	nop
     720:	03e00008 	jr	ra
     724:	00000000 	nop

00000728 <add_task_request>:
     728:	3c070005 	lui	a3,0x5
     72c:	8ce3eee0 	lw	v1,-4384(a3)
     730:	3c020005 	lui	v0,0x5
     734:	24422204 	addiu	v0,v0,8708
     738:	000330c0 	sll	a2,v1,0x3
     73c:	00c23021 	addu	a2,a2,v0
     740:	24020045 	li	v0,69
     744:	14620003 	bne	v1,v0,754 <add_task_request+0x2c>
     748:	24680001 	addiu	t0,v1,1
     74c:	080001d6 	j	758 <add_task_request+0x30>
     750:	ace0eee0 	sw	zero,-4384(a3)
     754:	ace8eee0 	sw	t0,-4384(a3)
     758:	acc50004 	sw	a1,4(a2)
     75c:	03e00008 	jr	ra
     760:	acc40000 	sw	a0,0(a2)

00000764 <get_next_task_request>:
     764:	3c060005 	lui	a2,0x5
     768:	3c020005 	lui	v0,0x5
     76c:	8cc3eedc 	lw	v1,-4388(a2)
     770:	8c42eee0 	lw	v0,-4384(v0)
     774:	000328c0 	sll	a1,v1,0x3
     778:	1062000a 	beq	v1,v0,7a4 <get_next_task_request+0x40>
     77c:	00003821 	move	a3,zero
     780:	3c020005 	lui	v0,0x5
     784:	24422204 	addiu	v0,v0,8708
     788:	00a23821 	addu	a3,a1,v0
     78c:	24020045 	li	v0,69
     790:	14620003 	bne	v1,v0,7a0 <get_next_task_request+0x3c>
     794:	24640001 	addiu	a0,v1,1
     798:	080001e9 	j	7a4 <get_next_task_request+0x40>
     79c:	acc0eedc 	sw	zero,-4388(a2)
     7a0:	acc4eedc 	sw	a0,-4388(a2)
     7a4:	03e00008 	jr	ra
     7a8:	00e01021 	move	v0,a3

000007ac <InitialMapping>:
     7ac:	27bdffb8 	addiu	sp,sp,-72
     7b0:	afb60038 	sw	s6,56(sp)
     7b4:	afb10024 	sw	s1,36(sp)
     7b8:	afbe0040 	sw	s8,64(sp)
     7bc:	afb7003c 	sw	s7,60(sp)
     7c0:	afb50034 	sw	s5,52(sp)
     7c4:	afb40030 	sw	s4,48(sp)
     7c8:	afb3002c 	sw	s3,44(sp)
     7cc:	afb20028 	sw	s2,40(sp)
     7d0:	afb00020 	sw	s0,32(sp)
     7d4:	3c020005 	lui	v0,0x5
     7d8:	8c55edc8 	lw	s5,-4664(v0)
     7dc:	3c020005 	lui	v0,0x5
     7e0:	8c50edd8 	lw	s0,-4648(v0)
     7e4:	001518c0 	sll	v1,s5,0x3
     7e8:	00151040 	sll	v0,s5,0x1
     7ec:	00621823 	subu	v1,v1,v0
     7f0:	3c020005 	lui	v0,0x5
     7f4:	8c5eedd0 	lw	s8,-4656(v0)
     7f8:	3c020005 	lui	v0,0x5
     7fc:	8c57ede0 	lw	s7,-4640(v0)
     800:	00151200 	sll	v0,s5,0x8
     804:	00508821 	addu	s1,v0,s0
     808:	0070b021 	addu	s6,v1,s0
     80c:	24020001 	li	v0,1
     810:	2403ffff 	li	v1,-1
     814:	02a06821 	move	t5,s5
     818:	afa40048 	sw	a0,72(sp)
     81c:	afa00018 	sw	zero,24(sp)
     820:	afa20014 	sw	v0,20(sp)
     824:	afa30010 	sw	v1,16(sp)
     828:	afa3000c 	sw	v1,12(sp)
     82c:	afa30008 	sw	v1,8(sp)
     830:	afa30004 	sw	v1,4(sp)
     834:	0800027d 	j	9f4 <InitialMapping+0x248>
     838:	afa30000 	sw	v1,0(sp)
     83c:	24847614 	addiu	a0,a0,30228
     840:	02c4a021 	addu	s4,s6,a0
     844:	0200c821 	move	t9,s0
     848:	02209821 	move	s3,s1
     84c:	08000277 	j	9dc <InitialMapping+0x230>
     850:	02209021 	move	s2,s1
     854:	82820000 	lb	v0,0(s4)
     858:	00000000 	nop
     85c:	1840005b 	blez	v0,9cc <InitialMapping+0x220>
     860:	25a3fffd 	addiu	v1,t5,-3
     864:	02a3102a 	slt	v0,s5,v1
     868:	25a70003 	addiu	a3,t5,3
     86c:	2726fffd 	addiu	a2,t9,-3
     870:	27280003 	addiu	t0,t9,3
     874:	10400002 	beqz	v0,880 <InitialMapping+0xd4>
     878:	02a07821 	move	t7,s5
     87c:	00607821 	move	t7,v1
     880:	0206102a 	slt	v0,s0,a2
     884:	10400002 	beqz	v0,890 <InitialMapping+0xe4>
     888:	02006021 	move	t4,s0
     88c:	00c06021 	move	t4,a2
     890:	00fe102a 	slt	v0,a3,s8
     894:	10400002 	beqz	v0,8a0 <InitialMapping+0xf4>
     898:	03c0c021 	move	t8,s8
     89c:	00e0c021 	move	t8,a3
     8a0:	0117102a 	slt	v0,t0,s7
     8a4:	10400002 	beqz	v0,8b0 <InitialMapping+0x104>
     8a8:	02e07021 	move	t6,s7
     8ac:	01007021 	move	t6,t0
     8b0:	01af5823 	subu	t3,t5,t7
     8b4:	01e05021 	move	t2,t7
     8b8:	00002821 	move	a1,zero
     8bc:	0800024a 	j	928 <InitialMapping+0x17c>
     8c0:	00002021 	move	a0,zero
     8c4:	01603021 	move	a2,t3
     8c8:	05610002 	bgez	t3,8d4 <InitialMapping+0x128>
     8cc:	00e01021 	move	v0,a3
     8d0:	000b3023 	negu	a2,t3
     8d4:	04e10003 	bgez	a3,8e4 <InitialMapping+0x138>
     8d8:	00c21021 	addu	v0,a2,v0
     8dc:	00071023 	negu	v0,a3
     8e0:	00c21021 	addu	v0,a2,v0
     8e4:	28420004 	slti	v0,v0,4
     8e8:	10400008 	beqz	v0,90c <InitialMapping+0x160>
     8ec:	24e7ffff 	addiu	a3,a3,-1
     8f0:	80660000 	lb	a2,0(v1)
     8f4:	00000000 	nop
     8f8:	18c00004 	blez	a2,90c <InitialMapping+0x160>
     8fc:	00000000 	nop
     900:	8d220000 	lw	v0,0(t1)
     904:	00a62821 	addu	a1,a1,a2
     908:	00822021 	addu	a0,a0,v0
     90c:	24630001 	addiu	v1,v1,1
     910:	25290004 	addiu	t1,t1,4
     914:	01c8102a 	slt	v0,t6,t0
     918:	1040ffea 	beqz	v0,8c4 <InitialMapping+0x118>
     91c:	25080001 	addiu	t0,t0,1
     920:	254a0001 	addiu	t2,t2,1
     924:	256bffff 	addiu	t3,t3,-1
     928:	030a102a 	slt	v0,t8,t2
     92c:	1440000e 	bnez	v0,968 <InitialMapping+0x1bc>
     930:	000a1040 	sll	v0,t2,0x1
     934:	000a18c0 	sll	v1,t2,0x3
     938:	00621823 	subu	v1,v1,v0
     93c:	01831821 	addu	v1,t4,v1
     940:	3c060005 	lui	a2,0x5
     944:	00031080 	sll	v0,v1,0x2
     948:	24c6ede4 	addiu	a2,a2,-4636
     94c:	00464821 	addu	t1,v0,a2
     950:	3c020004 	lui	v0,0x4
     954:	24427614 	addiu	v0,v0,30228
     958:	032c3823 	subu	a3,t9,t4
     95c:	00621821 	addu	v1,v1,v0
     960:	08000245 	j	914 <InitialMapping+0x168>
     964:	01804021 	move	t0,t4
     968:	14a00002 	bnez	a1,974 <InitialMapping+0x1c8>
     96c:	0085001a 	div	zero,a0,a1
     970:	0007000d 	break	0x7
     974:	8fa40018 	lw	a0,24(sp)
     978:	00001812 	mflo	v1
     97c:	0064102a 	slt	v0,v1,a0
     980:	10400007 	beqz	v0,9a0 <InitialMapping+0x1f4>
     984:	00000000 	nop
     988:	afb20000 	sw	s2,0(sp)
     98c:	afa30018 	sw	v1,24(sp)
     990:	afae0010 	sw	t6,16(sp)
     994:	afac000c 	sw	t4,12(sp)
     998:	afb80008 	sw	t8,8(sp)
     99c:	afaf0004 	sw	t7,4(sp)
     9a0:	8fa60014 	lw	a2,20(sp)
     9a4:	24020001 	li	v0,1
     9a8:	14c20008 	bne	a2,v0,9cc <InitialMapping+0x220>
     9ac:	00000000 	nop
     9b0:	afa30018 	sw	v1,24(sp)
     9b4:	afae0010 	sw	t6,16(sp)
     9b8:	afac000c 	sw	t4,12(sp)
     9bc:	afb80008 	sw	t8,8(sp)
     9c0:	afaf0004 	sw	t7,4(sp)
     9c4:	afb30000 	sw	s3,0(sp)
     9c8:	afa00014 	sw	zero,20(sp)
     9cc:	27390001 	addiu	t9,t9,1
     9d0:	26730001 	addiu	s3,s3,1
     9d4:	26940001 	addiu	s4,s4,1
     9d8:	26520001 	addiu	s2,s2,1
     9dc:	02f9102a 	slt	v0,s7,t9
     9e0:	1040ff9c 	beqz	v0,854 <InitialMapping+0xa8>
     9e4:	00000000 	nop
     9e8:	25ad0001 	addiu	t5,t5,1
     9ec:	26d60006 	addiu	s6,s6,6
     9f0:	26310100 	addiu	s1,s1,256
     9f4:	03cd102a 	slt	v0,s8,t5
     9f8:	1040ff90 	beqz	v0,83c <InitialMapping+0x90>
     9fc:	3c040004 	lui	a0,0x4
     a00:	8fa30048 	lw	v1,72(sp)
     a04:	8fa40010 	lw	a0,16(sp)
     a08:	8fa6000c 	lw	a2,12(sp)
     a0c:	ac640010 	sw	a0,16(v1)
     a10:	ac66000c 	sw	a2,12(v1)
     a14:	8fa20008 	lw	v0,8(sp)
     a18:	8fa40004 	lw	a0,4(sp)
     a1c:	8fa60000 	lw	a2,0(sp)
     a20:	ac620008 	sw	v0,8(v1)
     a24:	ac640004 	sw	a0,4(v1)
     a28:	ac660000 	sw	a2,0(v1)
     a2c:	8fbe0040 	lw	s8,64(sp)
     a30:	8fb7003c 	lw	s7,60(sp)
     a34:	8fb60038 	lw	s6,56(sp)
     a38:	8fb50034 	lw	s5,52(sp)
     a3c:	8fb40030 	lw	s4,48(sp)
     a40:	8fb3002c 	lw	s3,44(sp)
     a44:	8fb20028 	lw	s2,40(sp)
     a48:	8fb10024 	lw	s1,36(sp)
     a4c:	8fb00020 	lw	s0,32(sp)
     a50:	00601021 	move	v0,v1
     a54:	03e00008 	jr	ra
     a58:	27bd0048 	addiu	sp,sp,72

00000a5c <InitialMapping2>:
     a5c:	27bdffd8 	addiu	sp,sp,-40
     a60:	afbe0020 	sw	s8,32(sp)
     a64:	afb7001c 	sw	s7,28(sp)
     a68:	afb60018 	sw	s6,24(sp)
     a6c:	afb50014 	sw	s5,20(sp)
     a70:	afb40010 	sw	s4,16(sp)
     a74:	afb3000c 	sw	s3,12(sp)
     a78:	afb20008 	sw	s2,8(sp)
     a7c:	afb10004 	sw	s1,4(sp)
     a80:	afb00000 	sw	s0,0(sp)
     a84:	3c020004 	lui	v0,0x4
     a88:	8c427430 	lw	v0,29744(v0)
     a8c:	afa40028 	sw	a0,40(sp)
     a90:	afa5002c 	sw	a1,44(sp)
     a94:	afa60030 	sw	a2,48(sp)
     a98:	afa70034 	sw	a3,52(sp)
     a9c:	8fa40038 	lw	a0,56(sp)
     aa0:	14400003 	bnez	v0,ab0 <InitialMapping2+0x54>
     aa4:	3c020005 	lui	v0,0x5
     aa8:	08000303 	j	c0c <InitialMapping2+0x1b0>
     aac:	2403ffff 	li	v1,-1
     ab0:	8c53edc8 	lw	s3,-4664(v0)
     ab4:	3c020005 	lui	v0,0x5
     ab8:	8c52edd8 	lw	s2,-4648(v0)
     abc:	3c020005 	lui	v0,0x5
     ac0:	8c51edd0 	lw	s1,-4656(v0)
     ac4:	3c020005 	lui	v0,0x5
     ac8:	8c50ede0 	lw	s0,-4640(v0)
     acc:	3c020005 	lui	v0,0x5
     ad0:	00807821 	move	t7,a0
     ad4:	245eede4 	addiu	s8,v0,-4636
     ad8:	2418ffff 	li	t8,-1
     adc:	0000c821 	move	t9,zero
     ae0:	24150001 	li	s5,1
     ae4:	24170001 	li	s7,1
     ae8:	2414ffff 	li	s4,-1
     aec:	24160004 	li	s6,4
     af0:	00051200 	sll	v0,a1,0x8
     af4:	00476821 	addu	t5,v0,a3
     af8:	080002d8 	j	b60 <InitialMapping2+0x104>
     afc:	00a05821 	move	t3,a1
     b00:	80620000 	lb	v0,0(v1)
     b04:	00000000 	nop
     b08:	1840000d 	blez	v0,b40 <InitialMapping2+0xe4>
     b0c:	24630001 	addiu	v1,v1,1
     b10:	8d840000 	lw	a0,0(t4)
     b14:	00000000 	nop
     b18:	0099102b 	sltu	v0,a0,t9
     b1c:	10400003 	beqz	v0,b2c <InitialMapping2+0xd0>
     b20:	00000000 	nop
     b24:	0100c021 	move	t8,t0
     b28:	0080c821 	move	t9,a0
     b2c:	16b70004 	bne	s5,s7,b40 <InitialMapping2+0xe4>
     b30:	00000000 	nop
     b34:	0080c821 	move	t9,a0
     b38:	0000a821 	move	s5,zero
     b3c:	0120c021 	move	t8,t1
     b40:	25290001 	addiu	t1,t1,1
     b44:	25080001 	addiu	t0,t0,1
     b48:	258c0004 	addiu	t4,t4,4
     b4c:	01ea102a 	slt	v0,t7,t2
     b50:	1040ffeb 	beqz	v0,b00 <InitialMapping2+0xa4>
     b54:	254a0001 	addiu	t2,t2,1
     b58:	256b0001 	addiu	t3,t3,1
     b5c:	25ad0100 	addiu	t5,t5,256
     b60:	00cb102a 	slt	v0,a2,t3
     b64:	1440000d 	bnez	v0,b9c <InitialMapping2+0x140>
     b68:	000b1040 	sll	v0,t3,0x1
     b6c:	000b18c0 	sll	v1,t3,0x3
     b70:	00621823 	subu	v1,v1,v0
     b74:	00e31821 	addu	v1,a3,v1
     b78:	00031080 	sll	v0,v1,0x2
     b7c:	005e6021 	addu	t4,v0,s8
     b80:	3c020004 	lui	v0,0x4
     b84:	24427614 	addiu	v0,v0,30228
     b88:	00621821 	addu	v1,v1,v0
     b8c:	00e05021 	move	t2,a3
     b90:	01a04821 	move	t1,t5
     b94:	080002d3 	j	b4c <InitialMapping2+0xf0>
     b98:	01a04021 	move	t0,t5
     b9c:	17140012 	bne	t8,s4,be8 <InitialMapping2+0x18c>
     ba0:	0265102a 	slt	v0,s3,a1
     ba4:	10400003 	beqz	v0,bb4 <InitialMapping2+0x158>
     ba8:	00007021 	move	t6,zero
     bac:	24a5ffff 	addiu	a1,a1,-1
     bb0:	240e0001 	li	t6,1
     bb4:	0247102a 	slt	v0,s2,a3
     bb8:	10400003 	beqz	v0,bc8 <InitialMapping2+0x16c>
     bbc:	00d1102a 	slt	v0,a2,s1
     bc0:	24e7ffff 	addiu	a3,a3,-1
     bc4:	25ce0001 	addiu	t6,t6,1
     bc8:	10400003 	beqz	v0,bd8 <InitialMapping2+0x17c>
     bcc:	01f0102a 	slt	v0,t7,s0
     bd0:	24c60001 	addiu	a2,a2,1
     bd4:	25ce0001 	addiu	t6,t6,1
     bd8:	10400003 	beqz	v0,be8 <InitialMapping2+0x18c>
     bdc:	00000000 	nop
     be0:	25ef0001 	addiu	t7,t7,1
     be4:	25ce0001 	addiu	t6,t6,1
     be8:	11d60005 	beq	t6,s6,c00 <InitialMapping2+0x1a4>
     bec:	2402ffff 	li	v0,-1
     bf0:	17140005 	bne	t8,s4,c08 <InitialMapping2+0x1ac>
     bf4:	00051200 	sll	v0,a1,0x8
     bf8:	080002be 	j	af8 <InitialMapping2+0x9c>
     bfc:	00476821 	addu	t5,v0,a3
     c00:	13020002 	beq	t8,v0,c0c <InitialMapping2+0x1b0>
     c04:	03001821 	move	v1,t8
     c08:	03001821 	move	v1,t8
     c0c:	8fbe0020 	lw	s8,32(sp)
     c10:	8fb7001c 	lw	s7,28(sp)
     c14:	8fb60018 	lw	s6,24(sp)
     c18:	8fb50014 	lw	s5,20(sp)
     c1c:	8fb40010 	lw	s4,16(sp)
     c20:	8fb3000c 	lw	s3,12(sp)
     c24:	8fb20008 	lw	s2,8(sp)
     c28:	8fb10004 	lw	s1,4(sp)
     c2c:	8fb00000 	lw	s0,0(sp)
     c30:	00601021 	move	v0,v1
     c34:	03e00008 	jr	ra
     c38:	27bd0028 	addiu	sp,sp,40

00000c3c <SearchCluster>:
     c3c:	3c020004 	lui	v0,0x4
     c40:	8c427668 	lw	v0,30312(v0)
     c44:	00000000 	nop
     c48:	0044102a 	slt	v0,v0,a0
     c4c:	14400006 	bnez	v0,c68 <SearchCluster+0x2c>
     c50:	00000000 	nop
     c54:	3c020005 	lui	v0,0x5
     c58:	8c43ee74 	lw	v1,-4492(v0)
     c5c:	2402ffff 	li	v0,-1
     c60:	14620003 	bne	v1,v0,c70 <SearchCluster+0x34>
     c64:	00000000 	nop
     c68:	03e00008 	jr	ra
     c6c:	2402ffff 	li	v0,-1
     c70:	03e00008 	jr	ra
     c74:	00001021 	move	v0,zero

00000c78 <loan_mapping>:
     c78:	3c020005 	lui	v0,0x5
     c7c:	8c46edc8 	lw	a2,-4664(v0)
     c80:	3c020005 	lui	v0,0x5
     c84:	8c49edd8 	lw	t1,-4648(v0)
     c88:	000618c0 	sll	v1,a2,0x3
     c8c:	00061040 	sll	v0,a2,0x1
     c90:	00621823 	subu	v1,v1,v0
     c94:	3c020005 	lui	v0,0x5
     c98:	8c4bedd0 	lw	t3,-4656(v0)
     c9c:	3c020005 	lui	v0,0x5
     ca0:	8c4aede0 	lw	t2,-4640(v0)
     ca4:	3c020004 	lui	v0,0x4
     ca8:	244c7614 	addiu	t4,v0,30228
     cac:	0800033b 	j	cec <loan_mapping+0x74>
     cb0:	00691821 	addu	v1,v1,t1
     cb4:	006c2821 	addu	a1,v1,t4
     cb8:	01202021 	move	a0,t1
     cbc:	08000335 	j	cd4 <loan_mapping+0x5c>
     cc0:	00064200 	sll	t0,a2,0x8
     cc4:	80a20000 	lb	v0,0(a1)
     cc8:	00000000 	nop
     ccc:	1c40000a 	bgtz	v0,cf8 <loan_mapping+0x80>
     cd0:	24a50001 	addiu	a1,a1,1
     cd4:	0144102a 	slt	v0,t2,a0
     cd8:	01043825 	or	a3,t0,a0
     cdc:	1040fff9 	beqz	v0,cc4 <loan_mapping+0x4c>
     ce0:	24840001 	addiu	a0,a0,1
     ce4:	24c60001 	addiu	a2,a2,1
     ce8:	24630006 	addiu	v1,v1,6
     cec:	0166102a 	slt	v0,t3,a2
     cf0:	1040fff0 	beqz	v0,cb4 <loan_mapping+0x3c>
     cf4:	2407ffff 	li	a3,-1
     cf8:	03e00008 	jr	ra
     cfc:	00e01021 	move	v0,a3

00000d00 <puts>:
     d00:	8c830000 	lw	v1,0(a0)
     d04:	3c022000 	lui	v0,0x2000
     d08:	3c052000 	lui	a1,0x2000
     d0c:	ac430000 	sw	v1,0(v0)
     d10:	08000349 	j	d24 <puts+0x24>
     d14:	00000000 	nop
     d18:	8c820000 	lw	v0,0(a0)
     d1c:	00000000 	nop
     d20:	aca20000 	sw	v0,0(a1)
     d24:	80820000 	lb	v0,0(a0)
     d28:	00000000 	nop
     d2c:	1040000d 	beqz	v0,d64 <puts+0x64>
     d30:	00000000 	nop
     d34:	80820001 	lb	v0,1(a0)
     d38:	00000000 	nop
     d3c:	10400009 	beqz	v0,d64 <puts+0x64>
     d40:	00000000 	nop
     d44:	80820002 	lb	v0,2(a0)
     d48:	00000000 	nop
     d4c:	10400005 	beqz	v0,d64 <puts+0x64>
     d50:	00000000 	nop
     d54:	80820003 	lb	v0,3(a0)
     d58:	00000000 	nop
     d5c:	1440ffee 	bnez	v0,d18 <puts+0x18>
     d60:	24840004 	addiu	a0,a0,4
     d64:	03e00008 	jr	ra
     d68:	00000000 	nop

00000d6c <putsv>:
     d6c:	27bdffe8 	addiu	sp,sp,-24
     d70:	afb00010 	sw	s0,16(sp)
     d74:	afbf0014 	sw	ra,20(sp)
     d78:	0c000340 	jal	d00 <puts>
     d7c:	00a08021 	move	s0,a1
     d80:	0c00000b 	jal	2c <itoa>
     d84:	02002021 	move	a0,s0
     d88:	0c000340 	jal	d00 <puts>
     d8c:	00402021 	move	a0,v0
     d90:	3c040000 	lui	a0,0x0
     d94:	8fbf0014 	lw	ra,20(sp)
     d98:	8fb00010 	lw	s0,16(sp)
     d9c:	2484696c 	addiu	a0,a0,26988
     da0:	08000340 	j	d00 <puts>
     da4:	27bd0018 	addiu	sp,sp,24

00000da8 <search_cluster_ID>:
     da8:	27bdffe8 	addiu	sp,sp,-24
     dac:	3c020004 	lui	v0,0x4
     db0:	afbf0010 	sw	ra,16(sp)
     db4:	2443764c 	addiu	v1,v0,30284
     db8:	8c42764c 	lw	v0,30284(v0)
     dbc:	00000000 	nop
     dc0:	14440005 	bne	v0,a0,dd8 <search_cluster_ID+0x30>
     dc4:	00000000 	nop
     dc8:	8c620004 	lw	v0,4(v1)
     dcc:	00000000 	nop
     dd0:	10450005 	beq	v0,a1,de8 <search_cluster_ID+0x40>
     dd4:	00001821 	move	v1,zero
     dd8:	3c040000 	lui	a0,0x0
     ddc:	0c000340 	jal	d00 <puts>
     de0:	24846870 	addiu	a0,a0,26736
     de4:	2403ffff 	li	v1,-1
     de8:	8fbf0010 	lw	ra,16(sp)
     dec:	00601021 	move	v0,v1
     df0:	03e00008 	jr	ra
     df4:	27bd0018 	addiu	sp,sp,24

00000df8 <page_released>:
     df8:	00042a03 	sra	a1,a0,0x8
     dfc:	00051040 	sll	v0,a1,0x1
     e00:	000518c0 	sll	v1,a1,0x3
     e04:	00621823 	subu	v1,v1,v0
     e08:	3c020004 	lui	v0,0x4
     e0c:	24427614 	addiu	v0,v0,30228
     e10:	00621821 	addu	v1,v1,v0
     e14:	308600ff 	andi	a2,a0,0xff
     e18:	00661821 	addu	v1,v1,a2
     e1c:	3c020005 	lui	v0,0x5
     e20:	8c44edc8 	lw	a0,-4664(v0)
     e24:	90620000 	lbu	v0,0(v1)
     e28:	00a4202a 	slt	a0,a1,a0
     e2c:	24420001 	addiu	v0,v0,1
     e30:	14800015 	bnez	a0,e88 <page_released+0x90>
     e34:	a0620000 	sb	v0,0(v1)
     e38:	3c020005 	lui	v0,0x5
     e3c:	8c42edd0 	lw	v0,-4656(v0)
     e40:	00000000 	nop
     e44:	0045102a 	slt	v0,v0,a1
     e48:	1440000f 	bnez	v0,e88 <page_released+0x90>
     e4c:	3c020005 	lui	v0,0x5
     e50:	8c42edd8 	lw	v0,-4648(v0)
     e54:	00000000 	nop
     e58:	00c2102a 	slt	v0,a2,v0
     e5c:	1440000a 	bnez	v0,e88 <page_released+0x90>
     e60:	3c020005 	lui	v0,0x5
     e64:	8c42ede0 	lw	v0,-4640(v0)
     e68:	00000000 	nop
     e6c:	0046102a 	slt	v0,v0,a2
     e70:	14400005 	bnez	v0,e88 <page_released+0x90>
     e74:	3c030004 	lui	v1,0x4
     e78:	8c627430 	lw	v0,29744(v1)
     e7c:	00000000 	nop
     e80:	24420001 	addiu	v0,v0,1
     e84:	ac627430 	sw	v0,29744(v1)
     e88:	03e00008 	jr	ra
     e8c:	00000000 	nop

00000e90 <page_used>:
     e90:	00042a03 	sra	a1,a0,0x8
     e94:	00051040 	sll	v0,a1,0x1
     e98:	000518c0 	sll	v1,a1,0x3
     e9c:	00621823 	subu	v1,v1,v0
     ea0:	3c020004 	lui	v0,0x4
     ea4:	24427614 	addiu	v0,v0,30228
     ea8:	00621821 	addu	v1,v1,v0
     eac:	308600ff 	andi	a2,a0,0xff
     eb0:	00661821 	addu	v1,v1,a2
     eb4:	3c020005 	lui	v0,0x5
     eb8:	8c44edc8 	lw	a0,-4664(v0)
     ebc:	90620000 	lbu	v0,0(v1)
     ec0:	00a4202a 	slt	a0,a1,a0
     ec4:	2442ffff 	addiu	v0,v0,-1
     ec8:	14800015 	bnez	a0,f20 <page_used+0x90>
     ecc:	a0620000 	sb	v0,0(v1)
     ed0:	3c020005 	lui	v0,0x5
     ed4:	8c42edd0 	lw	v0,-4656(v0)
     ed8:	00000000 	nop
     edc:	0045102a 	slt	v0,v0,a1
     ee0:	1440000f 	bnez	v0,f20 <page_used+0x90>
     ee4:	3c020005 	lui	v0,0x5
     ee8:	8c42edd8 	lw	v0,-4648(v0)
     eec:	00000000 	nop
     ef0:	00c2102a 	slt	v0,a2,v0
     ef4:	1440000a 	bnez	v0,f20 <page_used+0x90>
     ef8:	3c020005 	lui	v0,0x5
     efc:	8c42ede0 	lw	v0,-4640(v0)
     f00:	00000000 	nop
     f04:	0046102a 	slt	v0,v0,a2
     f08:	14400005 	bnez	v0,f20 <page_used+0x90>
     f0c:	3c030004 	lui	v1,0x4
     f10:	8c627430 	lw	v0,29744(v1)
     f14:	00000000 	nop
     f18:	2442ffff 	addiu	v0,v0,-1
     f1c:	ac627430 	sw	v0,29744(v1)
     f20:	03e00008 	jr	ra
     f24:	00000000 	nop

00000f28 <insert_task_loc>:
     f28:	00044900 	sll	t1,a0,0x4
     f2c:	00041180 	sll	v0,a0,0x6
     f30:	00491023 	subu	v0,v0,t1
     f34:	00063a03 	sra	a3,a2,0x8
     f38:	000218c0 	sll	v1,v0,0x3
     f3c:	00621823 	subu	v1,v1,v0
     f40:	000740c0 	sll	t0,a3,0x3
     f44:	00073840 	sll	a3,a3,0x1
     f48:	00641821 	addu	v1,v1,a0
     f4c:	01074023 	subu	t0,t0,a3
     f50:	00051100 	sll	v0,a1,0x4
     f54:	000539c0 	sll	a3,a1,0x7
     f58:	00e23823 	subu	a3,a3,v0
     f5c:	00031880 	sll	v1,v1,0x2
     f60:	3c020005 	lui	v0,0x5
     f64:	00e33821 	addu	a3,a3,v1
     f68:	244206e8 	addiu	v0,v0,1768
     f6c:	30ca00ff 	andi	t2,a2,0xff
     f70:	00e23821 	addu	a3,a3,v0
     f74:	010a4021 	addu	t0,t0,t2
     f78:	3c020005 	lui	v0,0x5
     f7c:	00042080 	sll	a0,a0,0x2
     f80:	2442ede4 	addiu	v0,v0,-4636
     f84:	00084080 	sll	t0,t0,0x2
     f88:	01024021 	addu	t0,t0,v0
     f8c:	01244823 	subu	t1,t1,a0
     f90:	8d030000 	lw	v1,0(t0)
     f94:	8ce4001c 	lw	a0,28(a3)
     f98:	01254821 	addu	t1,t1,a1
     f9c:	3c020004 	lui	v0,0x4
     fa0:	00094880 	sll	t1,t1,0x2
     fa4:	24427434 	addiu	v0,v0,29748
     fa8:	01224821 	addu	t1,t1,v0
     fac:	00641821 	addu	v1,v1,a0
     fb0:	ad030000 	sw	v1,0(t0)
     fb4:	ad260000 	sw	a2,0(t1)
     fb8:	03e00008 	jr	ra
     fbc:	ace60018 	sw	a2,24(a3)

00000fc0 <search_physical_master_address>:
     fc0:	3c060004 	lui	a2,0x4
     fc4:	24c5764c 	addiu	a1,a2,30284
     fc8:	8ca20008 	lw	v0,8(a1)
     fcc:	00041a03 	sra	v1,a0,0x8
     fd0:	0062102a 	slt	v0,v1,v0
     fd4:	14400015 	bnez	v0,102c <search_physical_master_address+0x6c>
     fd8:	00000000 	nop
     fdc:	8ca20010 	lw	v0,16(a1)
     fe0:	00000000 	nop
     fe4:	0043102a 	slt	v0,v0,v1
     fe8:	14400010 	bnez	v0,102c <search_physical_master_address+0x6c>
     fec:	308400ff 	andi	a0,a0,0xff
     ff0:	8ca2000c 	lw	v0,12(a1)
     ff4:	00000000 	nop
     ff8:	0082102a 	slt	v0,a0,v0
     ffc:	1440000b 	bnez	v0,102c <search_physical_master_address+0x6c>
    1000:	00000000 	nop
    1004:	8ca20014 	lw	v0,20(a1)
    1008:	00000000 	nop
    100c:	0044102a 	slt	v0,v0,a0
    1010:	14400006 	bnez	v0,102c <search_physical_master_address+0x6c>
    1014:	00000000 	nop
    1018:	8cc2764c 	lw	v0,30284(a2)
    101c:	8ca30004 	lw	v1,4(a1)
    1020:	00021200 	sll	v0,v0,0x8
    1024:	03e00008 	jr	ra
    1028:	00431025 	or	v0,v0,v1
    102c:	03e00008 	jr	ra
    1030:	2402ffff 	li	v0,-1

00001034 <send_loan_proc_request>:
    1034:	27bdffe0 	addiu	sp,sp,-32
    1038:	afbf0018 	sw	ra,24(sp)
    103c:	afb10014 	sw	s1,20(sp)
    1040:	afb00010 	sw	s0,16(sp)
    1044:	00a08821 	move	s1,a1
    1048:	0c000115 	jal	454 <get_service_header_slot>
    104c:	00808021 	move	s0,a0
    1050:	3c030005 	lui	v1,0x5
    1054:	8c64edc4 	lw	a0,-4668(v1)
    1058:	24030190 	li	v1,400
    105c:	ac440020 	sw	a0,32(v0)
    1060:	ac500000 	sw	s0,0(v0)
    1064:	ac430008 	sw	v1,8(v0)
    1068:	ac51000c 	sw	s1,12(v0)
    106c:	8fbf0018 	lw	ra,24(sp)
    1070:	8fb10014 	lw	s1,20(sp)
    1074:	8fb00010 	lw	s0,16(sp)
    1078:	00402021 	move	a0,v0
    107c:	00002821 	move	a1,zero
    1080:	00003021 	move	a2,zero
    1084:	0800014f 	j	53c <send_packet>
    1088:	27bd0020 	addiu	sp,sp,32

0000108c <send_task_migration>:
    108c:	27bdffe0 	addiu	sp,sp,-32
    1090:	afb00010 	sw	s0,16(sp)
    1094:	00808021 	move	s0,a0
    1098:	afbf0018 	sw	ra,24(sp)
    109c:	afb10014 	sw	s1,20(sp)
    10a0:	0c000115 	jal	454 <get_service_header_slot>
    10a4:	00a08821 	move	s1,a1
    10a8:	00101a03 	sra	v1,s0,0x8
    10ac:	00032100 	sll	a0,v1,0x4
    10b0:	00031880 	sll	v1,v1,0x2
    10b4:	00832023 	subu	a0,a0,v1
    10b8:	320300ff 	andi	v1,s0,0xff
    10bc:	00832021 	addu	a0,a0,v1
    10c0:	3c030004 	lui	v1,0x4
    10c4:	24637434 	addiu	v1,v1,29748
    10c8:	00042080 	sll	a0,a0,0x2
    10cc:	00832021 	addu	a0,a0,v1
    10d0:	8c830000 	lw	v1,0(a0)
    10d4:	00002821 	move	a1,zero
    10d8:	ac430000 	sw	v1,0(v0)
    10dc:	24030210 	li	v1,528
    10e0:	ac50000c 	sw	s0,12(v0)
    10e4:	ac510020 	sw	s1,32(v0)
    10e8:	00402021 	move	a0,v0
    10ec:	ac430008 	sw	v1,8(v0)
    10f0:	0c00014f 	jal	53c <send_packet>
    10f4:	00003021 	move	a2,zero
    10f8:	02202021 	move	a0,s1
    10fc:	8fbf0018 	lw	ra,24(sp)
    1100:	8fb10014 	lw	s1,20(sp)
    1104:	8fb00010 	lw	s0,16(sp)
    1108:	080003a4 	j	e90 <page_used>
    110c:	27bd0020 	addiu	sp,sp,32

00001110 <send_energy_cluster>:
    1110:	27bdffe8 	addiu	sp,sp,-24
    1114:	afbf0014 	sw	ra,20(sp)
    1118:	0c000115 	jal	454 <get_service_header_slot>
    111c:	afb00010 	sw	s0,16(sp)
    1120:	3c030005 	lui	v1,0x5
    1124:	9064edcc 	lbu	a0,-4660(v1)
    1128:	3c100005 	lui	s0,0x5
    112c:	3c030005 	lui	v1,0x5
    1130:	8c66eddc 	lw	a2,-4644(v1)
    1134:	8e05edd4 	lw	a1,-4652(s0)
    1138:	24030250 	li	v1,592
    113c:	ac440000 	sw	a0,0(v0)
    1140:	ac450038 	sw	a1,56(v0)
    1144:	ac460034 	sw	a2,52(v0)
    1148:	ac430008 	sw	v1,8(v0)
    114c:	00402021 	move	a0,v0
    1150:	00002821 	move	a1,zero
    1154:	0c00014f 	jal	53c <send_packet>
    1158:	00003021 	move	a2,zero
    115c:	ae00edd4 	sw	zero,-4652(s0)
    1160:	8fbf0014 	lw	ra,20(sp)
    1164:	8fb00010 	lw	s0,16(sp)
    1168:	03e00008 	jr	ra
    116c:	27bd0018 	addiu	sp,sp,24

00001170 <fires_reclustering_protocol>:
    1170:	27bdffe8 	addiu	sp,sp,-24
    1174:	afb00010 	sw	s0,16(sp)
    1178:	afbf0014 	sw	ra,20(sp)
    117c:	3c020005 	lui	v0,0x5
    1180:	8c45eddc 	lw	a1,-4644(v0)
    1184:	3c0e0005 	lui	t6,0x5
    1188:	00051080 	sll	v0,a1,0x2
    118c:	00051940 	sll	v1,a1,0x5
    1190:	00621823 	subu	v1,v1,v0
    1194:	3c0200ff 	lui	v0,0xff
    1198:	25d0213c 	addiu	s0,t6,8508
    119c:	3442ffff 	ori	v0,v0,0xffff
    11a0:	ae02000c 	sw	v0,12(s0)
    11a4:	3c020005 	lui	v0,0x5
    11a8:	3c070004 	lui	a3,0x4
    11ac:	8c4bedd0 	lw	t3,-4656(v0)
    11b0:	3c020005 	lui	v0,0x5
    11b4:	24e6764c 	addiu	a2,a3,30284
    11b8:	2404ffff 	li	a0,-1
    11bc:	8c4aedc8 	lw	t2,-4664(v0)
    11c0:	3c020005 	lui	v0,0x5
    11c4:	ae040014 	sw	a0,20(s0)
    11c8:	ae000008 	sw	zero,8(s0)
    11cc:	ae040010 	sw	a0,16(s0)
    11d0:	00661821 	addu	v1,v1,a2
    11d4:	8c49ede0 	lw	t1,-4640(v0)
    11d8:	3c020005 	lui	v0,0x5
    11dc:	8ce4764c 	lw	a0,30284(a3)
    11e0:	8ccd0004 	lw	t5,4(a2)
    11e4:	8c48edd8 	lw	t0,-4648(v0)
    11e8:	8c6c0004 	lw	t4,4(v1)
    11ec:	8e070018 	lw	a3,24(s0)
    11f0:	8c660000 	lw	a2,0(v1)
    11f4:	10a00025 	beqz	a1,128c <fires_reclustering_protocol+0x11c>
    11f8:	01281823 	subu	v1,t1,t0
    11fc:	016a1023 	subu	v0,t3,t2
    1200:	00c43023 	subu	a2,a2,a0
    1204:	24490001 	addiu	t1,v0,1
    1208:	24630001 	addiu	v1,v1,1
    120c:	04c10002 	bgez	a2,1218 <fires_reclustering_protocol+0xa8>
    1210:	24e8ffff 	addiu	t0,a3,-1
    1214:	00063023 	negu	a2,a2
    1218:	018d2823 	subu	a1,t4,t5
    121c:	04a10002 	bgez	a1,1228 <fires_reclustering_protocol+0xb8>
    1220:	01280018 	mult	t1,t0
    1224:	00052823 	negu	a1,a1
    1228:	00001012 	mflo	v0
    122c:	0046102a 	slt	v0,v0,a2
    1230:	14400006 	bnez	v0,124c <fires_reclustering_protocol+0xdc>
    1234:	01270018 	mult	t1,a3
    1238:	00680018 	mult	v1,t0
    123c:	00001012 	mflo	v0
    1240:	0045102a 	slt	v0,v0,a1
    1244:	10400011 	beqz	v0,128c <fires_reclustering_protocol+0x11c>
    1248:	01270018 	mult	t1,a3
    124c:	00001012 	mflo	v0
    1250:	0046102a 	slt	v0,v0,a2
    1254:	1440000d 	bnez	v0,128c <fires_reclustering_protocol+0x11c>
    1258:	00670018 	mult	v1,a3
    125c:	00001012 	mflo	v0
    1260:	0045102a 	slt	v0,v0,a1
    1264:	14400009 	bnez	v0,128c <fires_reclustering_protocol+0x11c>
    1268:	00000000 	nop
    126c:	00042200 	sll	a0,a0,0x8
    1270:	8dc5213c 	lw	a1,8508(t6)
    1274:	0c00040d 	jal	1034 <send_loan_proc_request>
    1278:	008d2025 	or	a0,a0,t5
    127c:	8e020008 	lw	v0,8(s0)
    1280:	00000000 	nop
    1284:	24420001 	addiu	v0,v0,1
    1288:	ae020008 	sw	v0,8(s0)
    128c:	8fbf0014 	lw	ra,20(sp)
    1290:	8fb00010 	lw	s0,16(sp)
    1294:	03e00008 	jr	ra
    1298:	27bd0018 	addiu	sp,sp,24

0000129c <reclustering_task>:
    129c:	3c020005 	lui	v0,0x5
    12a0:	2443213c 	addiu	v1,v0,8508
    12a4:	ac44213c 	sw	a0,8508(v0)
    12a8:	24020001 	li	v0,1
    12ac:	ac650004 	sw	a1,4(v1)
    12b0:	ac620018 	sw	v0,24(v1)
    12b4:	0800045c 	j	1170 <fires_reclustering_protocol>
    12b8:	ac60001c 	sw	zero,28(v1)

000012bc <reserve_cluster_resources>:
    12bc:	00801021 	move	v0,a0
    12c0:	00021940 	sll	v1,v0,0x5
    12c4:	00021080 	sll	v0,v0,0x2
    12c8:	00621823 	subu	v1,v1,v0
    12cc:	3c020004 	lui	v0,0x4
    12d0:	27bdffe8 	addiu	sp,sp,-24
    12d4:	2442764c 	addiu	v0,v0,30284
    12d8:	afb00010 	sw	s0,16(sp)
    12dc:	afbf0014 	sw	ra,20(sp)
    12e0:	00628021 	addu	s0,v1,v0
    12e4:	8e020018 	lw	v0,24(s0)
    12e8:	3c040000 	lui	a0,0x0
    12ec:	00451823 	subu	v1,v0,a1
    12f0:	0045102a 	slt	v0,v0,a1
    12f4:	10400006 	beqz	v0,1310 <reserve_cluster_resources+0x54>
    12f8:	24846890 	addiu	a0,a0,26768
    12fc:	ae000018 	sw	zero,24(s0)
    1300:	8fbf0014 	lw	ra,20(sp)
    1304:	8fb00010 	lw	s0,16(sp)
    1308:	03e00008 	jr	ra
    130c:	27bd0018 	addiu	sp,sp,24
    1310:	0c000340 	jal	d00 <puts>
    1314:	ae030018 	sw	v1,24(s0)
    1318:	8e040018 	lw	a0,24(s0)
    131c:	0c00000b 	jal	2c <itoa>
    1320:	00000000 	nop
    1324:	0c000340 	jal	d00 <puts>
    1328:	00402021 	move	a0,v0
    132c:	3c040000 	lui	a0,0x0
    1330:	8fbf0014 	lw	ra,20(sp)
    1334:	8fb00010 	lw	s0,16(sp)
    1338:	2484696c 	addiu	a0,a0,26988
    133c:	08000340 	j	d00 <puts>
    1340:	27bd0018 	addiu	sp,sp,24

00001344 <decrement_cluster_resources>:
    1344:	27bdffe8 	addiu	sp,sp,-24
    1348:	308500ff 	andi	a1,a0,0xff
    134c:	00042203 	sra	a0,a0,0x8
    1350:	afbf0014 	sw	ra,20(sp)
    1354:	0c00036a 	jal	da8 <search_cluster_ID>
    1358:	afb00010 	sw	s0,16(sp)
    135c:	00028140 	sll	s0,v0,0x5
    1360:	00021080 	sll	v0,v0,0x2
    1364:	02028023 	subu	s0,s0,v0
    1368:	3c020004 	lui	v0,0x4
    136c:	2442764c 	addiu	v0,v0,30284
    1370:	02028021 	addu	s0,s0,v0
    1374:	8e020018 	lw	v0,24(s0)
    1378:	3c040000 	lui	a0,0x0
    137c:	2442ffff 	addiu	v0,v0,-1
    1380:	ae020018 	sw	v0,24(s0)
    1384:	0c000340 	jal	d00 <puts>
    1388:	248468a8 	addiu	a0,a0,26792
    138c:	8e040018 	lw	a0,24(s0)
    1390:	0c00000b 	jal	2c <itoa>
    1394:	00000000 	nop
    1398:	0c000340 	jal	d00 <puts>
    139c:	00402021 	move	a0,v0
    13a0:	3c040000 	lui	a0,0x0
    13a4:	8fbf0014 	lw	ra,20(sp)
    13a8:	8fb00010 	lw	s0,16(sp)
    13ac:	2484696c 	addiu	a0,a0,26988
    13b0:	08000340 	j	d00 <puts>
    13b4:	27bd0018 	addiu	sp,sp,24

000013b8 <send_task_allocation>:
    13b8:	27bdffe8 	addiu	sp,sp,-24
    13bc:	afb00010 	sw	s0,16(sp)
    13c0:	afbf0014 	sw	ra,20(sp)
    13c4:	0c000115 	jal	454 <get_service_header_slot>
    13c8:	00808021 	move	s0,a0
    13cc:	8e030008 	lw	v1,8(s0)
    13d0:	00402021 	move	a0,v0
    13d4:	ac430000 	sw	v1,0(v0)
    13d8:	24030040 	li	v1,64
    13dc:	ac430008 	sw	v1,8(v0)
    13e0:	8e030004 	lw	v1,4(s0)
    13e4:	3c051000 	lui	a1,0x1000
    13e8:	ac430010 	sw	v1,16(v0)
    13ec:	8e030000 	lw	v1,0(s0)
    13f0:	00000000 	nop
    13f4:	ac43000c 	sw	v1,12(v0)
    13f8:	8e060010 	lw	a2,16(s0)
    13fc:	00000000 	nop
    1400:	ac460028 	sw	a2,40(v0)
    1404:	8e030014 	lw	v1,20(s0)
    1408:	00000000 	nop
    140c:	ac430024 	sw	v1,36(v0)
    1410:	8e030018 	lw	v1,24(s0)
    1414:	00000000 	nop
    1418:	ac43002c 	sw	v1,44(v0)
    141c:	8e02000c 	lw	v0,12(s0)
    1420:	8fbf0014 	lw	ra,20(sp)
    1424:	8fb00010 	lw	s0,16(sp)
    1428:	00452825 	or	a1,v0,a1
    142c:	0800014f 	j	53c <send_packet>
    1430:	27bd0018 	addiu	sp,sp,24

00001434 <send_app_terminated>:
    1434:	27bdffe8 	addiu	sp,sp,-24
    1438:	afb00010 	sw	s0,16(sp)
    143c:	afbf0014 	sw	ra,20(sp)
    1440:	0c000115 	jal	454 <get_service_header_slot>
    1444:	00808021 	move	s0,a0
    1448:	00101900 	sll	v1,s0,0x4
    144c:	00103980 	sll	a3,s0,0x6
    1450:	00e33823 	subu	a3,a3,v1
    1454:	3c030005 	lui	v1,0x5
    1458:	9063edcc 	lbu	v1,-4660(v1)
    145c:	000720c0 	sll	a0,a3,0x3
    1460:	ac430000 	sw	v1,0(v0)
    1464:	00872023 	subu	a0,a0,a3
    1468:	24030140 	li	v1,320
    146c:	ac430008 	sw	v1,8(v0)
    1470:	00902021 	addu	a0,a0,s0
    1474:	3c030005 	lui	v1,0x5
    1478:	246306e8 	addiu	v1,v1,1768
    147c:	00042080 	sll	a0,a0,0x2
    1480:	00832021 	addu	a0,a0,v1
    1484:	ac50000c 	sw	s0,12(v0)
    1488:	3c030005 	lui	v1,0x5
    148c:	3c100005 	lui	s0,0x5
    1490:	8c860000 	lw	a2,0(a0)
    1494:	3c050004 	lui	a1,0x4
    1498:	8c64eddc 	lw	a0,-4644(v1)
    149c:	8e03edd4 	lw	v1,-4652(s0)
    14a0:	24a57524 	addiu	a1,a1,29988
    14a4:	ac440034 	sw	a0,52(v0)
    14a8:	ac430038 	sw	v1,56(v0)
    14ac:	00e52821 	addu	a1,a3,a1
    14b0:	ac460020 	sw	a2,32(v0)
    14b4:	0c00014f 	jal	53c <send_packet>
    14b8:	00402021 	move	a0,v0
    14bc:	ae00edd4 	sw	zero,-4652(s0)
    14c0:	8fbf0014 	lw	ra,20(sp)
    14c4:	8fb00010 	lw	s0,16(sp)
    14c8:	03e00008 	jr	ra
    14cc:	27bd0018 	addiu	sp,sp,24

000014d0 <send_task_allocated>:
    14d0:	27bdffe0 	addiu	sp,sp,-32
    14d4:	afb00010 	sw	s0,16(sp)
    14d8:	00808021 	move	s0,a0
    14dc:	afbf001c 	sw	ra,28(sp)
    14e0:	afb20018 	sw	s2,24(sp)
    14e4:	afb10014 	sw	s1,20(sp)
    14e8:	00c09021 	move	s2,a2
    14ec:	0c000115 	jal	454 <get_service_header_slot>
    14f0:	00a08821 	move	s1,a1
    14f4:	00101a03 	sra	v1,s0,0x8
    14f8:	00032100 	sll	a0,v1,0x4
    14fc:	00031880 	sll	v1,v1,0x2
    1500:	00832023 	subu	a0,a0,v1
    1504:	321000ff 	andi	s0,s0,0xff
    1508:	00902021 	addu	a0,a0,s0
    150c:	3c030004 	lui	v1,0x4
    1510:	24637434 	addiu	v1,v1,29748
    1514:	00042080 	sll	a0,a0,0x2
    1518:	00832021 	addu	a0,a0,v1
    151c:	8c830000 	lw	v1,0(a0)
    1520:	ac51000c 	sw	s1,12(v0)
    1524:	ac430000 	sw	v1,0(v0)
    1528:	24030050 	li	v1,80
    152c:	ac430008 	sw	v1,8(v0)
    1530:	ac520020 	sw	s2,32(v0)
    1534:	8fbf001c 	lw	ra,28(sp)
    1538:	8fb20018 	lw	s2,24(sp)
    153c:	8fb10014 	lw	s1,20(sp)
    1540:	8fb00010 	lw	s0,16(sp)
    1544:	00402021 	move	a0,v0
    1548:	00002821 	move	a1,zero
    154c:	00003021 	move	a2,zero
    1550:	0800014f 	j	53c <send_packet>
    1554:	27bd0020 	addiu	sp,sp,32

00001558 <send_new_task>:
    1558:	27bdffd8 	addiu	sp,sp,-40
    155c:	afbf0024 	sw	ra,36(sp)
    1560:	afb40020 	sw	s4,32(sp)
    1564:	afb3001c 	sw	s3,28(sp)
    1568:	00e0a021 	move	s4,a3
    156c:	afb20018 	sw	s2,24(sp)
    1570:	afb10014 	sw	s1,20(sp)
    1574:	00809021 	move	s2,a0
    1578:	00c08821 	move	s1,a2
    157c:	afb00010 	sw	s0,16(sp)
    1580:	0c000115 	jal	454 <get_service_header_slot>
    1584:	00a08021 	move	s0,a1
    1588:	3c030005 	lui	v1,0x5
    158c:	9064edcc 	lbu	a0,-4660(v1)
    1590:	3c030005 	lui	v1,0x5
    1594:	8c66eddc 	lw	a2,-4644(v1)
    1598:	3c130005 	lui	s3,0x5
    159c:	24030130 	li	v1,304
    15a0:	8e65edd4 	lw	a1,-4652(s3)
    15a4:	ac440000 	sw	a0,0(v0)
    15a8:	ac500010 	sw	s0,16(v0)
    15ac:	ac52000c 	sw	s2,12(v0)
    15b0:	ac510020 	sw	s1,32(v0)
    15b4:	ac430008 	sw	v1,8(v0)
    15b8:	8fa30038 	lw	v1,56(sp)
    15bc:	00402021 	move	a0,v0
    15c0:	ac430028 	sw	v1,40(v0)
    15c4:	8fa3003c 	lw	v1,60(sp)
    15c8:	00000000 	nop
    15cc:	ac430024 	sw	v1,36(v0)
    15d0:	8fa30040 	lw	v1,64(sp)
    15d4:	ac540030 	sw	s4,48(v0)
    15d8:	ac450038 	sw	a1,56(v0)
    15dc:	ac460034 	sw	a2,52(v0)
    15e0:	ac43002c 	sw	v1,44(v0)
    15e4:	00002821 	move	a1,zero
    15e8:	0c00014f 	jal	53c <send_packet>
    15ec:	00003021 	move	a2,zero
    15f0:	ae60edd4 	sw	zero,-4652(s3)
    15f4:	8fbf0024 	lw	ra,36(sp)
    15f8:	8fb40020 	lw	s4,32(sp)
    15fc:	8fb3001c 	lw	s3,28(sp)
    1600:	8fb20018 	lw	s2,24(sp)
    1604:	8fb10014 	lw	s1,20(sp)
    1608:	8fb00010 	lw	s0,16(sp)
    160c:	03e00008 	jr	ra
    1610:	27bd0028 	addiu	sp,sp,40

00001614 <send_loan_proc_delivery>:
    1614:	27bdffd8 	addiu	sp,sp,-40
    1618:	afbf0020 	sw	ra,32(sp)
    161c:	afb3001c 	sw	s3,28(sp)
    1620:	afb20018 	sw	s2,24(sp)
    1624:	00c09821 	move	s3,a2
    1628:	00a09021 	move	s2,a1
    162c:	afb10014 	sw	s1,20(sp)
    1630:	afb00010 	sw	s0,16(sp)
    1634:	00e08821 	move	s1,a3
    1638:	0c000115 	jal	454 <get_service_header_slot>
    163c:	00808021 	move	s0,a0
    1640:	24030200 	li	v1,512
    1644:	ac500000 	sw	s0,0(v0)
    1648:	ac430008 	sw	v1,8(v0)
    164c:	ac52000c 	sw	s2,12(v0)
    1650:	ac510010 	sw	s1,16(v0)
    1654:	ac530020 	sw	s3,32(v0)
    1658:	8fbf0020 	lw	ra,32(sp)
    165c:	8fb3001c 	lw	s3,28(sp)
    1660:	8fb20018 	lw	s2,24(sp)
    1664:	8fb10014 	lw	s1,20(sp)
    1668:	8fb00010 	lw	s0,16(sp)
    166c:	00402021 	move	a0,v0
    1670:	00002821 	move	a1,zero
    1674:	00003021 	move	a2,zero
    1678:	0800014f 	j	53c <send_packet>
    167c:	27bd0028 	addiu	sp,sp,40

00001680 <send_loan_proc_release>:
    1680:	27bdffe0 	addiu	sp,sp,-32
    1684:	afbf0018 	sw	ra,24(sp)
    1688:	afb10014 	sw	s1,20(sp)
    168c:	afb00010 	sw	s0,16(sp)
    1690:	00a08821 	move	s1,a1
    1694:	0c000115 	jal	454 <get_service_header_slot>
    1698:	00808021 	move	s0,a0
    169c:	24030090 	li	v1,144
    16a0:	ac500000 	sw	s0,0(v0)
    16a4:	ac430008 	sw	v1,8(v0)
    16a8:	ac510020 	sw	s1,32(v0)
    16ac:	8fbf0018 	lw	ra,24(sp)
    16b0:	8fb10014 	lw	s1,20(sp)
    16b4:	8fb00010 	lw	s0,16(sp)
    16b8:	00402021 	move	a0,v0
    16bc:	00002821 	move	a1,zero
    16c0:	00003021 	move	a2,zero
    16c4:	0800014f 	j	53c <send_packet>
    16c8:	27bd0020 	addiu	sp,sp,32

000016cc <handle_new_task>:
    16cc:	27bdffe8 	addiu	sp,sp,-24
    16d0:	afbf0014 	sw	ra,20(sp)
    16d4:	afb00010 	sw	s0,16(sp)
    16d8:	0c0004ee 	jal	13b8 <send_task_allocation>
    16dc:	00808021 	move	s0,a0
    16e0:	2402ffff 	li	v0,-1
    16e4:	ae020000 	sw	v0,0(s0)
    16e8:	8fbf0014 	lw	ra,20(sp)
    16ec:	8fb00010 	lw	s0,16(sp)
    16f0:	03e00008 	jr	ra
    16f4:	27bd0018 	addiu	sp,sp,24

000016f8 <initialize_clusters>:
    16f8:	27bdffe0 	addiu	sp,sp,-32
    16fc:	afb10014 	sw	s1,20(sp)
    1700:	afb00010 	sw	s0,16(sp)
    1704:	afbf0018 	sw	ra,24(sp)
    1708:	3c020004 	lui	v0,0x4
    170c:	2447764c 	addiu	a3,v0,30284
    1710:	8c42764c 	lw	v0,30284(v0)
    1714:	8ce40004 	lw	a0,4(a3)
    1718:	3c110005 	lui	s1,0x5
    171c:	00021200 	sll	v0,v0,0x8
    1720:	9223edcc 	lbu	v1,-4660(s1)
    1724:	00448025 	or	s0,v0,a0
    1728:	12030011 	beq	s0,v1,1770 <initialize_clusters+0x78>
    172c:	3c020005 	lui	v0,0x5
    1730:	0c000115 	jal	454 <get_service_header_slot>
    1734:	00000000 	nop
    1738:	9224edcc 	lbu	a0,-4660(s1)
    173c:	24030160 	li	v1,352
    1740:	ac440014 	sw	a0,20(v0)
    1744:	ac500000 	sw	s0,0(v0)
    1748:	ac430008 	sw	v1,8(v0)
    174c:	ac400034 	sw	zero,52(v0)
    1750:	8fbf0018 	lw	ra,24(sp)
    1754:	8fb10014 	lw	s1,20(sp)
    1758:	8fb00010 	lw	s0,16(sp)
    175c:	00402021 	move	a0,v0
    1760:	00002821 	move	a1,zero
    1764:	00003021 	move	a2,zero
    1768:	0800014f 	j	53c <send_packet>
    176c:	27bd0020 	addiu	sp,sp,32
    1770:	8c44edc4 	lw	a0,-4668(v0)
    1774:	8ce50008 	lw	a1,8(a3)
    1778:	00041202 	srl	v0,a0,0x8
    177c:	000218c0 	sll	v1,v0,0x3
    1780:	00021040 	sll	v0,v0,0x1
    1784:	00621823 	subu	v1,v1,v0
    1788:	3c020004 	lui	v0,0x4
    178c:	24427614 	addiu	v0,v0,30228
    1790:	8ce6000c 	lw	a2,12(a3)
    1794:	00621821 	addu	v1,v1,v0
    1798:	3c020005 	lui	v0,0x5
    179c:	8ce80014 	lw	t0,20(a3)
    17a0:	8ce70010 	lw	a3,16(a3)
    17a4:	ac45edc8 	sw	a1,-4664(v0)
    17a8:	3c020005 	lui	v0,0x5
    17ac:	ac46edd8 	sw	a2,-4648(v0)
    17b0:	3c020005 	lui	v0,0x5
    17b4:	ac47edd0 	sw	a3,-4656(v0)
    17b8:	308400ff 	andi	a0,a0,0xff
    17bc:	3c020005 	lui	v0,0x5
    17c0:	ac48ede0 	sw	t0,-4640(v0)
    17c4:	00641821 	addu	v1,v1,a0
    17c8:	3c020005 	lui	v0,0x5
    17cc:	ac40eddc 	sw	zero,-4644(v0)
    17d0:	a0600000 	sb	zero,0(v1)
    17d4:	8fbf0018 	lw	ra,24(sp)
    17d8:	8fb10014 	lw	s1,20(sp)
    17dc:	8fb00010 	lw	s0,16(sp)
    17e0:	03e00008 	jr	ra
    17e4:	27bd0020 	addiu	sp,sp,32

000017e8 <initialize_slaves>:
    17e8:	27bdffd8 	addiu	sp,sp,-40
    17ec:	afb3001c 	sw	s3,28(sp)
    17f0:	afbf0020 	sw	ra,32(sp)
    17f4:	afb20018 	sw	s2,24(sp)
    17f8:	afb10014 	sw	s1,20(sp)
    17fc:	afb00010 	sw	s0,16(sp)
    1800:	3c020005 	lui	v0,0x5
    1804:	8c52edc8 	lw	s2,-4664(v0)
    1808:	0800061f 	j	187c <initialize_slaves+0x94>
    180c:	00129a00 	sll	s3,s2,0x8
    1810:	3c020005 	lui	v0,0x5
    1814:	8c51edd8 	lw	s1,-4648(v0)
    1818:	08000617 	j	185c <initialize_slaves+0x74>
    181c:	02718021 	addu	s0,s3,s1
    1820:	3c020005 	lui	v0,0x5
    1824:	8c42edc4 	lw	v0,-4668(v0)
    1828:	00000000 	nop
    182c:	1202000a 	beq	s0,v0,1858 <initialize_slaves+0x70>
    1830:	00000000 	nop
    1834:	0c000115 	jal	454 <get_service_header_slot>
    1838:	00000000 	nop
    183c:	24030170 	li	v1,368
    1840:	ac430008 	sw	v1,8(v0)
    1844:	ac500000 	sw	s0,0(v0)
    1848:	00402021 	move	a0,v0
    184c:	00002821 	move	a1,zero
    1850:	0c00014f 	jal	53c <send_packet>
    1854:	00003021 	move	a2,zero
    1858:	26100001 	addiu	s0,s0,1
    185c:	3c020005 	lui	v0,0x5
    1860:	8c42ede0 	lw	v0,-4640(v0)
    1864:	00000000 	nop
    1868:	0051102a 	slt	v0,v0,s1
    186c:	1040ffec 	beqz	v0,1820 <initialize_slaves+0x38>
    1870:	26310001 	addiu	s1,s1,1
    1874:	26520001 	addiu	s2,s2,1
    1878:	26730100 	addiu	s3,s3,256
    187c:	3c020005 	lui	v0,0x5
    1880:	8c42edd0 	lw	v0,-4656(v0)
    1884:	00000000 	nop
    1888:	0052102a 	slt	v0,v0,s2
    188c:	1040ffe0 	beqz	v0,1810 <initialize_slaves+0x28>
    1890:	00000000 	nop
    1894:	8fbf0020 	lw	ra,32(sp)
    1898:	8fb3001c 	lw	s3,28(sp)
    189c:	8fb20018 	lw	s2,24(sp)
    18a0:	8fb10014 	lw	s1,20(sp)
    18a4:	8fb00010 	lw	s0,16(sp)
    18a8:	03e00008 	jr	ra
    18ac:	27bd0028 	addiu	sp,sp,40

000018b0 <test_slow_proc>:
    18b0:	27bdfea0 	addiu	sp,sp,-352
    18b4:	afb70154 	sw	s7,340(sp)
    18b8:	afbf015c 	sw	ra,348(sp)
    18bc:	afbe0158 	sw	s8,344(sp)
    18c0:	afb60150 	sw	s6,336(sp)
    18c4:	afb5014c 	sw	s5,332(sp)
    18c8:	afb40148 	sw	s4,328(sp)
    18cc:	afb30144 	sw	s3,324(sp)
    18d0:	afb20140 	sw	s2,320(sp)
    18d4:	afb1013c 	sw	s1,316(sp)
    18d8:	afb00138 	sw	s0,312(sp)
    18dc:	3c020005 	lui	v0,0x5
    18e0:	8c56edc8 	lw	s6,-4664(v0)
    18e4:	afa00130 	sw	zero,304(sp)
    18e8:	08000671 	j	19c4 <test_slow_proc+0x114>
    18ec:	0016ba00 	sll	s7,s6,0x8
    18f0:	8c53edd8 	lw	s3,-4648(v0)
    18f4:	00000000 	nop
    18f8:	00131040 	sll	v0,s3,0x1
    18fc:	001318c0 	sll	v1,s3,0x3
    1900:	00621823 	subu	v1,v1,v0
    1904:	8fa20130 	lw	v0,304(sp)
    1908:	00761821 	addu	v1,v1,s6
    190c:	000220c0 	sll	a0,v0,0x3
    1910:	27a20010 	addiu	v0,sp,16
    1914:	00448821 	addu	s1,v0,a0
    1918:	3c020005 	lui	v0,0x5
    191c:	00031880 	sll	v1,v1,0x2
    1920:	2442ed1c 	addiu	v0,v0,-4836
    1924:	0062a821 	addu	s5,v1,v0
    1928:	02f3a021 	addu	s4,s7,s3
    192c:	08000662 	j	1988 <test_slow_proc+0xd8>
    1930:	02609021 	move	s2,s3
    1934:	8eb0ffe8 	lw	s0,-24(s5)
    1938:	ae34fff8 	sw	s4,-8(s1)
    193c:	0c000340 	jal	d00 <puts>
    1940:	ae30fffc 	sw	s0,-4(s1)
    1944:	8e24fff8 	lw	a0,-8(s1)
    1948:	0c00000b 	jal	2c <itoa>
    194c:	26520001 	addiu	s2,s2,1
    1950:	0c000340 	jal	d00 <puts>
    1954:	00402021 	move	a0,v0
    1958:	0c000340 	jal	d00 <puts>
    195c:	27c4696c 	addiu	a0,s8,26988
    1960:	3c040000 	lui	a0,0x0
    1964:	0c000340 	jal	d00 <puts>
    1968:	248468dc 	addiu	a0,a0,26844
    196c:	0c00000b 	jal	2c <itoa>
    1970:	02002021 	move	a0,s0
    1974:	0c000340 	jal	d00 <puts>
    1978:	00402021 	move	a0,v0
    197c:	0c000340 	jal	d00 <puts>
    1980:	27c4696c 	addiu	a0,s8,26988
    1984:	26940001 	addiu	s4,s4,1
    1988:	3c020005 	lui	v0,0x5
    198c:	8c42ede0 	lw	v0,-4640(v0)
    1990:	3c040000 	lui	a0,0x0
    1994:	0052102a 	slt	v0,v0,s2
    1998:	248468c0 	addiu	a0,a0,26816
    199c:	3c1e0000 	lui	s8,0x0
    19a0:	26310008 	addiu	s1,s1,8
    19a4:	1040ffe3 	beqz	v0,1934 <test_slow_proc+0x84>
    19a8:	26b50018 	addiu	s5,s5,24
    19ac:	8fa30130 	lw	v1,304(sp)
    19b0:	26d60001 	addiu	s6,s6,1
    19b4:	00731023 	subu	v0,v1,s3
    19b8:	00521021 	addu	v0,v0,s2
    19bc:	afa20130 	sw	v0,304(sp)
    19c0:	26f70100 	addiu	s7,s7,256
    19c4:	3c020005 	lui	v0,0x5
    19c8:	8c42edd0 	lw	v0,-4656(v0)
    19cc:	00000000 	nop
    19d0:	0056102a 	slt	v0,v0,s6
    19d4:	1040ffc6 	beqz	v0,18f0 <test_slow_proc+0x40>
    19d8:	3c020005 	lui	v0,0x5
    19dc:	00001821 	move	v1,zero
    19e0:	27b60014 	addiu	s6,sp,20
    19e4:	24730001 	addiu	s3,v1,1
    19e8:	001310c0 	sll	v0,s3,0x3
    19ec:	03a21021 	addu	v0,sp,v0
    19f0:	24520014 	addiu	s2,v0,20
    19f4:	080006c4 	j	1b10 <test_slow_proc+0x260>
    19f8:	0260a021 	move	s4,s3
    19fc:	8fa30130 	lw	v1,304(sp)
    1a00:	00000000 	nop
    1a04:	000310c0 	sll	v0,v1,0x3
    1a08:	03a21021 	addu	v0,sp,v0
    1a0c:	8c430010 	lw	v1,16(v0)
    1a10:	3c020005 	lui	v0,0x5
    1a14:	8c42edc4 	lw	v0,-4668(v0)
    1a18:	00000000 	nop
    1a1c:	1062003a 	beq	v1,v0,1b08 <test_slow_proc+0x258>
    1a20:	00000000 	nop
    1a24:	8ec30000 	lw	v1,0(s6)
    1a28:	8e420000 	lw	v0,0(s2)
    1a2c:	00000000 	nop
    1a30:	00628023 	subu	s0,v1,v0
    1a34:	06010002 	bgez	s0,1a40 <test_slow_proc+0x190>
    1a38:	02001821 	move	v1,s0
    1a3c:	00101823 	negu	v1,s0
    1a40:	3c020098 	lui	v0,0x98
    1a44:	34429680 	ori	v0,v0,0x9680
    1a48:	0062102a 	slt	v0,v1,v0
    1a4c:	1440002e 	bnez	v0,1b08 <test_slow_proc+0x258>
    1a50:	00000000 	nop
    1a54:	0c000115 	jal	454 <get_service_header_slot>
    1a58:	00000000 	nop
    1a5c:	00408821 	move	s1,v0
    1a60:	24020260 	li	v0,608
    1a64:	06010015 	bgez	s0,1abc <test_slow_proc+0x20c>
    1a68:	ae220008 	sw	v0,8(s1)
    1a6c:	8e50fffc 	lw	s0,-4(s2)
    1a70:	2415ffff 	li	s5,-1
    1a74:	12150024 	beq	s0,s5,1b08 <test_slow_proc+0x258>
    1a78:	ae300000 	sw	s0,0(s1)
    1a7c:	3c040000 	lui	a0,0x0
    1a80:	0c000340 	jal	d00 <puts>
    1a84:	248468f8 	addiu	a0,a0,26872
    1a88:	0c00000b 	jal	2c <itoa>
    1a8c:	02002021 	move	a0,s0
    1a90:	0c000340 	jal	d00 <puts>
    1a94:	00402021 	move	a0,v0
    1a98:	3c040000 	lui	a0,0x0
    1a9c:	0c000340 	jal	d00 <puts>
    1aa0:	2484696c 	addiu	a0,a0,26988
    1aa4:	02202021 	move	a0,s1
    1aa8:	00002821 	move	a1,zero
    1aac:	0c00014f 	jal	53c <send_packet>
    1ab0:	00003021 	move	a2,zero
    1ab4:	080006c2 	j	1b08 <test_slow_proc+0x258>
    1ab8:	ae55fffc 	sw	s5,-4(s2)
    1abc:	8ed0fffc 	lw	s0,-4(s6)
    1ac0:	2415ffff 	li	s5,-1
    1ac4:	12150010 	beq	s0,s5,1b08 <test_slow_proc+0x258>
    1ac8:	ae300000 	sw	s0,0(s1)
    1acc:	3c040000 	lui	a0,0x0
    1ad0:	0c000340 	jal	d00 <puts>
    1ad4:	248468f8 	addiu	a0,a0,26872
    1ad8:	0c00000b 	jal	2c <itoa>
    1adc:	02002021 	move	a0,s0
    1ae0:	0c000340 	jal	d00 <puts>
    1ae4:	00402021 	move	a0,v0
    1ae8:	3c040000 	lui	a0,0x0
    1aec:	0c000340 	jal	d00 <puts>
    1af0:	2484696c 	addiu	a0,a0,26988
    1af4:	02202021 	move	a0,s1
    1af8:	00002821 	move	a1,zero
    1afc:	0c00014f 	jal	53c <send_packet>
    1b00:	00003021 	move	a2,zero
    1b04:	aed5fffc 	sw	s5,-4(s6)
    1b08:	26940001 	addiu	s4,s4,1
    1b0c:	26520008 	addiu	s2,s2,8
    1b10:	2a820024 	slti	v0,s4,36
    1b14:	1440ffb9 	bnez	v0,19fc <test_slow_proc+0x14c>
    1b18:	24020024 	li	v0,36
    1b1c:	26d60008 	addiu	s6,s6,8
    1b20:	1662ffb0 	bne	s3,v0,19e4 <test_slow_proc+0x134>
    1b24:	02601821 	move	v1,s3
    1b28:	8fbf015c 	lw	ra,348(sp)
    1b2c:	8fbe0158 	lw	s8,344(sp)
    1b30:	8fb70154 	lw	s7,340(sp)
    1b34:	8fb60150 	lw	s6,336(sp)
    1b38:	8fb5014c 	lw	s5,332(sp)
    1b3c:	8fb40148 	lw	s4,328(sp)
    1b40:	8fb30144 	lw	s3,324(sp)
    1b44:	8fb20140 	lw	s2,320(sp)
    1b48:	8fb1013c 	lw	s1,316(sp)
    1b4c:	8fb00138 	lw	s0,312(sp)
    1b50:	03e00008 	jr	ra
    1b54:	27bd0160 	addiu	sp,sp,352

00001b58 <update_clusters_load>:
    1b58:	00051900 	sll	v1,a1,0x4
    1b5c:	00051180 	sll	v0,a1,0x6
    1b60:	00431023 	subu	v0,v0,v1
    1b64:	000218c0 	sll	v1,v0,0x3
    1b68:	00621823 	subu	v1,v1,v0
    1b6c:	00073880 	sll	a3,a3,0x2
    1b70:	27bdffe0 	addiu	sp,sp,-32
    1b74:	00651821 	addu	v1,v1,a1
    1b78:	00a05821 	move	t3,a1
    1b7c:	24e7000e 	addiu	a3,a3,14
    1b80:	3c050005 	lui	a1,0x5
    1b84:	afbe001c 	sw	s8,28(sp)
    1b88:	afb00018 	sw	s0,24(sp)
    1b8c:	00031880 	sll	v1,v1,0x2
    1b90:	24a506e8 	addiu	a1,a1,1768
    1b94:	000738c2 	srl	a3,a3,0x3
    1b98:	3c020005 	lui	v0,0x5
    1b9c:	00654021 	addu	t0,v1,a1
    1ba0:	8cc90000 	lw	t1,0(a2)
    1ba4:	000738c0 	sll	a3,a3,0x3
    1ba8:	00042080 	sll	a0,a0,0x2
    1bac:	2442ee74 	addiu	v0,v0,-4492
    1bb0:	03a0f021 	move	s8,sp
    1bb4:	03a07821 	move	t7,sp
    1bb8:	00826821 	addu	t5,a0,v0
    1bbc:	24c60094 	addiu	a2,a2,148
    1bc0:	0060c021 	move	t8,v1
    1bc4:	00a08021 	move	s0,a1
    1bc8:	01007021 	move	t6,t0
    1bcc:	03a7e823 	subu	sp,sp,a3
    1bd0:	00005021 	move	t2,zero
    1bd4:	2419ffff 	li	t9,-1
    1bd8:	08000728 	j	1ca0 <update_clusters_load+0x148>
    1bdc:	ad090000 	sw	t1,0(t0)
    1be0:	8cc2ff98 	lw	v0,-104(a2)
    1be4:	8cc5ff9c 	lw	a1,-100(a2)
    1be8:	afc20000 	sw	v0,0(s8)
    1bec:	8fc20000 	lw	v0,0(s8)
    1bf0:	8da40000 	lw	a0,0(t5)
    1bf4:	304200ff 	andi	v0,v0,0xff
    1bf8:	afc20000 	sw	v0,0(s8)
    1bfc:	8fc30000 	lw	v1,0(s8)
    1c00:	24c8ffb0 	addiu	t0,a2,-80
    1c04:	000311c0 	sll	v0,v1,0x7
    1c08:	00031900 	sll	v1,v1,0x4
    1c0c:	00431023 	subu	v0,v0,v1
    1c10:	00581021 	addu	v0,v0,t8
    1c14:	00501021 	addu	v0,v0,s0
    1c18:	24470004 	addiu	a3,v0,4
    1c1c:	ace50004 	sw	a1,4(a3)
    1c20:	8cc2ffa0 	lw	v0,-96(a2)
    1c24:	00e02821 	move	a1,a3
    1c28:	ace20008 	sw	v0,8(a3)
    1c2c:	8cc2ffa4 	lw	v0,-92(a2)
    1c30:	000b4a00 	sll	t1,t3,0x8
    1c34:	ace2000c 	sw	v0,12(a3)
    1c38:	8cc2ffa8 	lw	v0,-88(a2)
    1c3c:	acf90014 	sw	t9,20(a3)
    1c40:	ace20010 	sw	v0,16(a3)
    1c44:	ace0001c 	sw	zero,28(a3)
    1c48:	8cc2ffac 	lw	v0,-84(a2)
    1c4c:	240cffff 	li	t4,-1
    1c50:	00822021 	addu	a0,a0,v0
    1c54:	ada40000 	sw	a0,0(t5)
    1c58:	ace20018 	sw	v0,24(a3)
    1c5c:	8d020000 	lw	v0,0(t0)
    1c60:	00000000 	nop
    1c64:	01221025 	or	v0,t1,v0
    1c68:	aca20020 	sw	v0,32(a1)
    1c6c:	8d030004 	lw	v1,4(t0)
    1c70:	25080008 	addiu	t0,t0,8
    1c74:	aca30024 	sw	v1,36(a1)
    1c78:	104c0005 	beq	v0,t4,1c90 <update_clusters_load+0x138>
    1c7c:	24a50008 	addiu	a1,a1,8
    1c80:	8ce2001c 	lw	v0,28(a3)
    1c84:	00000000 	nop
    1c88:	24420001 	addiu	v0,v0,1
    1c8c:	ace2001c 	sw	v0,28(a3)
    1c90:	1506fff2 	bne	t0,a2,1c5c <update_clusters_load+0x104>
    1c94:	00000000 	nop
    1c98:	254a0001 	addiu	t2,t2,1
    1c9c:	24c60068 	addiu	a2,a2,104
    1ca0:	8dc20000 	lw	v0,0(t6)
    1ca4:	00000000 	nop
    1ca8:	0142102a 	slt	v0,t2,v0
    1cac:	1440ffcc 	bnez	v0,1be0 <update_clusters_load+0x88>
    1cb0:	00000000 	nop
    1cb4:	01e0e821 	move	sp,t7
    1cb8:	03c0e821 	move	sp,s8
    1cbc:	8fbe001c 	lw	s8,28(sp)
    1cc0:	8fb00018 	lw	s0,24(sp)
    1cc4:	03e00008 	jr	ra
    1cc8:	27bd0020 	addiu	sp,sp,32

00001ccc <MapTask>:
    1ccc:	00041900 	sll	v1,a0,0x4
    1cd0:	00041180 	sll	v0,a0,0x6
    1cd4:	00431023 	subu	v0,v0,v1
    1cd8:	000218c0 	sll	v1,v0,0x3
    1cdc:	00621823 	subu	v1,v1,v0
    1ce0:	00641821 	addu	v1,v1,a0
    1ce4:	000521c0 	sll	a0,a1,0x7
    1ce8:	00052900 	sll	a1,a1,0x4
    1cec:	00852023 	subu	a0,a0,a1
    1cf0:	00033080 	sll	a2,v1,0x2
    1cf4:	3c020005 	lui	v0,0x5
    1cf8:	27bdffb0 	addiu	sp,sp,-80
    1cfc:	244506e8 	addiu	a1,v0,1768
    1d00:	00862021 	addu	a0,a0,a2
    1d04:	afbe0048 	sw	s8,72(sp)
    1d08:	afb70044 	sw	s7,68(sp)
    1d0c:	afb60040 	sw	s6,64(sp)
    1d10:	afb5003c 	sw	s5,60(sp)
    1d14:	afb40038 	sw	s4,56(sp)
    1d18:	afb30034 	sw	s3,52(sp)
    1d1c:	afb20030 	sw	s2,48(sp)
    1d20:	afb1002c 	sw	s1,44(sp)
    1d24:	afb00028 	sw	s0,40(sp)
    1d28:	00851021 	addu	v0,a0,a1
    1d2c:	8c4a0020 	lw	t2,32(v0)
    1d30:	3c020004 	lui	v0,0x4
    1d34:	000a18c0 	sll	v1,t2,0x3
    1d38:	03a0f021 	move	s8,sp
    1d3c:	24630008 	addiu	v1,v1,8
    1d40:	8c427430 	lw	v0,29744(v0)
    1d44:	afdd0004 	sw	sp,4(s8)
    1d48:	03a3e823 	subu	sp,sp,v1
    1d4c:	14400003 	bnez	v0,1d5c <MapTask+0x90>
    1d50:	03a03821 	move	a3,sp
    1d54:	080008a0 	j	2280 <MapTask+0x5b4>
    1d58:	2412ffff 	li	s2,-1
    1d5c:	00851021 	addu	v0,a0,a1
    1d60:	00a06821 	move	t5,a1
    1d64:	00c05821 	move	t3,a2
    1d68:	24440028 	addiu	a0,v0,40
    1d6c:	00004821 	move	t1,zero
    1d70:	00007021 	move	t6,zero
    1d74:	240cffff 	li	t4,-1
    1d78:	03a03021 	move	a2,sp
    1d7c:	08000771 	j	1dc4 <MapTask+0xf8>
    1d80:	03a02821 	move	a1,sp
    1d84:	acc00000 	sw	zero,0(a2)
    1d88:	9083ffff 	lbu	v1,-1(a0)
    1d8c:	8c880000 	lw	t0,0(a0)
    1d90:	000311c0 	sll	v0,v1,0x7
    1d94:	00031900 	sll	v1,v1,0x4
    1d98:	00431023 	subu	v0,v0,v1
    1d9c:	004b1021 	addu	v0,v0,t3
    1da0:	004d1021 	addu	v0,v0,t5
    1da4:	8c420018 	lw	v0,24(v0)
    1da8:	24c60008 	addiu	a2,a2,8
    1dac:	104c0005 	beq	v0,t4,1dc4 <MapTask+0xf8>
    1db0:	24840008 	addiu	a0,a0,8
    1db4:	aca20000 	sw	v0,0(a1)
    1db8:	aca80004 	sw	t0,4(a1)
    1dbc:	25ce0001 	addiu	t6,t6,1
    1dc0:	24a50008 	addiu	a1,a1,8
    1dc4:	012a102a 	slt	v0,t1,t2
    1dc8:	1440ffee 	bnez	v0,1d84 <MapTask+0xb8>
    1dcc:	25290001 	addiu	t1,t1,1
    1dd0:	24020001 	li	v0,1
    1dd4:	8ce30000 	lw	v1,0(a3)
    1dd8:	15c20073 	bne	t6,v0,1fa8 <MapTask+0x2dc>
    1ddc:	00e04021 	move	t0,a3
    1de0:	3c020005 	lui	v0,0x5
    1de4:	8c4eedc8 	lw	t6,-4664(v0)
    1de8:	00031203 	sra	v0,v1,0x8
    1dec:	2445ffff 	addiu	a1,v0,-1
    1df0:	306300ff 	andi	v1,v1,0xff
    1df4:	01c5202a 	slt	a0,t6,a1
    1df8:	24670001 	addiu	a3,v1,1
    1dfc:	24460001 	addiu	a2,v0,1
    1e00:	2463ffff 	addiu	v1,v1,-1
    1e04:	10800002 	beqz	a0,1e10 <MapTask+0x144>
    1e08:	01c0c021 	move	t8,t6
    1e0c:	00a07021 	move	t6,a1
    1e10:	3c020005 	lui	v0,0x5
    1e14:	8c48edd8 	lw	t0,-4648(v0)
    1e18:	00000000 	nop
    1e1c:	0103102a 	slt	v0,t0,v1
    1e20:	10400002 	beqz	v0,1e2c <MapTask+0x160>
    1e24:	0100a021 	move	s4,t0
    1e28:	00604021 	move	t0,v1
    1e2c:	3c020005 	lui	v0,0x5
    1e30:	8c4cedd0 	lw	t4,-4656(v0)
    1e34:	00000000 	nop
    1e38:	00cc102a 	slt	v0,a2,t4
    1e3c:	10400002 	beqz	v0,1e48 <MapTask+0x17c>
    1e40:	01809821 	move	s3,t4
    1e44:	00c06021 	move	t4,a2
    1e48:	3c020005 	lui	v0,0x5
    1e4c:	8c4bede0 	lw	t3,-4640(v0)
    1e50:	00000000 	nop
    1e54:	00eb102a 	slt	v0,a3,t3
    1e58:	10400002 	beqz	v0,1e64 <MapTask+0x198>
    1e5c:	01608821 	move	s1,t3
    1e60:	00e05821 	move	t3,a3
    1e64:	3c020005 	lui	v0,0x5
    1e68:	2457ede4 	addiu	s7,v0,-4636
    1e6c:	2412ffff 	li	s2,-1
    1e70:	24100001 	li	s0,1
    1e74:	00007821 	move	t7,zero
    1e78:	24150001 	li	s5,1
    1e7c:	24160001 	li	s6,1
    1e80:	2419ffff 	li	t9,-1
    1e84:	000e1200 	sll	v0,t6,0x8
    1e88:	00486821 	addu	t5,v0,t0
    1e8c:	080007bd 	j	1ef4 <MapTask+0x228>
    1e90:	01c04821 	move	t1,t6
    1e94:	80620000 	lb	v0,0(v1)
    1e98:	00000000 	nop
    1e9c:	1840000d 	blez	v0,1ed4 <MapTask+0x208>
    1ea0:	24630001 	addiu	v1,v1,1
    1ea4:	8d440000 	lw	a0,0(t2)
    1ea8:	00000000 	nop
    1eac:	008f102b 	sltu	v0,a0,t7
    1eb0:	10400003 	beqz	v0,1ec0 <MapTask+0x1f4>
    1eb4:	00000000 	nop
    1eb8:	00a09021 	move	s2,a1
    1ebc:	00807821 	move	t7,a0
    1ec0:	16b60004 	bne	s5,s6,1ed4 <MapTask+0x208>
    1ec4:	00000000 	nop
    1ec8:	00807821 	move	t7,a0
    1ecc:	0000a821 	move	s5,zero
    1ed0:	00c09021 	move	s2,a2
    1ed4:	24c60001 	addiu	a2,a2,1
    1ed8:	24a50001 	addiu	a1,a1,1
    1edc:	254a0004 	addiu	t2,t2,4
    1ee0:	0167102a 	slt	v0,t3,a3
    1ee4:	1040ffeb 	beqz	v0,1e94 <MapTask+0x1c8>
    1ee8:	24e70001 	addiu	a3,a3,1
    1eec:	25290001 	addiu	t1,t1,1
    1ef0:	25ad0100 	addiu	t5,t5,256
    1ef4:	0189102a 	slt	v0,t4,t1
    1ef8:	1440000d 	bnez	v0,1f30 <MapTask+0x264>
    1efc:	00091040 	sll	v0,t1,0x1
    1f00:	000918c0 	sll	v1,t1,0x3
    1f04:	00621823 	subu	v1,v1,v0
    1f08:	01031821 	addu	v1,t0,v1
    1f0c:	00031080 	sll	v0,v1,0x2
    1f10:	00575021 	addu	t2,v0,s7
    1f14:	3c020004 	lui	v0,0x4
    1f18:	24427614 	addiu	v0,v0,30228
    1f1c:	00621821 	addu	v1,v1,v0
    1f20:	01003821 	move	a3,t0
    1f24:	01a03021 	move	a2,t5
    1f28:	080007b8 	j	1ee0 <MapTask+0x214>
    1f2c:	01a02821 	move	a1,t5
    1f30:	1659000f 	bne	s2,t9,1f70 <MapTask+0x2a4>
    1f34:	02781823 	subu	v1,s3,t8
    1f38:	030e102a 	slt	v0,t8,t6
    1f3c:	10400002 	beqz	v0,1f48 <MapTask+0x27c>
    1f40:	26100001 	addiu	s0,s0,1
    1f44:	25ceffff 	addiu	t6,t6,-1
    1f48:	0288102a 	slt	v0,s4,t0
    1f4c:	10400002 	beqz	v0,1f58 <MapTask+0x28c>
    1f50:	0193102a 	slt	v0,t4,s3
    1f54:	2508ffff 	addiu	t0,t0,-1
    1f58:	10400002 	beqz	v0,1f64 <MapTask+0x298>
    1f5c:	0171102a 	slt	v0,t3,s1
    1f60:	258c0001 	addiu	t4,t4,1
    1f64:	10400002 	beqz	v0,1f70 <MapTask+0x2a4>
    1f68:	02781823 	subu	v1,s3,t8
    1f6c:	256b0001 	addiu	t3,t3,1
    1f70:	04610002 	bgez	v1,1f7c <MapTask+0x2b0>
    1f74:	02341023 	subu	v0,s1,s4
    1f78:	00031823 	negu	v1,v1
    1f7c:	04410002 	bgez	v0,1f88 <MapTask+0x2bc>
    1f80:	00000000 	nop
    1f84:	00021023 	negu	v0,v0
    1f88:	00621021 	addu	v0,v1,v0
    1f8c:	0050102b 	sltu	v0,v0,s0
    1f90:	144000bb 	bnez	v0,2280 <MapTask+0x5b4>
    1f94:	00000000 	nop
    1f98:	1259ffbb 	beq	s2,t9,1e88 <MapTask+0x1bc>
    1f9c:	000e1200 	sll	v0,t6,0x8
    1fa0:	080008a0 	j	2280 <MapTask+0x5b4>
    1fa4:	00000000 	nop
    1fa8:	306900ff 	andi	t1,v1,0xff
    1fac:	00031a03 	sra	v1,v1,0x8
    1fb0:	00605021 	move	t2,v1
    1fb4:	01205821 	move	t3,t1
    1fb8:	08000803 	j	200c <MapTask+0x340>
    1fbc:	240c0001 	li	t4,1
    1fc0:	8d020000 	lw	v0,0(t0)
    1fc4:	00000000 	nop
    1fc8:	00022203 	sra	a0,v0,0x8
    1fcc:	304500ff 	andi	a1,v0,0xff
    1fd0:	0083102a 	slt	v0,a0,v1
    1fd4:	0165682a 	slt	t5,t3,a1
    1fd8:	0144302a 	slt	a2,t2,a0
    1fdc:	10400002 	beqz	v0,1fe8 <MapTask+0x31c>
    1fe0:	00a9382a 	slt	a3,a1,t1
    1fe4:	00801821 	move	v1,a0
    1fe8:	10c00002 	beqz	a2,1ff4 <MapTask+0x328>
    1fec:	00000000 	nop
    1ff0:	00805021 	move	t2,a0
    1ff4:	10e00002 	beqz	a3,2000 <MapTask+0x334>
    1ff8:	00000000 	nop
    1ffc:	00a04821 	move	t1,a1
    2000:	11a00003 	beqz	t5,2010 <MapTask+0x344>
    2004:	018e102a 	slt	v0,t4,t6
    2008:	00a05821 	move	t3,a1
    200c:	018e102a 	slt	v0,t4,t6
    2010:	25080008 	addiu	t0,t0,8
    2014:	1440ffea 	bnez	v0,1fc0 <MapTask+0x2f4>
    2018:	258c0001 	addiu	t4,t4,1
    201c:	3c020005 	lui	v0,0x5
    2020:	8c4cedc8 	lw	t4,-4664(v0)
    2024:	2463ffff 	addiu	v1,v1,-1
    2028:	0183102a 	slt	v0,t4,v1
    202c:	25450001 	addiu	a1,t2,1
    2030:	2524ffff 	addiu	a0,t1,-1
    2034:	25660001 	addiu	a2,t3,1
    2038:	10400002 	beqz	v0,2044 <MapTask+0x378>
    203c:	afcc000c 	sw	t4,12(s8)
    2040:	00606021 	move	t4,v1
    2044:	3c020005 	lui	v0,0x5
    2048:	8c47edd8 	lw	a3,-4648(v0)
    204c:	00000000 	nop
    2050:	00e4102a 	slt	v0,a3,a0
    2054:	10400002 	beqz	v0,2060 <MapTask+0x394>
    2058:	afc70008 	sw	a3,8(s8)
    205c:	00803821 	move	a3,a0
    2060:	3c020005 	lui	v0,0x5
    2064:	8c4bedd0 	lw	t3,-4656(v0)
    2068:	00000000 	nop
    206c:	00ab102a 	slt	v0,a1,t3
    2070:	10400002 	beqz	v0,207c <MapTask+0x3b0>
    2074:	0160b821 	move	s7,t3
    2078:	00a05821 	move	t3,a1
    207c:	3c020005 	lui	v0,0x5
    2080:	8c49ede0 	lw	t1,-4640(v0)
    2084:	00000000 	nop
    2088:	00c9102a 	slt	v0,a2,t1
    208c:	10400002 	beqz	v0,2098 <MapTask+0x3cc>
    2090:	afc90010 	sw	t1,16(s8)
    2094:	00c04821 	move	t1,a2
    2098:	24030001 	li	v1,1
    209c:	2412ffff 	li	s2,-1
    20a0:	2415ffff 	li	s5,-1
    20a4:	2411ffff 	li	s1,-1
    20a8:	2419ffff 	li	t9,-1
    20ac:	2413ffff 	li	s3,-1
    20b0:	00007821 	move	t7,zero
    20b4:	0000c021 	move	t8,zero
    20b8:	0000a021 	move	s4,zero
    20bc:	afc30000 	sw	v1,0(s8)
    20c0:	2410ffff 	li	s0,-1
    20c4:	000c1200 	sll	v0,t4,0x8
    20c8:	00477021 	addu	t6,v0,a3
    20cc:	08000861 	j	2184 <MapTask+0x4b8>
    20d0:	01802821 	move	a1,t4
    20d4:	1300000f 	beqz	t8,2114 <MapTask+0x448>
    20d8:	24040001 	li	a0,1
    20dc:	1704001f 	bne	t8,a0,215c <MapTask+0x490>
    20e0:	00000000 	nop
    20e4:	10b50003 	beq	a1,s5,20f4 <MapTask+0x428>
    20e8:	00000000 	nop
    20ec:	14b10003 	bne	a1,s1,20fc <MapTask+0x430>
    20f0:	00000000 	nop
    20f4:	14d00007 	bne	a2,s0,2114 <MapTask+0x448>
    20f8:	00000000 	nop
    20fc:	10b00017 	beq	a1,s0,215c <MapTask+0x490>
    2100:	00000000 	nop
    2104:	10d30003 	beq	a2,s3,2114 <MapTask+0x448>
    2108:	00000000 	nop
    210c:	14d90013 	bne	a2,t9,215c <MapTask+0x490>
    2110:	00000000 	nop
    2114:	80620000 	lb	v0,0(v1)
    2118:	00000000 	nop
    211c:	1840000f 	blez	v0,215c <MapTask+0x490>
    2120:	00000000 	nop
    2124:	8da40000 	lw	a0,0(t5)
    2128:	00000000 	nop
    212c:	0094102b 	sltu	v0,a0,s4
    2130:	10400003 	beqz	v0,2140 <MapTask+0x474>
    2134:	00000000 	nop
    2138:	01009021 	move	s2,t0
    213c:	0080a021 	move	s4,a0
    2140:	8fd60000 	lw	s6,0(s8)
    2144:	24020001 	li	v0,1
    2148:	16c20004 	bne	s6,v0,215c <MapTask+0x490>
    214c:	00000000 	nop
    2150:	0080a021 	move	s4,a0
    2154:	01409021 	move	s2,t2
    2158:	afc00000 	sw	zero,0(s8)
    215c:	24c60001 	addiu	a2,a2,1
    2160:	254a0001 	addiu	t2,t2,1
    2164:	24630001 	addiu	v1,v1,1
    2168:	25080001 	addiu	t0,t0,1
    216c:	25ad0004 	addiu	t5,t5,4
    2170:	0126102a 	slt	v0,t1,a2
    2174:	1040ffd7 	beqz	v0,20d4 <MapTask+0x408>
    2178:	00000000 	nop
    217c:	24a50001 	addiu	a1,a1,1
    2180:	25ce0100 	addiu	t6,t6,256
    2184:	0165102a 	slt	v0,t3,a1
    2188:	1440000f 	bnez	v0,21c8 <MapTask+0x4fc>
    218c:	00051040 	sll	v0,a1,0x1
    2190:	000518c0 	sll	v1,a1,0x3
    2194:	00621823 	subu	v1,v1,v0
    2198:	00e31821 	addu	v1,a3,v1
    219c:	3c040005 	lui	a0,0x5
    21a0:	3c160004 	lui	s6,0x4
    21a4:	00031080 	sll	v0,v1,0x2
    21a8:	2484ede4 	addiu	a0,a0,-4636
    21ac:	26d67614 	addiu	s6,s6,30228
    21b0:	00446821 	addu	t5,v0,a0
    21b4:	00761821 	addu	v1,v1,s6
    21b8:	00e03021 	move	a2,a3
    21bc:	01c05021 	move	t2,t6
    21c0:	0800085c 	j	2170 <MapTask+0x4a4>
    21c4:	01c04021 	move	t0,t6
    21c8:	16500029 	bne	s2,s0,2270 <MapTask+0x5a4>
    21cc:	24020004 	li	v0,4
    21d0:	8fc3000c 	lw	v1,12(s8)
    21d4:	00000000 	nop
    21d8:	006c102a 	slt	v0,v1,t4
    21dc:	14400003 	bnez	v0,21ec <MapTask+0x520>
    21e0:	2415ffff 	li	s5,-1
    21e4:	0800087e 	j	21f8 <MapTask+0x52c>
    21e8:	240f0001 	li	t7,1
    21ec:	258cffff 	addiu	t4,t4,-1
    21f0:	0180a821 	move	s5,t4
    21f4:	00007821 	move	t7,zero
    21f8:	8fc40008 	lw	a0,8(s8)
    21fc:	00000000 	nop
    2200:	0087102a 	slt	v0,a0,a3
    2204:	10400004 	beqz	v0,2218 <MapTask+0x54c>
    2208:	00000000 	nop
    220c:	24e7ffff 	addiu	a3,a3,-1
    2210:	08000888 	j	2220 <MapTask+0x554>
    2214:	00e09821 	move	s3,a3
    2218:	25ef0001 	addiu	t7,t7,1
    221c:	2413ffff 	li	s3,-1
    2220:	0177102a 	slt	v0,t3,s7
    2224:	10400004 	beqz	v0,2238 <MapTask+0x56c>
    2228:	00000000 	nop
    222c:	256b0001 	addiu	t3,t3,1
    2230:	08000890 	j	2240 <MapTask+0x574>
    2234:	01608821 	move	s1,t3
    2238:	25ef0001 	addiu	t7,t7,1
    223c:	2411ffff 	li	s1,-1
    2240:	8fd60010 	lw	s6,16(s8)
    2244:	00000000 	nop
    2248:	0136102a 	slt	v0,t1,s6
    224c:	10400004 	beqz	v0,2260 <MapTask+0x594>
    2250:	00000000 	nop
    2254:	25290001 	addiu	t1,t1,1
    2258:	0800089a 	j	2268 <MapTask+0x59c>
    225c:	0120c821 	move	t9,t1
    2260:	25ef0001 	addiu	t7,t7,1
    2264:	2419ffff 	li	t9,-1
    2268:	24180001 	li	t8,1
    226c:	24020004 	li	v0,4
    2270:	11e20003 	beq	t7,v0,2280 <MapTask+0x5b4>
    2274:	00000000 	nop
    2278:	1250ff93 	beq	s2,s0,20c8 <MapTask+0x3fc>
    227c:	000c1200 	sll	v0,t4,0x8
    2280:	8fdd0004 	lw	sp,4(s8)
    2284:	03c0e821 	move	sp,s8
    2288:	02401021 	move	v0,s2
    228c:	8fbe0048 	lw	s8,72(sp)
    2290:	8fb70044 	lw	s7,68(sp)
    2294:	8fb60040 	lw	s6,64(sp)
    2298:	8fb5003c 	lw	s5,60(sp)
    229c:	8fb40038 	lw	s4,56(sp)
    22a0:	8fb30034 	lw	s3,52(sp)
    22a4:	8fb20030 	lw	s2,48(sp)
    22a8:	8fb1002c 	lw	s1,44(sp)
    22ac:	8fb00028 	lw	s0,40(sp)
    22b0:	03e00008 	jr	ra
    22b4:	27bd0050 	addiu	sp,sp,80

000022b8 <allocate_new_task>:
    22b8:	27bdffa0 	addiu	sp,sp,-96
    22bc:	afb00040 	sw	s0,64(sp)
    22c0:	2410ffff 	li	s0,-1
    22c4:	afb50054 	sw	s5,84(sp)
    22c8:	afb3004c 	sw	s3,76(sp)
    22cc:	afb20048 	sw	s2,72(sp)
    22d0:	afbf0058 	sw	ra,88(sp)
    22d4:	afb40050 	sw	s4,80(sp)
    22d8:	afb10044 	sw	s1,68(sp)
    22dc:	00c09021 	move	s2,a2
    22e0:	00809821 	move	s3,a0
    22e4:	14d0001c 	bne	a2,s0,2358 <allocate_new_task+0xa0>
    22e8:	00a0a821 	move	s5,a1
    22ec:	3c020004 	lui	v0,0x4
    22f0:	8c427430 	lw	v0,29744(v0)
    22f4:	00000000 	nop
    22f8:	1c40000d 	bgtz	v0,2330 <allocate_new_task+0x78>
    22fc:	3c020005 	lui	v0,0x5
    2300:	8c42213c 	lw	v0,8508(v0)
    2304:	00000000 	nop
    2308:	10460005 	beq	v0,a2,2320 <allocate_new_task+0x68>
    230c:	00000000 	nop
    2310:	0c0001ca 	jal	728 <add_task_request>
    2314:	00000000 	nop
    2318:	0800093b 	j	24ec <allocate_new_task+0x234>
    231c:	00000000 	nop
    2320:	0c0004a7 	jal	129c <reclustering_task>
    2324:	00000000 	nop
    2328:	0800093b 	j	24ec <allocate_new_task+0x234>
    232c:	00000000 	nop
    2330:	00042203 	sra	a0,a0,0x8
    2334:	0c000733 	jal	1ccc <MapTask>
    2338:	326500ff 	andi	a1,s3,0xff
    233c:	14500006 	bne	v0,s0,2358 <allocate_new_task+0xa0>
    2340:	00409021 	move	s2,v0
    2344:	3c040000 	lui	a0,0x0
    2348:	0c000340 	jal	d00 <puts>
    234c:	24846920 	addiu	a0,a0,26912
    2350:	080008d4 	j	2350 <allocate_new_task+0x98>
    2354:	00000000 	nop
    2358:	1a400003 	blez	s2,2368 <allocate_new_task+0xb0>
    235c:	2402ffff 	li	v0,-1
    2360:	16620005 	bne	s3,v0,2378 <allocate_new_task+0xc0>
    2364:	0013a203 	sra	s4,s3,0x8
    2368:	3c040000 	lui	a0,0x0
    236c:	0c000340 	jal	d00 <puts>
    2370:	2484693c 	addiu	a0,a0,26940
    2374:	0013a203 	sra	s4,s3,0x8
    2378:	00141900 	sll	v1,s4,0x4
    237c:	00141180 	sll	v0,s4,0x6
    2380:	00431023 	subu	v0,v0,v1
    2384:	000218c0 	sll	v1,v0,0x3
    2388:	00621823 	subu	v1,v1,v0
    238c:	326200ff 	andi	v0,s3,0xff
    2390:	000221c0 	sll	a0,v0,0x7
    2394:	00741821 	addu	v1,v1,s4
    2398:	00021100 	sll	v0,v0,0x4
    239c:	00822023 	subu	a0,a0,v0
    23a0:	00031880 	sll	v1,v1,0x2
    23a4:	3c020005 	lui	v0,0x5
    23a8:	00832021 	addu	a0,a0,v1
    23ac:	244206e8 	addiu	v0,v0,1768
    23b0:	00822021 	addu	a0,a0,v0
    23b4:	3c020005 	lui	v0,0x5
    23b8:	9042edbc 	lbu	v0,-4676(v0)
    23bc:	24840004 	addiu	a0,a0,4
    23c0:	8c870010 	lw	a3,16(a0)
    23c4:	8c8a000c 	lw	t2,12(a0)
    23c8:	8c880004 	lw	t0,4(a0)
    23cc:	8c890008 	lw	t1,8(a0)
    23d0:	10400033 	beqz	v0,24a0 <allocate_new_task+0x1e8>
    23d4:	3c030005 	lui	v1,0x5
    23d8:	8c62edc4 	lw	v0,-4668(v1)
    23dc:	3c110005 	lui	s1,0x5
    23e0:	27a40020 	addiu	a0,sp,32
    23e4:	afaa0038 	sw	t2,56(sp)
    23e8:	afa80030 	sw	t0,48(sp)
    23ec:	afa90034 	sw	t1,52(sp)
    23f0:	afa7002c 	sw	a3,44(sp)
    23f4:	afa20024 	sw	v0,36(sp)
    23f8:	afb20028 	sw	s2,40(sp)
    23fc:	0c00018d 	jal	634 <add_new_task>
    2400:	afb30020 	sw	s3,32(sp)
    2404:	8e22eddc 	lw	v0,-4644(s1)
    2408:	3c100004 	lui	s0,0x4
    240c:	00021940 	sll	v1,v0,0x5
    2410:	00021080 	sll	v0,v0,0x2
    2414:	00621823 	subu	v1,v1,v0
    2418:	2610764c 	addiu	s0,s0,30284
    241c:	00701821 	addu	v1,v1,s0
    2420:	8c620018 	lw	v0,24(v1)
    2424:	3c040000 	lui	a0,0x0
    2428:	2442ffff 	addiu	v0,v0,-1
    242c:	ac620018 	sw	v0,24(v1)
    2430:	0c000340 	jal	d00 <puts>
    2434:	24846970 	addiu	a0,a0,26992
    2438:	8e22eddc 	lw	v0,-4644(s1)
    243c:	00000000 	nop
    2440:	00021940 	sll	v1,v0,0x5
    2444:	00021080 	sll	v0,v0,0x2
    2448:	00621823 	subu	v1,v1,v0
    244c:	00701821 	addu	v1,v1,s0
    2450:	8c640018 	lw	a0,24(v1)
    2454:	0c00000b 	jal	2c <itoa>
    2458:	00000000 	nop
    245c:	0c000340 	jal	d00 <puts>
    2460:	00402021 	move	a0,v0
    2464:	3c040000 	lui	a0,0x0
    2468:	0c000340 	jal	d00 <puts>
    246c:	2484696c 	addiu	a0,a0,26988
    2470:	8e23eddc 	lw	v1,-4644(s1)
    2474:	3c020005 	lui	v0,0x5
    2478:	2442edc0 	addiu	v0,v0,-4672
    247c:	00031880 	sll	v1,v1,0x2
    2480:	00621821 	addu	v1,v1,v0
    2484:	3c040005 	lui	a0,0x5
    2488:	8c620000 	lw	v0,0(v1)
    248c:	8c85edd4 	lw	a1,-4652(a0)
    2490:	ac80edd4 	sw	zero,-4652(a0)
    2494:	00451021 	addu	v0,v0,a1
    2498:	0800092f 	j	24bc <allocate_new_task+0x204>
    249c:	ac620000 	sw	v0,0(v1)
    24a0:	8c65edc4 	lw	a1,-4668(v1)
    24a4:	02602021 	move	a0,s3
    24a8:	02403021 	move	a2,s2
    24ac:	afa80010 	sw	t0,16(sp)
    24b0:	afa90014 	sw	t1,20(sp)
    24b4:	0c000556 	jal	1558 <send_new_task>
    24b8:	afaa0018 	sw	t2,24(sp)
    24bc:	0c0003a4 	jal	e90 <page_used>
    24c0:	02402021 	move	a0,s2
    24c4:	02802021 	move	a0,s4
    24c8:	326500ff 	andi	a1,s3,0xff
    24cc:	0c0003ca 	jal	f28 <insert_task_loc>
    24d0:	02403021 	move	a2,s2
    24d4:	2402ffff 	li	v0,-1
    24d8:	12a20004 	beq	s5,v0,24ec <allocate_new_task+0x234>
    24dc:	02a02021 	move	a0,s5
    24e0:	02602821 	move	a1,s3
    24e4:	0c000534 	jal	14d0 <send_task_allocated>
    24e8:	02403021 	move	a2,s2
    24ec:	8fbf0058 	lw	ra,88(sp)
    24f0:	8fb50054 	lw	s5,84(sp)
    24f4:	8fb40050 	lw	s4,80(sp)
    24f8:	8fb3004c 	lw	s3,76(sp)
    24fc:	8fb20048 	lw	s2,72(sp)
    2500:	8fb10044 	lw	s1,68(sp)
    2504:	8fb00040 	lw	s0,64(sp)
    2508:	03e00008 	jr	ra
    250c:	27bd0060 	addiu	sp,sp,96

00002510 <handle_end_of_reclustering_round>:
    2510:	27bdffe0 	addiu	sp,sp,-32
    2514:	afb10014 	sw	s1,20(sp)
    2518:	3c110005 	lui	s1,0x5
    251c:	afb20018 	sw	s2,24(sp)
    2520:	afb00010 	sw	s0,16(sp)
    2524:	afbf001c 	sw	ra,28(sp)
    2528:	2630213c 	addiu	s0,s1,8508
    252c:	8e02001c 	lw	v0,28(s0)
    2530:	00000000 	nop
    2534:	10400008 	beqz	v0,2558 <handle_end_of_reclustering_round+0x48>
    2538:	2412ffff 	li	s2,-1
    253c:	8e050004 	lw	a1,4(s0)
    2540:	8e24213c 	lw	a0,8508(s1)
    2544:	0c0001ca 	jal	728 <add_task_request>
    2548:	00000000 	nop
    254c:	2402ffff 	li	v0,-1
    2550:	0800097d 	j	25f4 <handle_end_of_reclustering_round+0xe4>
    2554:	ae22213c 	sw	v0,8508(s1)
    2558:	8e020010 	lw	v0,16(s0)
    255c:	00000000 	nop
    2560:	1052000f 	beq	v0,s2,25a0 <handle_end_of_reclustering_round+0x90>
    2564:	00403021 	move	a2,v0
    2568:	8e24213c 	lw	a0,8508(s1)
    256c:	8e050004 	lw	a1,4(s0)
    2570:	0c0008ae 	jal	22b8 <allocate_new_task>
    2574:	00000000 	nop
    2578:	3c020005 	lui	v0,0x5
    257c:	9042edbc 	lbu	v0,-4676(v0)
    2580:	00000000 	nop
    2584:	10400004 	beqz	v0,2598 <handle_end_of_reclustering_round+0x88>
    2588:	00000000 	nop
    258c:	8e040014 	lw	a0,20(s0)
    2590:	0c0004d1 	jal	1344 <decrement_cluster_resources>
    2594:	00000000 	nop
    2598:	0800097d 	j	25f4 <handle_end_of_reclustering_round+0xe4>
    259c:	ae32213c 	sw	s2,8508(s1)
    25a0:	8e030018 	lw	v1,24(s0)
    25a4:	3c020005 	lui	v0,0x5
    25a8:	8c420570 	lw	v0,1392(v0)
    25ac:	24630001 	addiu	v1,v1,1
    25b0:	3c040000 	lui	a0,0x0
    25b4:	0043102a 	slt	v0,v0,v1
    25b8:	24846988 	addiu	a0,a0,27016
    25bc:	10400007 	beqz	v0,25dc <handle_end_of_reclustering_round+0xcc>
    25c0:	ae030018 	sw	v1,24(s0)
    25c4:	8fbf001c 	lw	ra,28(sp)
    25c8:	8fb20018 	lw	s2,24(sp)
    25cc:	8fb10014 	lw	s1,20(sp)
    25d0:	8fb00010 	lw	s0,16(sp)
    25d4:	08000340 	j	d00 <puts>
    25d8:	27bd0020 	addiu	sp,sp,32
    25dc:	8fbf001c 	lw	ra,28(sp)
    25e0:	8fb20018 	lw	s2,24(sp)
    25e4:	8fb10014 	lw	s1,20(sp)
    25e8:	8fb00010 	lw	s0,16(sp)
    25ec:	0800045c 	j	1170 <fires_reclustering_protocol>
    25f0:	27bd0020 	addiu	sp,sp,32
    25f4:	8fbf001c 	lw	ra,28(sp)
    25f8:	8fb20018 	lw	s2,24(sp)
    25fc:	8fb10014 	lw	s1,20(sp)
    2600:	8fb00010 	lw	s0,16(sp)
    2604:	03e00008 	jr	ra
    2608:	27bd0020 	addiu	sp,sp,32

0000260c <handle_task_request>:
    260c:	27bdffe8 	addiu	sp,sp,-24
    2610:	afb00010 	sw	s0,16(sp)
    2614:	afbf0014 	sw	ra,20(sp)
    2618:	8c850000 	lw	a1,0(a0)
    261c:	00808021 	move	s0,a0
    2620:	00051203 	sra	v0,a1,0x8
    2624:	00021900 	sll	v1,v0,0x4
    2628:	00021080 	sll	v0,v0,0x2
    262c:	00621823 	subu	v1,v1,v0
    2630:	30a200ff 	andi	v0,a1,0xff
    2634:	00621821 	addu	v1,v1,v0
    2638:	3c020004 	lui	v0,0x4
    263c:	24427434 	addiu	v0,v0,29748
    2640:	00031880 	sll	v1,v1,0x2
    2644:	00621821 	addu	v1,v1,v0
    2648:	8c630000 	lw	v1,0(v1)
    264c:	2407ffff 	li	a3,-1
    2650:	00a02021 	move	a0,a1
    2654:	8e020004 	lw	v0,4(s0)
    2658:	14670005 	bne	v1,a3,2670 <handle_task_request+0x64>
    265c:	2406ffff 	li	a2,-1
    2660:	0c0008ae 	jal	22b8 <allocate_new_task>
    2664:	00402821 	move	a1,v0
    2668:	080009a2 	j	2688 <handle_task_request+0x7c>
    266c:	2402ffff 	li	v0,-1
    2670:	00402021 	move	a0,v0
    2674:	10470003 	beq	v0,a3,2684 <handle_task_request+0x78>
    2678:	00603021 	move	a2,v1
    267c:	0c000534 	jal	14d0 <send_task_allocated>
    2680:	00000000 	nop
    2684:	2402ffff 	li	v0,-1
    2688:	ae020000 	sw	v0,0(s0)
    268c:	8fbf0014 	lw	ra,20(sp)
    2690:	8fb00010 	lw	s0,16(sp)
    2694:	03e00008 	jr	ra
    2698:	27bd0018 	addiu	sp,sp,24

0000269c <allocate_initial_task>:
    269c:	27bdffa0 	addiu	sp,sp,-96
    26a0:	afb40058 	sw	s4,88(sp)
    26a4:	afb30054 	sw	s3,84(sp)
    26a8:	afbf005c 	sw	ra,92(sp)
    26ac:	afb20050 	sw	s2,80(sp)
    26b0:	afb1004c 	sw	s1,76(sp)
    26b4:	afb00048 	sw	s0,72(sp)
    26b8:	00809821 	move	s3,a0
    26bc:	0000a021 	move	s4,zero
    26c0:	8e710000 	lw	s1,0(s3)
    26c4:	2402ffff 	li	v0,-1
    26c8:	12220033 	beq	s1,v0,2798 <allocate_initial_task+0xfc>
    26cc:	27a40018 	addiu	a0,sp,24
    26d0:	00112a03 	sra	a1,s1,0x8
    26d4:	322600ff 	andi	a2,s1,0xff
    26d8:	16800010 	bnez	s4,271c <allocate_initial_task+0x80>
    26dc:	3c120005 	lui	s2,0x5
    26e0:	0c0001eb 	jal	7ac <InitialMapping>
    26e4:	00000000 	nop
    26e8:	8fa20028 	lw	v0,40(sp)
    26ec:	2643215c 	addiu	v1,s2,8540
    26f0:	8fa40018 	lw	a0,24(sp)
    26f4:	ac620010 	sw	v0,16(v1)
    26f8:	8fa2001c 	lw	v0,28(sp)
    26fc:	00803021 	move	a2,a0
    2700:	ac620004 	sw	v0,4(v1)
    2704:	8fa20020 	lw	v0,32(sp)
    2708:	ae44215c 	sw	a0,8540(s2)
    270c:	ac620008 	sw	v0,8(v1)
    2710:	8fa20024 	lw	v0,36(sp)
    2714:	080009e3 	j	278c <allocate_initial_task+0xf0>
    2718:	ac62000c 	sw	v0,12(v1)
    271c:	8e43215c 	lw	v1,8540(s2)
    2720:	27a40030 	addiu	a0,sp,48
    2724:	00112a03 	sra	a1,s1,0x8
    2728:	322600ff 	andi	a2,s1,0xff
    272c:	1462000f 	bne	v1,v0,276c <allocate_initial_task+0xd0>
    2730:	2650215c 	addiu	s0,s2,8540
    2734:	0c0001eb 	jal	7ac <InitialMapping>
    2738:	00000000 	nop
    273c:	8fa20040 	lw	v0,64(sp)
    2740:	8fa30030 	lw	v1,48(sp)
    2744:	ae020010 	sw	v0,16(s0)
    2748:	8fa20034 	lw	v0,52(sp)
    274c:	00603021 	move	a2,v1
    2750:	ae020004 	sw	v0,4(s0)
    2754:	8fa20038 	lw	v0,56(sp)
    2758:	ae43215c 	sw	v1,8540(s2)
    275c:	ae020008 	sw	v0,8(s0)
    2760:	8fa2003c 	lw	v0,60(sp)
    2764:	080009e3 	j	278c <allocate_initial_task+0xf0>
    2768:	ae02000c 	sw	v0,12(s0)
    276c:	8e020010 	lw	v0,16(s0)
    2770:	8e060008 	lw	a2,8(s0)
    2774:	8e07000c 	lw	a3,12(s0)
    2778:	8e050004 	lw	a1,4(s0)
    277c:	00602021 	move	a0,v1
    2780:	0c000297 	jal	a5c <InitialMapping2>
    2784:	afa20010 	sw	v0,16(sp)
    2788:	00403021 	move	a2,v0
    278c:	02202021 	move	a0,s1
    2790:	0c0008ae 	jal	22b8 <allocate_new_task>
    2794:	2405ffff 	li	a1,-1
    2798:	26940001 	addiu	s4,s4,1
    279c:	2402000a 	li	v0,10
    27a0:	1682ffc7 	bne	s4,v0,26c0 <allocate_initial_task+0x24>
    27a4:	26730004 	addiu	s3,s3,4
    27a8:	8fbf005c 	lw	ra,92(sp)
    27ac:	8fb40058 	lw	s4,88(sp)
    27b0:	8fb30054 	lw	s3,84(sp)
    27b4:	8fb20050 	lw	s2,80(sp)
    27b8:	8fb1004c 	lw	s1,76(sp)
    27bc:	8fb00048 	lw	s0,72(sp)
    27c0:	03e00008 	jr	ra
    27c4:	27bd0060 	addiu	sp,sp,96

000027c8 <handle_new_app>:
    27c8:	00061080 	sll	v0,a2,0x2
    27cc:	27bdffa8 	addiu	sp,sp,-88
    27d0:	2442000e 	addiu	v0,v0,14
    27d4:	afbe004c 	sw	s8,76(sp)
    27d8:	afb20048 	sw	s2,72(sp)
    27dc:	afb10044 	sw	s1,68(sp)
    27e0:	afb00040 	sw	s0,64(sp)
    27e4:	afbf0050 	sw	ra,80(sp)
    27e8:	000210c2 	srl	v0,v0,0x3
    27ec:	3c030005 	lui	v1,0x5
    27f0:	000210c0 	sll	v0,v0,0x3
    27f4:	9063edbc 	lbu	v1,-4676(v1)
    27f8:	03a0f021 	move	s8,sp
    27fc:	03a09021 	move	s2,sp
    2800:	03a2e823 	subu	sp,sp,v0
    2804:	00808821 	move	s1,a0
    2808:	00a03821 	move	a3,a1
    280c:	14600005 	bnez	v1,2824 <handle_new_app+0x5c>
    2810:	27b00010 	addiu	s0,sp,16
    2814:	00c02821 	move	a1,a2
    2818:	0c00012c 	jal	4b0 <DMA_read_data>
    281c:	02002021 	move	a0,s0
    2820:	02003821 	move	a3,s0
    2824:	00111900 	sll	v1,s1,0x4
    2828:	00111180 	sll	v0,s1,0x6
    282c:	00431023 	subu	v0,v0,v1
    2830:	000218c0 	sll	v1,v0,0x3
    2834:	00621823 	subu	v1,v1,v0
    2838:	00711821 	addu	v1,v1,s1
    283c:	3c020005 	lui	v0,0x5
    2840:	244206e8 	addiu	v0,v0,1768
    2844:	00031880 	sll	v1,v1,0x2
    2848:	00621821 	addu	v1,v1,v0
    284c:	3c020005 	lui	v0,0x5
    2850:	8ce50000 	lw	a1,0(a3)
    2854:	00112080 	sll	a0,s1,0x2
    2858:	244221b0 	addiu	v0,v0,8624
    285c:	00822021 	addu	a0,a0,v0
    2860:	ac850000 	sw	a1,0(a0)
    2864:	00116a00 	sll	t5,s1,0x8
    2868:	ac650000 	sw	a1,0(v1)
    286c:	27c40014 	addiu	a0,s8,20
    2870:	24e30004 	addiu	v1,a3,4
    2874:	27c5003c 	addiu	a1,s8,60
    2878:	8c620000 	lw	v0,0(v1)
    287c:	00000000 	nop
    2880:	01a21025 	or	v0,t5,v0
    2884:	ac820000 	sw	v0,0(a0)
    2888:	24840004 	addiu	a0,a0,4
    288c:	1485fffa 	bne	a0,a1,2878 <handle_new_app+0xb0>
    2890:	24630004 	addiu	v1,v1,4
    2894:	00111900 	sll	v1,s1,0x4
    2898:	00111180 	sll	v0,s1,0x6
    289c:	00431023 	subu	v0,v0,v1
    28a0:	000218c0 	sll	v1,v0,0x3
    28a4:	00621823 	subu	v1,v1,v0
    28a8:	3c020005 	lui	v0,0x5
    28ac:	8c44eddc 	lw	a0,-4644(v0)
    28b0:	00711821 	addu	v1,v1,s1
    28b4:	3c020005 	lui	v0,0x5
    28b8:	3c110005 	lui	s1,0x5
    28bc:	244f06e8 	addiu	t7,v0,1768
    28c0:	00035880 	sll	t3,v1,0x2
    28c4:	00042080 	sll	a0,a0,0x2
    28c8:	2622ee74 	addiu	v0,s1,-4492
    28cc:	00825021 	addu	t2,a0,v0
    28d0:	24e70094 	addiu	a3,a3,148
    28d4:	00004821 	move	t1,zero
    28d8:	016f7021 	addu	t6,t3,t7
    28dc:	08000a69 	j	29a4 <handle_new_app+0x1dc>
    28e0:	2410ffff 	li	s0,-1
    28e4:	8ce2ff98 	lw	v0,-104(a3)
    28e8:	8d440000 	lw	a0,0(t2)
    28ec:	afc20010 	sw	v0,16(s8)
    28f0:	8fc20010 	lw	v0,16(s8)
    28f4:	24e8ffb0 	addiu	t0,a3,-80
    28f8:	304200ff 	andi	v0,v0,0xff
    28fc:	afc20010 	sw	v0,16(s8)
    2900:	8fc30010 	lw	v1,16(s8)
    2904:	8ce5ff9c 	lw	a1,-100(a3)
    2908:	000311c0 	sll	v0,v1,0x7
    290c:	00031900 	sll	v1,v1,0x4
    2910:	00431023 	subu	v0,v0,v1
    2914:	004b1021 	addu	v0,v0,t3
    2918:	004f1021 	addu	v0,v0,t7
    291c:	24460004 	addiu	a2,v0,4
    2920:	acc50004 	sw	a1,4(a2)
    2924:	8ce2ffa0 	lw	v0,-96(a3)
    2928:	00c02821 	move	a1,a2
    292c:	acc20008 	sw	v0,8(a2)
    2930:	8ce2ffa4 	lw	v0,-92(a3)
    2934:	240cffff 	li	t4,-1
    2938:	acc2000c 	sw	v0,12(a2)
    293c:	8ce2ffa8 	lw	v0,-88(a3)
    2940:	acd00014 	sw	s0,20(a2)
    2944:	acc20010 	sw	v0,16(a2)
    2948:	acc0001c 	sw	zero,28(a2)
    294c:	8ce2ffac 	lw	v0,-84(a3)
    2950:	00000000 	nop
    2954:	00822021 	addu	a0,a0,v0
    2958:	ad440000 	sw	a0,0(t2)
    295c:	acc20018 	sw	v0,24(a2)
    2960:	8d020000 	lw	v0,0(t0)
    2964:	00000000 	nop
    2968:	01a21025 	or	v0,t5,v0
    296c:	aca20020 	sw	v0,32(a1)
    2970:	8d030004 	lw	v1,4(t0)
    2974:	25080008 	addiu	t0,t0,8
    2978:	aca30024 	sw	v1,36(a1)
    297c:	104c0005 	beq	v0,t4,2994 <handle_new_app+0x1cc>
    2980:	24a50008 	addiu	a1,a1,8
    2984:	8cc2001c 	lw	v0,28(a2)
    2988:	00000000 	nop
    298c:	24420001 	addiu	v0,v0,1
    2990:	acc2001c 	sw	v0,28(a2)
    2994:	1507fff2 	bne	t0,a3,2960 <handle_new_app+0x198>
    2998:	00000000 	nop
    299c:	25290001 	addiu	t1,t1,1
    29a0:	24e70068 	addiu	a3,a3,104
    29a4:	8dc20000 	lw	v0,0(t6)
    29a8:	00000000 	nop
    29ac:	0122102a 	slt	v0,t1,v0
    29b0:	1440ffcc 	bnez	v0,28e4 <handle_new_app+0x11c>
    29b4:	3c040000 	lui	a0,0x0
    29b8:	3c100005 	lui	s0,0x5
    29bc:	0c000340 	jal	d00 <puts>
    29c0:	248469e4 	addiu	a0,a0,27108
    29c4:	8e04eddc 	lw	a0,-4644(s0)
    29c8:	0c00000b 	jal	2c <itoa>
    29cc:	00000000 	nop
    29d0:	0c000340 	jal	d00 <puts>
    29d4:	00402021 	move	a0,v0
    29d8:	3c040000 	lui	a0,0x0
    29dc:	0c000340 	jal	d00 <puts>
    29e0:	248469f4 	addiu	a0,a0,27124
    29e4:	8e02eddc 	lw	v0,-4644(s0)
    29e8:	2623ee74 	addiu	v1,s1,-4492
    29ec:	00021080 	sll	v0,v0,0x2
    29f0:	00431021 	addu	v0,v0,v1
    29f4:	8c440000 	lw	a0,0(v0)
    29f8:	0c00000b 	jal	2c <itoa>
    29fc:	00000000 	nop
    2a00:	0c000340 	jal	d00 <puts>
    2a04:	00402021 	move	a0,v0
    2a08:	3c040000 	lui	a0,0x0
    2a0c:	0c000340 	jal	d00 <puts>
    2a10:	2484696c 	addiu	a0,a0,26988
    2a14:	0c0009a7 	jal	269c <allocate_initial_task>
    2a18:	27c40014 	addiu	a0,s8,20
    2a1c:	0240e821 	move	sp,s2
    2a20:	03c0e821 	move	sp,s8
    2a24:	8fbf0050 	lw	ra,80(sp)
    2a28:	8fbe004c 	lw	s8,76(sp)
    2a2c:	8fb20048 	lw	s2,72(sp)
    2a30:	8fb10044 	lw	s1,68(sp)
    2a34:	8fb00040 	lw	s0,64(sp)
    2a38:	03e00008 	jr	ra
    2a3c:	27bd0058 	addiu	sp,sp,88

00002a40 <handle_app_request>:
    2a40:	27bdffc0 	addiu	sp,sp,-64
    2a44:	3c022000 	lui	v0,0x2000
    2a48:	afbe0038 	sw	s8,56(sp)
    2a4c:	afb70034 	sw	s7,52(sp)
    2a50:	afb60030 	sw	s6,48(sp)
    2a54:	afbf003c 	sw	ra,60(sp)
    2a58:	afb5002c 	sw	s5,44(sp)
    2a5c:	afb40028 	sw	s4,40(sp)
    2a60:	afb30024 	sw	s3,36(sp)
    2a64:	afb20020 	sw	s2,32(sp)
    2a68:	afb1001c 	sw	s1,28(sp)
    2a6c:	afb00018 	sw	s0,24(sp)
    2a70:	34420350 	ori	v0,v0,0x350
    2a74:	8c430000 	lw	v1,0(v0)
    2a78:	3c027fff 	lui	v0,0x7fff
    2a7c:	3442ffff 	ori	v0,v0,0xffff
    2a80:	0062f024 	and	s8,v1,v0
    2a84:	3c020004 	lui	v0,0x4
    2a88:	2442741c 	addiu	v0,v0,29724
    2a8c:	001e1880 	sll	v1,s8,0x2
    2a90:	00621821 	addu	v1,v1,v0
    2a94:	8c640000 	lw	a0,0(v1)
    2a98:	00000000 	nop
    2a9c:	000419c0 	sll	v1,a0,0x7
    2aa0:	00041140 	sll	v0,a0,0x5
    2aa4:	00431021 	addu	v0,v0,v1
    2aa8:	00441023 	subu	v0,v0,a0
    2aac:	00021080 	sll	v0,v0,0x2
    2ab0:	00441021 	addu	v0,v0,a0
    2ab4:	00021940 	sll	v1,v0,0x5
    2ab8:	00621823 	subu	v1,v1,v0
    2abc:	00641821 	addu	v1,v1,a0
    2ac0:	3c021000 	lui	v0,0x1000
    2ac4:	0062b821 	addu	s7,v1,v0
    2ac8:	8ef40000 	lw	s4,0(s7)
    2acc:	0c00030f 	jal	c3c <SearchCluster>
    2ad0:	02802021 	move	a0,s4
    2ad4:	0040b021 	move	s6,v0
    2ad8:	2402ffff 	li	v0,-1
    2adc:	12c2012d 	beq	s6,v0,2f94 <handle_app_request+0x554>
    2ae0:	3c060005 	lui	a2,0x5
    2ae4:	8cc70574 	lw	a3,1396(a2)
    2ae8:	00000000 	nop
    2aec:	14e00027 	bnez	a3,2b8c <handle_app_request+0x14c>
    2af0:	24020001 	li	v0,1
    2af4:	3c050005 	lui	a1,0x5
    2af8:	8ca20578 	lw	v0,1400(a1)
    2afc:	00000000 	nop
    2b00:	14400057 	bnez	v0,2c60 <handle_app_request+0x220>
    2b04:	3c020004 	lui	v0,0x4
    2b08:	8c427668 	lw	v0,30312(v0)
    2b0c:	00000000 	nop
    2b10:	00541023 	subu	v0,v0,s4
    2b14:	00021900 	sll	v1,v0,0x4
    2b18:	00021080 	sll	v0,v0,0x2
    2b1c:	00431021 	addu	v0,v0,v1
    2b20:	00021880 	sll	v1,v0,0x2
    2b24:	00431021 	addu	v0,v0,v1
    2b28:	3c03ea0e 	lui	v1,0xea0e
    2b2c:	00021042 	srl	v0,v0,0x1
    2b30:	3463a0eb 	ori	v1,v1,0xa0eb
    2b34:	00430019 	multu	v0,v1
    2b38:	3c030005 	lui	v1,0x5
    2b3c:	8c64edb0 	lw	a0,-4688(v1)
    2b40:	24030064 	li	v1,100
    2b44:	00001010 	mfhi	v0
    2b48:	00021142 	srl	v0,v0,0x5
    2b4c:	00621823 	subu	v1,v1,v0
    2b50:	0064202a 	slt	a0,v1,a0
    2b54:	3c020005 	lui	v0,0x5
    2b58:	14800003 	bnez	a0,2b68 <handle_app_request+0x128>
    2b5c:	ac43057c 	sw	v1,1404(v0)
    2b60:	24020001 	li	v0,1
    2b64:	aca20578 	sw	v0,1400(a1)
    2b68:	3c020005 	lui	v0,0x5
    2b6c:	8c42edac 	lw	v0,-4692(v0)
    2b70:	00000000 	nop
    2b74:	0062102a 	slt	v0,v1,v0
    2b78:	14400053 	bnez	v0,2cc8 <handle_app_request+0x288>
    2b7c:	3c100004 	lui	s0,0x4
    2b80:	24020001 	li	v0,1
    2b84:	08000b32 	j	2cc8 <handle_app_request+0x288>
    2b88:	acc20574 	sw	v0,1396(a2)
    2b8c:	14e20034 	bne	a3,v0,2c60 <handle_app_request+0x220>
    2b90:	3c020004 	lui	v0,0x4
    2b94:	8c467668 	lw	a2,30312(v0)
    2b98:	3c040005 	lui	a0,0x5
    2b9c:	00061100 	sll	v0,a2,0x4
    2ba0:	00061880 	sll	v1,a2,0x2
    2ba4:	00621821 	addu	v1,v1,v0
    2ba8:	00031080 	sll	v0,v1,0x2
    2bac:	00621821 	addu	v1,v1,v0
    2bb0:	3c02ea0e 	lui	v0,0xea0e
    2bb4:	344ba0eb 	ori	t3,v0,0xa0eb
    2bb8:	006b0018 	mult	v1,t3
    2bbc:	00032fc3 	sra	a1,v1,0x1f
    2bc0:	8c88edb0 	lw	t0,-4688(a0)
    2bc4:	24090064 	li	t1,100
    2bc8:	3c0a0005 	lui	t2,0x5
    2bcc:	00001010 	mfhi	v0
    2bd0:	00431021 	addu	v0,v0,v1
    2bd4:	00021183 	sra	v0,v0,0x6
    2bd8:	00451023 	subu	v0,v0,a1
    2bdc:	01221023 	subu	v0,t1,v0
    2be0:	0102182a 	slt	v1,t0,v0
    2be4:	146000eb 	bnez	v1,2f94 <handle_app_request+0x554>
    2be8:	ad42057c 	sw	v0,1404(t2)
    2bec:	00d41023 	subu	v0,a2,s4
    2bf0:	00021900 	sll	v1,v0,0x4
    2bf4:	00021080 	sll	v0,v0,0x2
    2bf8:	00431021 	addu	v0,v0,v1
    2bfc:	00021880 	sll	v1,v0,0x2
    2c00:	00431021 	addu	v0,v0,v1
    2c04:	00021042 	srl	v0,v0,0x1
    2c08:	004b0019 	multu	v0,t3
    2c0c:	3c040005 	lui	a0,0x5
    2c10:	00001010 	mfhi	v0
    2c14:	00021142 	srl	v0,v0,0x5
    2c18:	01221823 	subu	v1,t1,v0
    2c1c:	0068102a 	slt	v0,v1,t0
    2c20:	14400003 	bnez	v0,2c30 <handle_app_request+0x1f0>
    2c24:	ad43057c 	sw	v1,1404(t2)
    2c28:	08000b0d 	j	2c34 <handle_app_request+0x1f4>
    2c2c:	ac870578 	sw	a3,1400(a0)
    2c30:	ac800578 	sw	zero,1400(a0)
    2c34:	3c020005 	lui	v0,0x5
    2c38:	8c42edac 	lw	v0,-4692(v0)
    2c3c:	00000000 	nop
    2c40:	0062102a 	slt	v0,v1,v0
    2c44:	14400004 	bnez	v0,2c58 <handle_app_request+0x218>
    2c48:	3c040005 	lui	a0,0x5
    2c4c:	24020001 	li	v0,1
    2c50:	08000b31 	j	2cc4 <handle_app_request+0x284>
    2c54:	ac820574 	sw	v0,1396(a0)
    2c58:	08000b31 	j	2cc4 <handle_app_request+0x284>
    2c5c:	ac800574 	sw	zero,1396(a0)
    2c60:	8c427668 	lw	v0,30312(v0)
    2c64:	00000000 	nop
    2c68:	00541023 	subu	v0,v0,s4
    2c6c:	00021900 	sll	v1,v0,0x4
    2c70:	00021080 	sll	v0,v0,0x2
    2c74:	00431021 	addu	v0,v0,v1
    2c78:	00021880 	sll	v1,v0,0x2
    2c7c:	00431021 	addu	v0,v0,v1
    2c80:	3c03ea0e 	lui	v1,0xea0e
    2c84:	00021042 	srl	v0,v0,0x1
    2c88:	3463a0eb 	ori	v1,v1,0xa0eb
    2c8c:	00430019 	multu	v0,v1
    2c90:	3c030005 	lui	v1,0x5
    2c94:	8c64edac 	lw	a0,-4692(v1)
    2c98:	24030064 	li	v1,100
    2c9c:	00001010 	mfhi	v0
    2ca0:	00021142 	srl	v0,v0,0x5
    2ca4:	00621823 	subu	v1,v1,v0
    2ca8:	0064202a 	slt	a0,v1,a0
    2cac:	3c020005 	lui	v0,0x5
    2cb0:	14800004 	bnez	a0,2cc4 <handle_app_request+0x284>
    2cb4:	ac43057c 	sw	v1,1404(v0)
    2cb8:	24030001 	li	v1,1
    2cbc:	3c020005 	lui	v0,0x5
    2cc0:	ac430574 	sw	v1,1396(v0)
    2cc4:	3c100004 	lui	s0,0x4
    2cc8:	00141880 	sll	v1,s4,0x2
    2ccc:	00141100 	sll	v0,s4,0x4
    2cd0:	00431023 	subu	v0,v0,v1
    2cd4:	8e037668 	lw	v1,30312(s0)
    2cd8:	00541021 	addu	v0,v0,s4
    2cdc:	3c040000 	lui	a0,0x0
    2ce0:	00741823 	subu	v1,v1,s4
    2ce4:	00021040 	sll	v0,v0,0x1
    2ce8:	248469f8 	addiu	a0,a0,27128
    2cec:	ae037668 	sw	v1,30312(s0)
    2cf0:	0c000340 	jal	d00 <puts>
    2cf4:	2455000b 	addiu	s5,v0,11
    2cf8:	8e047668 	lw	a0,30312(s0)
    2cfc:	0c00000b 	jal	2c <itoa>
    2d00:	3c130000 	lui	s3,0x0
    2d04:	0c000340 	jal	d00 <puts>
    2d08:	00402021 	move	a0,v0
    2d0c:	0c000340 	jal	d00 <puts>
    2d10:	2664696c 	addiu	a0,s3,26988
    2d14:	00161080 	sll	v0,s6,0x2
    2d18:	afa20014 	sw	v0,20(sp)
    2d1c:	8fa30014 	lw	v1,20(sp)
    2d20:	00161140 	sll	v0,s6,0x5
    2d24:	3c100004 	lui	s0,0x4
    2d28:	2610764c 	addiu	s0,s0,30284
    2d2c:	00431023 	subu	v0,v0,v1
    2d30:	00501021 	addu	v0,v0,s0
    2d34:	8c430000 	lw	v1,0(v0)
    2d38:	8c420004 	lw	v0,4(v0)
    2d3c:	00031a00 	sll	v1,v1,0x8
    2d40:	3c040000 	lui	a0,0x0
    2d44:	00621825 	or	v1,v1,v0
    2d48:	24846a10 	addiu	a0,a0,27152
    2d4c:	0c000340 	jal	d00 <puts>
    2d50:	afa30010 	sw	v1,16(sp)
    2d54:	0c00000b 	jal	2c <itoa>
    2d58:	02c02021 	move	a0,s6
    2d5c:	0c000340 	jal	d00 <puts>
    2d60:	00402021 	move	a0,v0
    2d64:	0c000340 	jal	d00 <puts>
    2d68:	2664696c 	addiu	a0,s3,26988
    2d6c:	3c040000 	lui	a0,0x0
    2d70:	24846a28 	addiu	a0,a0,27176
    2d74:	0c000340 	jal	d00 <puts>
    2d78:	3c110005 	lui	s1,0x5
    2d7c:	8e24edc0 	lw	a0,-4672(s1)
    2d80:	0c00000b 	jal	2c <itoa>
    2d84:	3c120000 	lui	s2,0x0
    2d88:	0c000340 	jal	d00 <puts>
    2d8c:	00402021 	move	a0,v0
    2d90:	0c000340 	jal	d00 <puts>
    2d94:	26446c8c 	addiu	a0,s2,27788
    2d98:	8e040018 	lw	a0,24(s0)
    2d9c:	0c00000b 	jal	2c <itoa>
    2da0:	2631edc0 	addiu	s1,s1,-4672
    2da4:	0c000340 	jal	d00 <puts>
    2da8:	00402021 	move	a0,v0
    2dac:	0c000340 	jal	d00 <puts>
    2db0:	2664696c 	addiu	a0,s3,26988
    2db4:	3c040000 	lui	a0,0x0
    2db8:	0c000340 	jal	d00 <puts>
    2dbc:	24846a40 	addiu	a0,a0,27200
    2dc0:	8e240004 	lw	a0,4(s1)
    2dc4:	0c00000b 	jal	2c <itoa>
    2dc8:	00000000 	nop
    2dcc:	0c000340 	jal	d00 <puts>
    2dd0:	00402021 	move	a0,v0
    2dd4:	0c000340 	jal	d00 <puts>
    2dd8:	26446c8c 	addiu	a0,s2,27788
    2ddc:	8e040034 	lw	a0,52(s0)
    2de0:	0c00000b 	jal	2c <itoa>
    2de4:	00000000 	nop
    2de8:	0c000340 	jal	d00 <puts>
    2dec:	00402021 	move	a0,v0
    2df0:	0c000340 	jal	d00 <puts>
    2df4:	2664696c 	addiu	a0,s3,26988
    2df8:	3c040000 	lui	a0,0x0
    2dfc:	0c000340 	jal	d00 <puts>
    2e00:	24846a58 	addiu	a0,a0,27224
    2e04:	8e240008 	lw	a0,8(s1)
    2e08:	0c00000b 	jal	2c <itoa>
    2e0c:	00000000 	nop
    2e10:	0c000340 	jal	d00 <puts>
    2e14:	00402021 	move	a0,v0
    2e18:	0c000340 	jal	d00 <puts>
    2e1c:	26446c8c 	addiu	a0,s2,27788
    2e20:	8e040050 	lw	a0,80(s0)
    2e24:	0c00000b 	jal	2c <itoa>
    2e28:	00000000 	nop
    2e2c:	0c000340 	jal	d00 <puts>
    2e30:	00402021 	move	a0,v0
    2e34:	0c000340 	jal	d00 <puts>
    2e38:	2664696c 	addiu	a0,s3,26988
    2e3c:	3c040000 	lui	a0,0x0
    2e40:	0c000340 	jal	d00 <puts>
    2e44:	24846a70 	addiu	a0,a0,27248
    2e48:	8e24000c 	lw	a0,12(s1)
    2e4c:	0c00000b 	jal	2c <itoa>
    2e50:	00000000 	nop
    2e54:	0c000340 	jal	d00 <puts>
    2e58:	00402021 	move	a0,v0
    2e5c:	0c000340 	jal	d00 <puts>
    2e60:	26446c8c 	addiu	a0,s2,27788
    2e64:	8e04006c 	lw	a0,108(s0)
    2e68:	0c00000b 	jal	2c <itoa>
    2e6c:	00000000 	nop
    2e70:	0c000340 	jal	d00 <puts>
    2e74:	00402021 	move	a0,v0
    2e78:	0c000340 	jal	d00 <puts>
    2e7c:	2664696c 	addiu	a0,s3,26988
    2e80:	3c020005 	lui	v0,0x5
    2e84:	9042edcc 	lbu	v0,-4660(v0)
    2e88:	8fa30010 	lw	v1,16(sp)
    2e8c:	00000000 	nop
    2e90:	14620007 	bne	v1,v0,2eb0 <handle_app_request+0x470>
    2e94:	3c110005 	lui	s1,0x5
    2e98:	03c02021 	move	a0,s8
    2e9c:	02e02821 	move	a1,s7
    2ea0:	0c0009f2 	jal	27c8 <handle_new_app>
    2ea4:	02a03021 	move	a2,s5
    2ea8:	08000bdf 	j	2f7c <handle_app_request+0x53c>
    2eac:	3c022000 	lui	v0,0x2000
    2eb0:	8fb00014 	lw	s0,20(sp)
    2eb4:	2622ee74 	addiu	v0,s1,-4492
    2eb8:	02023021 	addu	a2,s0,v0
    2ebc:	26e40040 	addiu	a0,s7,64
    2ec0:	08000bb7 	j	2edc <handle_app_request+0x49c>
    2ec4:	00002821 	move	a1,zero
    2ec8:	8c830000 	lw	v1,0(a0)
    2ecc:	8cc20000 	lw	v0,0(a2)
    2ed0:	24840068 	addiu	a0,a0,104
    2ed4:	00431021 	addu	v0,v0,v1
    2ed8:	acc20000 	sw	v0,0(a2)
    2edc:	14b4fffa 	bne	a1,s4,2ec8 <handle_app_request+0x488>
    2ee0:	24a50001 	addiu	a1,a1,1
    2ee4:	3c040000 	lui	a0,0x0
    2ee8:	0c000340 	jal	d00 <puts>
    2eec:	24846a88 	addiu	a0,a0,27272
    2ef0:	0c00000b 	jal	2c <itoa>
    2ef4:	02c02021 	move	a0,s6
    2ef8:	0c000340 	jal	d00 <puts>
    2efc:	00402021 	move	a0,v0
    2f00:	3c040000 	lui	a0,0x0
    2f04:	0c000340 	jal	d00 <puts>
    2f08:	248469f4 	addiu	a0,a0,27124
    2f0c:	2622ee74 	addiu	v0,s1,-4492
    2f10:	02021021 	addu	v0,s0,v0
    2f14:	8c440000 	lw	a0,0(v0)
    2f18:	0c00000b 	jal	2c <itoa>
    2f1c:	00000000 	nop
    2f20:	0c000340 	jal	d00 <puts>
    2f24:	00402021 	move	a0,v0
    2f28:	3c040000 	lui	a0,0x0
    2f2c:	0c000340 	jal	d00 <puts>
    2f30:	2484696c 	addiu	a0,a0,26988
    2f34:	02c02021 	move	a0,s6
    2f38:	03c02821 	move	a1,s8
    2f3c:	02e03021 	move	a2,s7
    2f40:	0c0006d6 	jal	1b58 <update_clusters_load>
    2f44:	02a03821 	move	a3,s5
    2f48:	0c000115 	jal	454 <get_service_header_slot>
    2f4c:	00000000 	nop
    2f50:	8fa30010 	lw	v1,16(sp)
    2f54:	00402021 	move	a0,v0
    2f58:	ac430000 	sw	v1,0(v0)
    2f5c:	24030150 	li	v1,336
    2f60:	ac430008 	sw	v1,8(v0)
    2f64:	ac5e000c 	sw	s8,12(v0)
    2f68:	ac550020 	sw	s5,32(v0)
    2f6c:	02e02821 	move	a1,s7
    2f70:	0c00014f 	jal	53c <send_packet>
    2f74:	02a03021 	move	a2,s5
    2f78:	3c022000 	lui	v0,0x2000
    2f7c:	24030001 	li	v1,1
    2f80:	34420360 	ori	v0,v0,0x360
    2f84:	24040001 	li	a0,1
    2f88:	ac430000 	sw	v1,0(v0)
    2f8c:	08000be6 	j	2f98 <handle_app_request+0x558>
    2f90:	00000000 	nop
    2f94:	00002021 	move	a0,zero
    2f98:	8fbf003c 	lw	ra,60(sp)
    2f9c:	8fbe0038 	lw	s8,56(sp)
    2fa0:	8fb70034 	lw	s7,52(sp)
    2fa4:	8fb60030 	lw	s6,48(sp)
    2fa8:	8fb5002c 	lw	s5,44(sp)
    2fac:	8fb40028 	lw	s4,40(sp)
    2fb0:	8fb30024 	lw	s3,36(sp)
    2fb4:	8fb20020 	lw	s2,32(sp)
    2fb8:	8fb1001c 	lw	s1,28(sp)
    2fbc:	8fb00018 	lw	s0,24(sp)
    2fc0:	00801021 	move	v0,a0
    2fc4:	03e00008 	jr	ra
    2fc8:	27bd0040 	addiu	sp,sp,64

00002fcc <temperature>:
    2fcc:	3c020005 	lui	v0,0x5
    2fd0:	27bdffb0 	addiu	sp,sp,-80
    2fd4:	2442ed20 	addiu	v0,v0,-4832
    2fd8:	afa20010 	sw	v0,16(sp)
    2fdc:	24020001 	li	v0,1
    2fe0:	afbf004c 	sw	ra,76(sp)
    2fe4:	afbe0048 	sw	s8,72(sp)
    2fe8:	afb70044 	sw	s7,68(sp)
    2fec:	afb60040 	sw	s6,64(sp)
    2ff0:	afb5003c 	sw	s5,60(sp)
    2ff4:	afb40038 	sw	s4,56(sp)
    2ff8:	afb30034 	sw	s3,52(sp)
    2ffc:	afb20030 	sw	s2,48(sp)
    3000:	afb1002c 	sw	s1,44(sp)
    3004:	afb00028 	sw	s0,40(sp)
    3008:	afa20020 	sw	v0,32(sp)
    300c:	8fa30020 	lw	v1,32(sp)
    3010:	3c022aaa 	lui	v0,0x2aaa
    3014:	3442aaab 	ori	v0,v0,0xaaab
    3018:	00620018 	mult	v1,v0
    301c:	00031fc3 	sra	v1,v1,0x1f
    3020:	8fa40020 	lw	a0,32(sp)
    3024:	00001010 	mfhi	v0
    3028:	0043a023 	subu	s4,v0,v1
    302c:	00141840 	sll	v1,s4,0x1
    3030:	001410c0 	sll	v0,s4,0x3
    3034:	00431023 	subu	v0,v0,v1
    3038:	00821023 	subu	v0,a0,v0
    303c:	1680000b 	bnez	s4,306c <temperature+0xa0>
    3040:	afa20018 	sw	v0,24(sp)
    3044:	14400003 	bnez	v0,3054 <temperature+0x88>
    3048:	00000000 	nop
    304c:	08000c36 	j	30d8 <temperature+0x10c>
    3050:	afa00014 	sw	zero,20(sp)
    3054:	8fa50018 	lw	a1,24(sp)
    3058:	00000000 	nop
    305c:	38a20005 	xori	v0,a1,0x5
    3060:	0002102b 	sltu	v0,zero,v0
    3064:	08000c35 	j	30d4 <temperature+0x108>
    3068:	24420001 	addiu	v0,v0,1
    306c:	24020005 	li	v0,5
    3070:	1682000d 	bne	s4,v0,30a8 <temperature+0xdc>
    3074:	00000000 	nop
    3078:	8fa60018 	lw	a2,24(sp)
    307c:	00000000 	nop
    3080:	14c00003 	bnez	a2,3090 <temperature+0xc4>
    3084:	24070003 	li	a3,3
    3088:	08000c36 	j	30d8 <temperature+0x10c>
    308c:	afa70014 	sw	a3,20(sp)
    3090:	8fa80018 	lw	t0,24(sp)
    3094:	00000000 	nop
    3098:	39020005 	xori	v0,t0,0x5
    309c:	0002102b 	sltu	v0,zero,v0
    30a0:	08000c35 	j	30d4 <temperature+0x108>
    30a4:	24420004 	addiu	v0,v0,4
    30a8:	8fa90018 	lw	t1,24(sp)
    30ac:	00000000 	nop
    30b0:	15200003 	bnez	t1,30c0 <temperature+0xf4>
    30b4:	240a0006 	li	t2,6
    30b8:	08000c36 	j	30d8 <temperature+0x10c>
    30bc:	afaa0014 	sw	t2,20(sp)
    30c0:	8fab0018 	lw	t3,24(sp)
    30c4:	00000000 	nop
    30c8:	39620005 	xori	v0,t3,0x5
    30cc:	0002102b 	sltu	v0,zero,v0
    30d0:	24420007 	addiu	v0,v0,7
    30d4:	afa20014 	sw	v0,20(sp)
    30d8:	8fac0018 	lw	t4,24(sp)
    30dc:	3c020005 	lui	v0,0x5
    30e0:	8c4b0564 	lw	t3,1380(v0)
    30e4:	259fffff 	addiu	ra,t4,-1
    30e8:	25960001 	addiu	s6,t4,1
    30ec:	26990001 	addiu	t9,s4,1
    30f0:	2695ffff 	addiu	s5,s4,-1
    30f4:	afa0001c 	sw	zero,28(sp)
    30f8:	8fae0014 	lw	t6,20(sp)
    30fc:	00000000 	nop
    3100:	2dc20009 	sltiu	v0,t6,9
    3104:	10400388 	beqz	v0,3f28 <temperature+0xf5c>
    3108:	3c030000 	lui	v1,0x0
    310c:	246373d4 	addiu	v1,v1,29652
    3110:	000e1080 	sll	v0,t6,0x2
    3114:	00431021 	addu	v0,v0,v1
    3118:	8fa4001c 	lw	a0,28(sp)
    311c:	8fa30018 	lw	v1,24(sp)
    3120:	8fa5001c 	lw	a1,28(sp)
    3124:	8c420000 	lw	v0,0(v0)
    3128:	00042080 	sll	a0,a0,0x2
    312c:	25780001 	addiu	t8,t3,1
    3130:	000bf080 	sll	s8,t3,0x2
    3134:	000bb940 	sll	s7,t3,0x5
    3138:	3c0f0005 	lui	t7,0x5
    313c:	00034840 	sll	t1,v1,0x1
    3140:	000340c0 	sll	t0,v1,0x3
    3144:	00059140 	sll	s2,a1,0x5
    3148:	00400008 	jr	v0
    314c:	afa40024 	sw	a0,36(sp)
    3150:	00162040 	sll	a0,s6,0x1
    3154:	001618c0 	sll	v1,s6,0x3
    3158:	01091023 	subu	v0,t0,t1
    315c:	00641823 	subu	v1,v1,a0
    3160:	00792821 	addu	a1,v1,t9
    3164:	00593021 	addu	a2,v0,t9
    3168:	00741821 	addu	v1,v1,s4
    316c:	00541021 	addu	v0,v0,s4
    3170:	25e405c8 	addiu	a0,t7,1480
    3174:	00021080 	sll	v0,v0,0x2
    3178:	00031880 	sll	v1,v1,0x2
    317c:	00052880 	sll	a1,a1,0x2
    3180:	00063080 	sll	a2,a2,0x2
    3184:	00c43021 	addu	a2,a2,a0
    3188:	00441021 	addu	v0,v0,a0
    318c:	00641821 	addu	v1,v1,a0
    3190:	00a42821 	addu	a1,a1,a0
    3194:	3c0b6666 	lui	t3,0x6666
    3198:	8ca40000 	lw	a0,0(a1)
    319c:	356b6667 	ori	t3,t3,0x6667
    31a0:	8cc50000 	lw	a1,0(a2)
    31a4:	8c420000 	lw	v0,0(v0)
    31a8:	8c630000 	lw	v1,0(v1)
    31ac:	030b0018 	mult	t8,t3
    31b0:	00023980 	sll	a3,v0,0x6
    31b4:	00034180 	sll	t0,v1,0x6
    31b8:	00044980 	sll	t1,a0,0x6
    31bc:	00055180 	sll	t2,a1,0x6
    31c0:	00021100 	sll	v0,v0,0x4
    31c4:	00031900 	sll	v1,v1,0x4
    31c8:	00042100 	sll	a0,a0,0x4
    31cc:	00052900 	sll	a1,a1,0x4
    31d0:	00e23823 	subu	a3,a3,v0
    31d4:	01034023 	subu	t0,t0,v1
    31d8:	01244823 	subu	t1,t1,a0
    31dc:	01455023 	subu	t2,t2,a1
    31e0:	8fac0024 	lw	t4,36(sp)
    31e4:	00071900 	sll	v1,a3,0x4
    31e8:	00082900 	sll	a1,t0,0x4
    31ec:	00091100 	sll	v0,t1,0x4
    31f0:	000a3100 	sll	a2,t2,0x4
    31f4:	01922021 	addu	a0,t4,s2
    31f8:	00491023 	subu	v0,v0,t1
    31fc:	00671823 	subu	v1,v1,a3
    3200:	00a82823 	subu	a1,a1,t0
    3204:	00ca3023 	subu	a2,a2,t2
    3208:	00863021 	addu	a2,a0,a2
    320c:	00831821 	addu	v1,a0,v1
    3210:	00852821 	addu	a1,a0,a1
    3214:	00822021 	addu	a0,a0,v0
    3218:	3c020005 	lui	v0,0x5
    321c:	2442b44c 	addiu	v0,v0,-19380
    3220:	00621821 	addu	v1,v1,v0
    3224:	3c020004 	lui	v0,0x4
    3228:	2442766c 	addiu	v0,v0,30316
    322c:	3c0e0005 	lui	t6,0x5
    3230:	25c8955c 	addiu	t0,t6,-27300
    3234:	00822021 	addu	a0,a0,v0
    3238:	8fa20020 	lw	v0,32(sp)
    323c:	00a82821 	addu	a1,a1,t0
    3240:	00c83021 	addu	a2,a2,t0
    3244:	03d73821 	addu	a3,s8,s7
    3248:	3c080005 	lui	t0,0x5
    324c:	00e23821 	addu	a3,a3,v0
    3250:	2509eee4 	addiu	t1,t0,-4380
    3254:	8c630010 	lw	v1,16(v1)
    3258:	8ca8000c 	lw	t0,12(a1)
    325c:	8c840000 	lw	a0,0(a0)
    3260:	8cc50004 	lw	a1,4(a2)
    3264:	00005810 	mfhi	t3
    3268:	08000ce3 	j	338c <temperature+0x3c0>
    326c:	00073880 	sll	a3,a3,0x2
    3270:	001f1040 	sll	v0,ra,0x1
    3274:	001f18c0 	sll	v1,ra,0x3
    3278:	00621823 	subu	v1,v1,v0
    327c:	01091023 	subu	v0,t0,t1
    3280:	00592821 	addu	a1,v0,t9
    3284:	00793021 	addu	a2,v1,t9
    3288:	00541021 	addu	v0,v0,s4
    328c:	00741821 	addu	v1,v1,s4
    3290:	25e405c8 	addiu	a0,t7,1480
    3294:	00031880 	sll	v1,v1,0x2
    3298:	00021080 	sll	v0,v0,0x2
    329c:	00052880 	sll	a1,a1,0x2
    32a0:	00063080 	sll	a2,a2,0x2
    32a4:	00c43021 	addu	a2,a2,a0
    32a8:	00641821 	addu	v1,v1,a0
    32ac:	00441021 	addu	v0,v0,a0
    32b0:	00a42821 	addu	a1,a1,a0
    32b4:	3c0b6666 	lui	t3,0x6666
    32b8:	8ca40000 	lw	a0,0(a1)
    32bc:	356b6667 	ori	t3,t3,0x6667
    32c0:	8cc50000 	lw	a1,0(a2)
    32c4:	8c630000 	lw	v1,0(v1)
    32c8:	8c420000 	lw	v0,0(v0)
    32cc:	030b0018 	mult	t8,t3
    32d0:	00033980 	sll	a3,v1,0x6
    32d4:	00024180 	sll	t0,v0,0x6
    32d8:	00044980 	sll	t1,a0,0x6
    32dc:	00055180 	sll	t2,a1,0x6
    32e0:	00031900 	sll	v1,v1,0x4
    32e4:	00021100 	sll	v0,v0,0x4
    32e8:	00042100 	sll	a0,a0,0x4
    32ec:	00052900 	sll	a1,a1,0x4
    32f0:	01024023 	subu	t0,t0,v0
    32f4:	01244823 	subu	t1,t1,a0
    32f8:	00e33823 	subu	a3,a3,v1
    32fc:	01455023 	subu	t2,t2,a1
    3300:	8fac0024 	lw	t4,36(sp)
    3304:	00071900 	sll	v1,a3,0x4
    3308:	00082900 	sll	a1,t0,0x4
    330c:	00091100 	sll	v0,t1,0x4
    3310:	000a3100 	sll	a2,t2,0x4
    3314:	01922021 	addu	a0,t4,s2
    3318:	00491023 	subu	v0,v0,t1
    331c:	00671823 	subu	v1,v1,a3
    3320:	00a82823 	subu	a1,a1,t0
    3324:	00ca3023 	subu	a2,a2,t2
    3328:	00863021 	addu	a2,a0,a2
    332c:	00831821 	addu	v1,a0,v1
    3330:	00852821 	addu	a1,a0,a1
    3334:	00822021 	addu	a0,a0,v0
    3338:	3c020005 	lui	v0,0x5
    333c:	2442b44c 	addiu	v0,v0,-19380
    3340:	00a22821 	addu	a1,a1,v0
    3344:	3c020004 	lui	v0,0x4
    3348:	2442766c 	addiu	v0,v0,30316
    334c:	3c0e0005 	lui	t6,0x5
    3350:	25c8955c 	addiu	t0,t6,-27300
    3354:	00c23021 	addu	a2,a2,v0
    3358:	8fa20020 	lw	v0,32(sp)
    335c:	00882021 	addu	a0,a0,t0
    3360:	00681821 	addu	v1,v1,t0
    3364:	03d73821 	addu	a3,s8,s7
    3368:	3c080005 	lui	t0,0x5
    336c:	00e23821 	addu	a3,a3,v0
    3370:	2509eee4 	addiu	t1,t0,-4380
    3374:	8c630014 	lw	v1,20(v1)
    3378:	8ca80010 	lw	t0,16(a1)
    337c:	8c84001c 	lw	a0,28(a0)
    3380:	8cc50008 	lw	a1,8(a2)
    3384:	00005810 	mfhi	t3
    3388:	00073880 	sll	a3,a3,0x2
    338c:	001817c3 	sra	v0,t8,0x1f
    3390:	000b58c3 	sra	t3,t3,0x3
    3394:	00e93821 	addu	a3,a3,t1
    3398:	01625823 	subu	t3,t3,v0
    339c:	00852021 	addu	a0,a0,a1
    33a0:	00681821 	addu	v1,v1,t0
    33a4:	8ce60000 	lw	a2,0(a3)
    33a8:	000b2900 	sll	a1,t3,0x4
    33ac:	000b1080 	sll	v0,t3,0x2
    33b0:	00641821 	addu	v1,v1,a0
    33b4:	00451021 	addu	v0,v0,a1
    33b8:	00661821 	addu	v1,v1,a2
    33bc:	03025823 	subu	t3,t8,v0
    33c0:	08000fca 	j	3f28 <temperature+0xf5c>
    33c4:	ace30000 	sw	v1,0(a3)
    33c8:	001f2040 	sll	a0,ra,0x1
    33cc:	001f10c0 	sll	v0,ra,0x3
    33d0:	3c0e6666 	lui	t6,0x6666
    33d4:	00441023 	subu	v0,v0,a0
    33d8:	35ce6667 	ori	t6,t6,0x6667
    33dc:	01092023 	subu	a0,t0,t1
    33e0:	00162840 	sll	a1,s6,0x1
    33e4:	00943021 	addu	a2,a0,s4
    33e8:	001618c0 	sll	v1,s6,0x3
    33ec:	030e0018 	mult	t8,t6
    33f0:	00651823 	subu	v1,v1,a1
    33f4:	00594021 	addu	t0,v0,t9
    33f8:	25e505c8 	addiu	a1,t7,1480
    33fc:	00541021 	addu	v0,v0,s4
    3400:	00063080 	sll	a2,a2,0x2
    3404:	00992021 	addu	a0,a0,t9
    3408:	00743821 	addu	a3,v1,s4
    340c:	00c53021 	addu	a2,a2,a1
    3410:	00021080 	sll	v0,v0,0x2
    3414:	00791821 	addu	v1,v1,t9
    3418:	00042080 	sll	a0,a0,0x2
    341c:	00451021 	addu	v0,v0,a1
    3420:	8cc60000 	lw	a2,0(a2)
    3424:	00852021 	addu	a0,a0,a1
    3428:	00084080 	sll	t0,t0,0x2
    342c:	00073880 	sll	a3,a3,0x2
    3430:	00031880 	sll	v1,v1,0x2
    3434:	01054021 	addu	t0,t0,a1
    3438:	00e53821 	addu	a3,a3,a1
    343c:	00651821 	addu	v1,v1,a1
    3440:	8c420000 	lw	v0,0(v0)
    3444:	8c840000 	lw	a0,0(a0)
    3448:	8d080000 	lw	t0,0(t0)
    344c:	8ce70000 	lw	a3,0(a3)
    3450:	8c630000 	lw	v1,0(v1)
    3454:	00065980 	sll	t3,a2,0x6
    3458:	00063100 	sll	a2,a2,0x4
    345c:	01665823 	subu	t3,t3,a2
    3460:	00025180 	sll	t2,v0,0x6
    3464:	00043180 	sll	a2,a0,0x6
    3468:	00021100 	sll	v0,v0,0x4
    346c:	00042100 	sll	a0,a0,0x4
    3470:	01425023 	subu	t2,t2,v0
    3474:	00c43023 	subu	a2,a2,a0
    3478:	00086180 	sll	t4,t0,0x6
    347c:	00076980 	sll	t5,a3,0x6
    3480:	00084100 	sll	t0,t0,0x4
    3484:	00073900 	sll	a3,a3,0x4
    3488:	00034980 	sll	t1,v1,0x6
    348c:	8fa40024 	lw	a0,36(sp)
    3490:	00031900 	sll	v1,v1,0x4
    3494:	01234823 	subu	t1,t1,v1
    3498:	01886023 	subu	t4,t4,t0
    349c:	01a76823 	subu	t5,t5,a3
    34a0:	000a1900 	sll	v1,t2,0x4
    34a4:	00921021 	addu	v0,a0,s2
    34a8:	000b2900 	sll	a1,t3,0x4
    34ac:	006a1823 	subu	v1,v1,t2
    34b0:	00092100 	sll	a0,t1,0x4
    34b4:	00065100 	sll	t2,a2,0x4
    34b8:	000c3900 	sll	a3,t4,0x4
    34bc:	000d4100 	sll	t0,t5,0x4
    34c0:	01465023 	subu	t2,t2,a2
    34c4:	00ab2823 	subu	a1,a1,t3
    34c8:	00892023 	subu	a0,a0,t1
    34cc:	00ec3823 	subu	a3,a3,t4
    34d0:	3c090005 	lui	t1,0x5
    34d4:	010d4023 	subu	t0,t0,t5
    34d8:	2526955c 	addiu	a2,t1,-27300
    34dc:	00431821 	addu	v1,v0,v1
    34e0:	00452821 	addu	a1,v0,a1
    34e4:	00473821 	addu	a3,v0,a3
    34e8:	00484021 	addu	t0,v0,t0
    34ec:	00442021 	addu	a0,v0,a0
    34f0:	004a1021 	addu	v0,v0,t2
    34f4:	8faa0020 	lw	t2,32(sp)
    34f8:	00a62821 	addu	a1,a1,a2
    34fc:	00e63821 	addu	a3,a3,a2
    3500:	00461021 	addu	v0,v0,a2
    3504:	00661821 	addu	v1,v1,a2
    3508:	01064021 	addu	t0,t0,a2
    350c:	00862021 	addu	a0,a0,a2
    3510:	00007010 	mfhi	t6
    3514:	03d74821 	addu	t1,s8,s7
    3518:	012a4821 	addu	t1,t1,t2
    351c:	3c0b0005 	lui	t3,0x5
    3520:	8caa0010 	lw	t2,16(a1)
    3524:	000e70c3 	sra	t6,t6,0x3
    3528:	8ce50018 	lw	a1,24(a3)
    352c:	8c63000c 	lw	v1,12(v1)
    3530:	8c47001c 	lw	a3,28(v0)
    3534:	8d080014 	lw	t0,20(t0)
    3538:	001817c3 	sra	v0,t8,0x1f
    353c:	8c840020 	lw	a0,32(a0)
    3540:	2566eee4 	addiu	a2,t3,-4380
    3544:	00094880 	sll	t1,t1,0x2
    3548:	08000f23 	j	3c8c <temperature+0xcc0>
    354c:	01c25823 	subu	t3,t6,v0
    3550:	00162040 	sll	a0,s6,0x1
    3554:	001618c0 	sll	v1,s6,0x3
    3558:	01091023 	subu	v0,t0,t1
    355c:	00641823 	subu	v1,v1,a0
    3560:	00742821 	addu	a1,v1,s4
    3564:	00543021 	addu	a2,v0,s4
    3568:	00751821 	addu	v1,v1,s5
    356c:	00551021 	addu	v0,v0,s5
    3570:	25e405c8 	addiu	a0,t7,1480
    3574:	00021080 	sll	v0,v0,0x2
    3578:	00031880 	sll	v1,v1,0x2
    357c:	00052880 	sll	a1,a1,0x2
    3580:	00063080 	sll	a2,a2,0x2
    3584:	00c43021 	addu	a2,a2,a0
    3588:	00441021 	addu	v0,v0,a0
    358c:	00641821 	addu	v1,v1,a0
    3590:	00a42821 	addu	a1,a1,a0
    3594:	3c0b6666 	lui	t3,0x6666
    3598:	8ca40000 	lw	a0,0(a1)
    359c:	356b6667 	ori	t3,t3,0x6667
    35a0:	8cc50000 	lw	a1,0(a2)
    35a4:	8c420000 	lw	v0,0(v0)
    35a8:	8c630000 	lw	v1,0(v1)
    35ac:	030b0018 	mult	t8,t3
    35b0:	00023980 	sll	a3,v0,0x6
    35b4:	00034180 	sll	t0,v1,0x6
    35b8:	00044980 	sll	t1,a0,0x6
    35bc:	00055180 	sll	t2,a1,0x6
    35c0:	00021100 	sll	v0,v0,0x4
    35c4:	00031900 	sll	v1,v1,0x4
    35c8:	00042100 	sll	a0,a0,0x4
    35cc:	00052900 	sll	a1,a1,0x4
    35d0:	00e23823 	subu	a3,a3,v0
    35d4:	01034023 	subu	t0,t0,v1
    35d8:	01244823 	subu	t1,t1,a0
    35dc:	01455023 	subu	t2,t2,a1
    35e0:	8fac0024 	lw	t4,36(sp)
    35e4:	00071900 	sll	v1,a3,0x4
    35e8:	00082900 	sll	a1,t0,0x4
    35ec:	00091100 	sll	v0,t1,0x4
    35f0:	000a3100 	sll	a2,t2,0x4
    35f4:	01922021 	addu	a0,t4,s2
    35f8:	00491023 	subu	v0,v0,t1
    35fc:	00671823 	subu	v1,v1,a3
    3600:	00a82823 	subu	a1,a1,t0
    3604:	00ca3023 	subu	a2,a2,t2
    3608:	00863021 	addu	a2,a0,a2
    360c:	00831821 	addu	v1,a0,v1
    3610:	00852821 	addu	a1,a0,a1
    3614:	00822021 	addu	a0,a0,v0
    3618:	3c020004 	lui	v0,0x4
    361c:	2442766c 	addiu	v0,v0,30316
    3620:	00a22821 	addu	a1,a1,v0
    3624:	3c020005 	lui	v0,0x5
    3628:	2442b44c 	addiu	v0,v0,-19380
    362c:	3c0e0005 	lui	t6,0x5
    3630:	25c8955c 	addiu	t0,t6,-27300
    3634:	00c23021 	addu	a2,a2,v0
    3638:	8fa20020 	lw	v0,32(sp)
    363c:	00882021 	addu	a0,a0,t0
    3640:	00681821 	addu	v1,v1,t0
    3644:	03d73821 	addu	a3,s8,s7
    3648:	3c080005 	lui	t0,0x5
    364c:	00e23821 	addu	a3,a3,v0
    3650:	2509eee4 	addiu	t1,t0,-4380
    3654:	8c63001c 	lw	v1,28(v1)
    3658:	8ca80018 	lw	t0,24(a1)
    365c:	8c84000c 	lw	a0,12(a0)
    3660:	8cc50010 	lw	a1,16(a2)
    3664:	00005810 	mfhi	t3
    3668:	08000ce3 	j	338c <temperature+0x3c0>
    366c:	00073880 	sll	a3,a3,0x2
    3670:	001f1040 	sll	v0,ra,0x1
    3674:	001f18c0 	sll	v1,ra,0x3
    3678:	00621823 	subu	v1,v1,v0
    367c:	01091023 	subu	v0,t0,t1
    3680:	00542821 	addu	a1,v0,s4
    3684:	00743021 	addu	a2,v1,s4
    3688:	00551021 	addu	v0,v0,s5
    368c:	00751821 	addu	v1,v1,s5
    3690:	25e405c8 	addiu	a0,t7,1480
    3694:	00031880 	sll	v1,v1,0x2
    3698:	00021080 	sll	v0,v0,0x2
    369c:	00052880 	sll	a1,a1,0x2
    36a0:	00063080 	sll	a2,a2,0x2
    36a4:	00c43021 	addu	a2,a2,a0
    36a8:	00641821 	addu	v1,v1,a0
    36ac:	00441021 	addu	v0,v0,a0
    36b0:	00a42821 	addu	a1,a1,a0
    36b4:	3c0b6666 	lui	t3,0x6666
    36b8:	8ca40000 	lw	a0,0(a1)
    36bc:	356b6667 	ori	t3,t3,0x6667
    36c0:	8cc50000 	lw	a1,0(a2)
    36c4:	8c630000 	lw	v1,0(v1)
    36c8:	8c420000 	lw	v0,0(v0)
    36cc:	030b0018 	mult	t8,t3
    36d0:	00033980 	sll	a3,v1,0x6
    36d4:	00024180 	sll	t0,v0,0x6
    36d8:	00044980 	sll	t1,a0,0x6
    36dc:	00055180 	sll	t2,a1,0x6
    36e0:	00031900 	sll	v1,v1,0x4
    36e4:	00021100 	sll	v0,v0,0x4
    36e8:	00042100 	sll	a0,a0,0x4
    36ec:	00052900 	sll	a1,a1,0x4
    36f0:	01024023 	subu	t0,t0,v0
    36f4:	01244823 	subu	t1,t1,a0
    36f8:	00e33823 	subu	a3,a3,v1
    36fc:	01455023 	subu	t2,t2,a1
    3700:	8fac0024 	lw	t4,36(sp)
    3704:	00071900 	sll	v1,a3,0x4
    3708:	00082900 	sll	a1,t0,0x4
    370c:	00091100 	sll	v0,t1,0x4
    3710:	000a3100 	sll	a2,t2,0x4
    3714:	01922021 	addu	a0,t4,s2
    3718:	00491023 	subu	v0,v0,t1
    371c:	00671823 	subu	v1,v1,a3
    3720:	00a82823 	subu	a1,a1,t0
    3724:	00ca3023 	subu	a2,a2,t2
    3728:	00863021 	addu	a2,a0,a2
    372c:	00831821 	addu	v1,a0,v1
    3730:	00852821 	addu	a1,a0,a1
    3734:	00822021 	addu	a0,a0,v0
    3738:	3c020004 	lui	v0,0x4
    373c:	2442766c 	addiu	v0,v0,30316
    3740:	00621821 	addu	v1,v1,v0
    3744:	3c020005 	lui	v0,0x5
    3748:	2442b44c 	addiu	v0,v0,-19380
    374c:	3c0e0005 	lui	t6,0x5
    3750:	25c8955c 	addiu	t0,t6,-27300
    3754:	00822021 	addu	a0,a0,v0
    3758:	8fa20020 	lw	v0,32(sp)
    375c:	00a82821 	addu	a1,a1,t0
    3760:	00c83021 	addu	a2,a2,t0
    3764:	03d73821 	addu	a3,s8,s7
    3768:	3c080005 	lui	t0,0x5
    376c:	00e23821 	addu	a3,a3,v0
    3770:	2509eee4 	addiu	t1,t0,-4380
    3774:	8c630000 	lw	v1,0(v1)
    3778:	8ca80004 	lw	t0,4(a1)
    377c:	8c840010 	lw	a0,16(a0)
    3780:	8cc5000c 	lw	a1,12(a2)
    3784:	00005810 	mfhi	t3
    3788:	08000ce3 	j	338c <temperature+0x3c0>
    378c:	00073880 	sll	a3,a3,0x2
    3790:	001f2040 	sll	a0,ra,0x1
    3794:	00162840 	sll	a1,s6,0x1
    3798:	001f10c0 	sll	v0,ra,0x3
    379c:	001618c0 	sll	v1,s6,0x3
    37a0:	00441023 	subu	v0,v0,a0
    37a4:	00651823 	subu	v1,v1,a1
    37a8:	01092023 	subu	a0,t0,t1
    37ac:	00753821 	addu	a3,v1,s5
    37b0:	00544021 	addu	t0,v0,s4
    37b4:	3c0d6666 	lui	t5,0x6666
    37b8:	00551021 	addu	v0,v0,s5
    37bc:	25e505c8 	addiu	a1,t7,1480
    37c0:	35ad6667 	ori	t5,t5,0x6667
    37c4:	00953021 	addu	a2,a0,s5
    37c8:	00021080 	sll	v0,v0,0x2
    37cc:	00942021 	addu	a0,a0,s4
    37d0:	00084080 	sll	t0,t0,0x2
    37d4:	00073880 	sll	a3,a3,0x2
    37d8:	00741821 	addu	v1,v1,s4
    37dc:	00451021 	addu	v0,v0,a1
    37e0:	01054021 	addu	t0,t0,a1
    37e4:	00e53821 	addu	a3,a3,a1
    37e8:	030d0018 	mult	t8,t5
    37ec:	00063080 	sll	a2,a2,0x2
    37f0:	00042080 	sll	a0,a0,0x2
    37f4:	00031880 	sll	v1,v1,0x2
    37f8:	00c53021 	addu	a2,a2,a1
    37fc:	00651821 	addu	v1,v1,a1
    3800:	8c420000 	lw	v0,0(v0)
    3804:	8d080000 	lw	t0,0(t0)
    3808:	8ce70000 	lw	a3,0(a3)
    380c:	00852021 	addu	a0,a0,a1
    3810:	8cc60000 	lw	a2,0(a2)
    3814:	8c840000 	lw	a0,0(a0)
    3818:	8c630000 	lw	v1,0(v1)
    381c:	00022980 	sll	a1,v0,0x6
    3820:	00085980 	sll	t3,t0,0x6
    3824:	00076180 	sll	t4,a3,0x6
    3828:	00021100 	sll	v0,v0,0x4
    382c:	00084100 	sll	t0,t0,0x4
    3830:	00073900 	sll	a3,a3,0x4
    3834:	00a22823 	subu	a1,a1,v0
    3838:	01876023 	subu	t4,t4,a3
    383c:	01685823 	subu	t3,t3,t0
    3840:	00065180 	sll	t2,a2,0x6
    3844:	00041180 	sll	v0,a0,0x6
    3848:	00063100 	sll	a2,a2,0x4
    384c:	00033980 	sll	a3,v1,0x6
    3850:	00042100 	sll	a0,a0,0x4
    3854:	00031900 	sll	v1,v1,0x4
    3858:	00441023 	subu	v0,v0,a0
    385c:	00e33823 	subu	a3,a3,v1
    3860:	01465023 	subu	t2,t2,a2
    3864:	00051900 	sll	v1,a1,0x4
    3868:	000b4100 	sll	t0,t3,0x4
    386c:	8fae0024 	lw	t6,36(sp)
    3870:	000a3100 	sll	a2,t2,0x4
    3874:	00651823 	subu	v1,v1,a1
    3878:	010b4023 	subu	t0,t0,t3
    387c:	00072900 	sll	a1,a3,0x4
    3880:	00025900 	sll	t3,v0,0x4
    3884:	01d22021 	addu	a0,t6,s2
    3888:	01625823 	subu	t3,t3,v0
    388c:	000c4900 	sll	t1,t4,0x4
    3890:	00ca3023 	subu	a2,a2,t2
    3894:	00a72823 	subu	a1,a1,a3
    3898:	3c020005 	lui	v0,0x5
    389c:	3c0a0005 	lui	t2,0x5
    38a0:	254ab44c 	addiu	t2,t2,-19380
    38a4:	012c4823 	subu	t1,t1,t4
    38a8:	00884021 	addu	t0,a0,t0
    38ac:	244c955c 	addiu	t4,v0,-27300
    38b0:	00852821 	addu	a1,a0,a1
    38b4:	3c020004 	lui	v0,0x4
    38b8:	010a4021 	addu	t0,t0,t2
    38bc:	00831821 	addu	v1,a0,v1
    38c0:	00863021 	addu	a2,a0,a2
    38c4:	00894821 	addu	t1,a0,t1
    38c8:	2442766c 	addiu	v0,v0,30316
    38cc:	00aa2821 	addu	a1,a1,t2
    38d0:	8faa0020 	lw	t2,32(sp)
    38d4:	00c23021 	addu	a2,a2,v0
    38d8:	008b2021 	addu	a0,a0,t3
    38dc:	03d73821 	addu	a3,s8,s7
    38e0:	012c4821 	addu	t1,t1,t4
    38e4:	006c1821 	addu	v1,v1,t4
    38e8:	00ea3821 	addu	a3,a3,t2
    38ec:	3c0b0005 	lui	t3,0x5
    38f0:	8cca001c 	lw	t2,28(a2)
    38f4:	8c630020 	lw	v1,32(v1)
    38f8:	8d060014 	lw	a2,20(t0)
    38fc:	008c2021 	addu	a0,a0,t4
    3900:	8d290018 	lw	t1,24(t1)
    3904:	2568eee4 	addiu	t0,t3,-4380
    3908:	8c840010 	lw	a0,16(a0)
    390c:	8ca5000c 	lw	a1,12(a1)
    3910:	00006810 	mfhi	t5
    3914:	00073880 	sll	a3,a3,0x2
    3918:	001817c3 	sra	v0,t8,0x1f
    391c:	000d68c3 	sra	t5,t5,0x3
    3920:	00e83821 	addu	a3,a3,t0
    3924:	006a1821 	addu	v1,v1,t2
    3928:	00c93021 	addu	a2,a2,t1
    392c:	01a25823 	subu	t3,t5,v0
    3930:	00641821 	addu	v1,v1,a0
    3934:	00c53021 	addu	a2,a2,a1
    3938:	8ce50000 	lw	a1,0(a3)
    393c:	000b2100 	sll	a0,t3,0x4
    3940:	000b1080 	sll	v0,t3,0x2
    3944:	00661821 	addu	v1,v1,a2
    3948:	00441021 	addu	v0,v0,a0
    394c:	08000cef 	j	33bc <temperature+0x3f0>
    3950:	00651821 	addu	v1,v1,a1
    3954:	00162040 	sll	a0,s6,0x1
    3958:	001610c0 	sll	v0,s6,0x3
    395c:	01091823 	subu	v1,t0,t1
    3960:	00441023 	subu	v0,v0,a0
    3964:	3c0e6666 	lui	t6,0x6666
    3968:	35ce6667 	ori	t6,t6,0x6667
    396c:	00752821 	addu	a1,v1,s5
    3970:	00553021 	addu	a2,v0,s5
    3974:	00543821 	addu	a3,v0,s4
    3978:	25e405c8 	addiu	a0,t7,1480
    397c:	00744021 	addu	t0,v1,s4
    3980:	030e0018 	mult	t8,t6
    3984:	00052880 	sll	a1,a1,0x2
    3988:	00063080 	sll	a2,a2,0x2
    398c:	00073880 	sll	a3,a3,0x2
    3990:	00591021 	addu	v0,v0,t9
    3994:	00791821 	addu	v1,v1,t9
    3998:	00a42821 	addu	a1,a1,a0
    399c:	00c43021 	addu	a2,a2,a0
    39a0:	00e43821 	addu	a3,a3,a0
    39a4:	00084080 	sll	t0,t0,0x2
    39a8:	00031880 	sll	v1,v1,0x2
    39ac:	00021080 	sll	v0,v0,0x2
    39b0:	01044021 	addu	t0,t0,a0
    39b4:	00441021 	addu	v0,v0,a0
    39b8:	8ca50000 	lw	a1,0(a1)
    39bc:	8cc60000 	lw	a2,0(a2)
    39c0:	8ce70000 	lw	a3,0(a3)
    39c4:	00641821 	addu	v1,v1,a0
    39c8:	8d080000 	lw	t0,0(t0)
    39cc:	8c440000 	lw	a0,0(v0)
    39d0:	8c630000 	lw	v1,0(v1)
    39d4:	00055180 	sll	t2,a1,0x6
    39d8:	00065980 	sll	t3,a2,0x6
    39dc:	00076180 	sll	t4,a3,0x6
    39e0:	00052900 	sll	a1,a1,0x4
    39e4:	00063100 	sll	a2,a2,0x4
    39e8:	00073900 	sll	a3,a3,0x4
    39ec:	01455023 	subu	t2,t2,a1
    39f0:	01665823 	subu	t3,t3,a2
    39f4:	01876023 	subu	t4,t4,a3
    39f8:	00086980 	sll	t5,t0,0x6
    39fc:	00031180 	sll	v0,v1,0x6
    3a00:	00084100 	sll	t0,t0,0x4
    3a04:	00043180 	sll	a2,a0,0x6
    3a08:	00031900 	sll	v1,v1,0x4
    3a0c:	00042100 	sll	a0,a0,0x4
    3a10:	8fa50024 	lw	a1,36(sp)
    3a14:	00431023 	subu	v0,v0,v1
    3a18:	00c43023 	subu	a2,a2,a0
    3a1c:	01a86823 	subu	t5,t5,t0
    3a20:	000c4100 	sll	t0,t4,0x4
    3a24:	00b22021 	addu	a0,a1,s2
    3a28:	000a1900 	sll	v1,t2,0x4
    3a2c:	000b3900 	sll	a3,t3,0x4
    3a30:	010c4023 	subu	t0,t0,t4
    3a34:	00062900 	sll	a1,a2,0x4
    3a38:	00026100 	sll	t4,v0,0x4
    3a3c:	000d4900 	sll	t1,t5,0x4
    3a40:	006a1823 	subu	v1,v1,t2
    3a44:	00eb3823 	subu	a3,a3,t3
    3a48:	01826023 	subu	t4,t4,v0
    3a4c:	00a62823 	subu	a1,a1,a2
    3a50:	012d4823 	subu	t1,t1,t5
    3a54:	3c0a0005 	lui	t2,0x5
    3a58:	254ab44c 	addiu	t2,t2,-19380
    3a5c:	3c060005 	lui	a2,0x5
    3a60:	00831821 	addu	v1,a0,v1
    3a64:	00873821 	addu	a3,a0,a3
    3a68:	00884021 	addu	t0,a0,t0
    3a6c:	00894821 	addu	t1,a0,t1
    3a70:	00852821 	addu	a1,a0,a1
    3a74:	3c020004 	lui	v0,0x4
    3a78:	008c2021 	addu	a0,a0,t4
    3a7c:	24cb955c 	addiu	t3,a2,-27300
    3a80:	2442766c 	addiu	v0,v0,30316
    3a84:	006a1821 	addu	v1,v1,t2
    3a88:	008a2021 	addu	a0,a0,t2
    3a8c:	8faa0020 	lw	t2,32(sp)
    3a90:	01024021 	addu	t0,t0,v0
    3a94:	00eb3821 	addu	a3,a3,t3
    3a98:	012b4821 	addu	t1,t1,t3
    3a9c:	03d73021 	addu	a2,s8,s7
    3aa0:	00ab2821 	addu	a1,a1,t3
    3aa4:	00ca3021 	addu	a2,a2,t2
    3aa8:	3c0b0005 	lui	t3,0x5
    3aac:	8cea0018 	lw	t2,24(a3)
    3ab0:	00007010 	mfhi	t6
    3ab4:	8d07000c 	lw	a3,12(t0)
    3ab8:	8c63001c 	lw	v1,28(v1)
    3abc:	8d290010 	lw	t1,16(t1)
    3ac0:	2568eee4 	addiu	t0,t3,-4380
    3ac4:	8c840004 	lw	a0,4(a0)
    3ac8:	8ca50000 	lw	a1,0(a1)
    3acc:	001817c3 	sra	v0,t8,0x1f
    3ad0:	00063080 	sll	a2,a2,0x2
    3ad4:	000e70c3 	sra	t6,t6,0x3
    3ad8:	01c25823 	subu	t3,t6,v0
    3adc:	00c83021 	addu	a2,a2,t0
    3ae0:	006a1821 	addu	v1,v1,t2
    3ae4:	00e93821 	addu	a3,a3,t1
    3ae8:	00641821 	addu	v1,v1,a0
    3aec:	00e53821 	addu	a3,a3,a1
    3af0:	000b2100 	sll	a0,t3,0x4
    3af4:	8cc50000 	lw	a1,0(a2)
    3af8:	000b1080 	sll	v0,t3,0x2
    3afc:	00671821 	addu	v1,v1,a3
    3b00:	00441021 	addu	v0,v0,a0
    3b04:	00651821 	addu	v1,v1,a1
    3b08:	03025823 	subu	t3,t8,v0
    3b0c:	08000fca 	j	3f28 <temperature+0xf5c>
    3b10:	acc30000 	sw	v1,0(a2)
    3b14:	3c0d6666 	lui	t5,0x6666
    3b18:	001f1840 	sll	v1,ra,0x1
    3b1c:	35ad6667 	ori	t5,t5,0x6667
    3b20:	001f10c0 	sll	v0,ra,0x3
    3b24:	00431023 	subu	v0,v0,v1
    3b28:	030d0018 	mult	t8,t5
    3b2c:	01091823 	subu	v1,t0,t1
    3b30:	00552821 	addu	a1,v0,s5
    3b34:	00753021 	addu	a2,v1,s5
    3b38:	25e405c8 	addiu	a0,t7,1480
    3b3c:	00544021 	addu	t0,v0,s4
    3b40:	00743821 	addu	a3,v1,s4
    3b44:	00052880 	sll	a1,a1,0x2
    3b48:	00063080 	sll	a2,a2,0x2
    3b4c:	00791821 	addu	v1,v1,t9
    3b50:	00591021 	addu	v0,v0,t9
    3b54:	00a42821 	addu	a1,a1,a0
    3b58:	00c43021 	addu	a2,a2,a0
    3b5c:	00073880 	sll	a3,a3,0x2
    3b60:	00084080 	sll	t0,t0,0x2
    3b64:	00021080 	sll	v0,v0,0x2
    3b68:	00031880 	sll	v1,v1,0x2
    3b6c:	00e43821 	addu	a3,a3,a0
    3b70:	01044021 	addu	t0,t0,a0
    3b74:	00641821 	addu	v1,v1,a0
    3b78:	8ca50000 	lw	a1,0(a1)
    3b7c:	8cc60000 	lw	a2,0(a2)
    3b80:	00441021 	addu	v0,v0,a0
    3b84:	8ce70000 	lw	a3,0(a3)
    3b88:	8d080000 	lw	t0,0(t0)
    3b8c:	8c420000 	lw	v0,0(v0)
    3b90:	8c630000 	lw	v1,0(v1)
    3b94:	00052180 	sll	a0,a1,0x6
    3b98:	00065180 	sll	t2,a2,0x6
    3b9c:	00052900 	sll	a1,a1,0x4
    3ba0:	00063100 	sll	a2,a2,0x4
    3ba4:	00852023 	subu	a0,a0,a1
    3ba8:	01465023 	subu	t2,t2,a2
    3bac:	00075980 	sll	t3,a3,0x6
    3bb0:	00086180 	sll	t4,t0,0x6
    3bb4:	00073900 	sll	a3,a3,0x4
    3bb8:	00084100 	sll	t0,t0,0x4
    3bbc:	00023180 	sll	a2,v0,0x6
    3bc0:	00034980 	sll	t1,v1,0x6
    3bc4:	00021100 	sll	v0,v0,0x4
    3bc8:	00031900 	sll	v1,v1,0x4
    3bcc:	00c23023 	subu	a2,a2,v0
    3bd0:	01234823 	subu	t1,t1,v1
    3bd4:	01675823 	subu	t3,t3,a3
    3bd8:	01886023 	subu	t4,t4,t0
    3bdc:	00041900 	sll	v1,a0,0x4
    3be0:	000a2900 	sll	a1,t2,0x4
    3be4:	8fae0024 	lw	t6,36(sp)
    3be8:	000b3900 	sll	a3,t3,0x4
    3bec:	00641823 	subu	v1,v1,a0
    3bf0:	00aa2823 	subu	a1,a1,t2
    3bf4:	00092100 	sll	a0,t1,0x4
    3bf8:	00065100 	sll	t2,a2,0x4
    3bfc:	000c4100 	sll	t0,t4,0x4
    3c00:	01d21021 	addu	v0,t6,s2
    3c04:	01465023 	subu	t2,t2,a2
    3c08:	00eb3823 	subu	a3,a3,t3
    3c0c:	00892023 	subu	a0,a0,t1
    3c10:	010c4023 	subu	t0,t0,t4
    3c14:	3c090005 	lui	t1,0x5
    3c18:	2526955c 	addiu	a2,t1,-27300
    3c1c:	00431821 	addu	v1,v0,v1
    3c20:	00452821 	addu	a1,v0,a1
    3c24:	00473821 	addu	a3,v0,a3
    3c28:	00484021 	addu	t0,v0,t0
    3c2c:	00442021 	addu	a0,v0,a0
    3c30:	004a1021 	addu	v0,v0,t2
    3c34:	8faa0020 	lw	t2,32(sp)
    3c38:	00a62821 	addu	a1,a1,a2
    3c3c:	00e63821 	addu	a3,a3,a2
    3c40:	00461021 	addu	v0,v0,a2
    3c44:	00661821 	addu	v1,v1,a2
    3c48:	01064021 	addu	t0,t0,a2
    3c4c:	00862021 	addu	a0,a0,a2
    3c50:	00006810 	mfhi	t5
    3c54:	03d74821 	addu	t1,s8,s7
    3c58:	012a4821 	addu	t1,t1,t2
    3c5c:	3c0b0005 	lui	t3,0x5
    3c60:	8caa0004 	lw	t2,4(a1)
    3c64:	000d68c3 	sra	t5,t5,0x3
    3c68:	8ce50010 	lw	a1,16(a3)
    3c6c:	8c630000 	lw	v1,0(v1)
    3c70:	8c470018 	lw	a3,24(v0)
    3c74:	8d08000c 	lw	t0,12(t0)
    3c78:	001817c3 	sra	v0,t8,0x1f
    3c7c:	8c84001c 	lw	a0,28(a0)
    3c80:	2566eee4 	addiu	a2,t3,-4380
    3c84:	00094880 	sll	t1,t1,0x2
    3c88:	01a25823 	subu	t3,t5,v0
    3c8c:	01264821 	addu	t1,t1,a2
    3c90:	006a1821 	addu	v1,v1,t2
    3c94:	00a82821 	addu	a1,a1,t0
    3c98:	00a42821 	addu	a1,a1,a0
    3c9c:	8d260000 	lw	a2,0(t1)
    3ca0:	000b2100 	sll	a0,t3,0x4
    3ca4:	000b1080 	sll	v0,t3,0x2
    3ca8:	00671821 	addu	v1,v1,a3
    3cac:	00651821 	addu	v1,v1,a1
    3cb0:	00441021 	addu	v0,v0,a0
    3cb4:	00661821 	addu	v1,v1,a2
    3cb8:	03025823 	subu	t3,t8,v0
    3cbc:	08000fca 	j	3f28 <temperature+0xf5c>
    3cc0:	ad230000 	sw	v1,0(t1)
    3cc4:	001f1040 	sll	v0,ra,0x1
    3cc8:	001f18c0 	sll	v1,ra,0x3
    3ccc:	01093823 	subu	a3,t0,t1
    3cd0:	00621823 	subu	v1,v1,v0
    3cd4:	00752821 	addu	a1,v1,s5
    3cd8:	00161040 	sll	v0,s6,0x1
    3cdc:	00f53021 	addu	a2,a3,s5
    3ce0:	001620c0 	sll	a0,s6,0x3
    3ce4:	00822023 	subu	a0,a0,v0
    3ce8:	00052880 	sll	a1,a1,0x2
    3cec:	25e205c8 	addiu	v0,t7,1480
    3cf0:	00063080 	sll	a2,a2,0x2
    3cf4:	00744021 	addu	t0,v1,s4
    3cf8:	00954821 	addu	t1,a0,s5
    3cfc:	00a22821 	addu	a1,a1,v0
    3d00:	00c23021 	addu	a2,a2,v0
    3d04:	00791821 	addu	v1,v1,t9
    3d08:	3c136666 	lui	s3,0x6666
    3d0c:	00f45821 	addu	t3,a3,s4
    3d10:	00945021 	addu	t2,a0,s4
    3d14:	36736667 	ori	s3,s3,0x6667
    3d18:	8ca50000 	lw	a1,0(a1)
    3d1c:	8cc60000 	lw	a2,0(a2)
    3d20:	00084080 	sll	t0,t0,0x2
    3d24:	00094880 	sll	t1,t1,0x2
    3d28:	00031880 	sll	v1,v1,0x2
    3d2c:	00992021 	addu	a0,a0,t9
    3d30:	00f93821 	addu	a3,a3,t9
    3d34:	00621821 	addu	v1,v1,v0
    3d38:	01024021 	addu	t0,t0,v0
    3d3c:	01224821 	addu	t1,t1,v0
    3d40:	000b5880 	sll	t3,t3,0x2
    3d44:	03130018 	mult	t8,s3
    3d48:	000a5080 	sll	t2,t2,0x2
    3d4c:	00073880 	sll	a3,a3,0x2
    3d50:	00042080 	sll	a0,a0,0x2
    3d54:	00822021 	addu	a0,a0,v0
    3d58:	8c6c0000 	lw	t4,0(v1)
    3d5c:	00e23821 	addu	a3,a3,v0
    3d60:	01625821 	addu	t3,t3,v0
    3d64:	8d080000 	lw	t0,0(t0)
    3d68:	8d290000 	lw	t1,0(t1)
    3d6c:	01425021 	addu	t2,t2,v0
    3d70:	00061980 	sll	v1,a2,0x6
    3d74:	00051180 	sll	v0,a1,0x6
    3d78:	00063100 	sll	a2,a2,0x4
    3d7c:	00052900 	sll	a1,a1,0x4
    3d80:	00451023 	subu	v0,v0,a1
    3d84:	00661823 	subu	v1,v1,a2
    3d88:	8d6b0000 	lw	t3,0(t3)
    3d8c:	8ce60000 	lw	a2,0(a3)
    3d90:	8d4a0000 	lw	t2,0(t2)
    3d94:	8c870000 	lw	a3,0(a0)
    3d98:	00086980 	sll	t5,t0,0x6
    3d9c:	00097180 	sll	t6,t1,0x6
    3da0:	00084100 	sll	t0,t0,0x4
    3da4:	00094900 	sll	t1,t1,0x4
    3da8:	00022100 	sll	a0,v0,0x4
    3dac:	01a86823 	subu	t5,t5,t0
    3db0:	01c97023 	subu	t6,t6,t1
    3db4:	000b7980 	sll	t7,t3,0x6
    3db8:	000a8180 	sll	s0,t2,0x6
    3dbc:	000b5900 	sll	t3,t3,0x4
    3dc0:	000c8980 	sll	s1,t4,0x6
    3dc4:	000a5100 	sll	t2,t2,0x4
    3dc8:	00032900 	sll	a1,v1,0x4
    3dcc:	000c6100 	sll	t4,t4,0x4
    3dd0:	8fa80024 	lw	t0,36(sp)
    3dd4:	00822023 	subu	a0,a0,v0
    3dd8:	00061180 	sll	v0,a2,0x6
    3ddc:	00063100 	sll	a2,a2,0x4
    3de0:	020a8023 	subu	s0,s0,t2
    3de4:	00461023 	subu	v0,v0,a2
    3de8:	01eb7823 	subu	t7,t7,t3
    3dec:	022c8823 	subu	s1,s1,t4
    3df0:	00a32823 	subu	a1,a1,v1
    3df4:	000e5100 	sll	t2,t6,0x4
    3df8:	000d1900 	sll	v1,t5,0x4
    3dfc:	3c0c0005 	lui	t4,0x5
    3e00:	01124821 	addu	t1,t0,s2
    3e04:	000f5900 	sll	t3,t7,0x4
    3e08:	00079180 	sll	s2,a3,0x6
    3e0c:	006d1823 	subu	v1,v1,t5
    3e10:	00073900 	sll	a3,a3,0x4
    3e14:	014e5023 	subu	t2,t2,t6
    3e18:	3c0d0005 	lui	t5,0x5
    3e1c:	258e955c 	addiu	t6,t4,-27300
    3e20:	00026100 	sll	t4,v0,0x4
    3e24:	25adb44c 	addiu	t5,t5,-19380
    3e28:	02479023 	subu	s2,s2,a3
    3e2c:	016f5823 	subu	t3,t3,t7
    3e30:	01242021 	addu	a0,t1,a0
    3e34:	01252821 	addu	a1,t1,a1
    3e38:	00103900 	sll	a3,s0,0x4
    3e3c:	012a5021 	addu	t2,t1,t2
    3e40:	01826023 	subu	t4,t4,v0
    3e44:	00114100 	sll	t0,s1,0x4
    3e48:	3c020004 	lui	v0,0x4
    3e4c:	00f03823 	subu	a3,a3,s0
    3e50:	00ae2821 	addu	a1,a1,t6
    3e54:	01231821 	addu	v1,t1,v1
    3e58:	012b5821 	addu	t3,t1,t3
    3e5c:	2442766c 	addiu	v0,v0,30316
    3e60:	014d5021 	addu	t2,t2,t5
    3e64:	01114023 	subu	t0,t0,s1
    3e68:	008d2021 	addu	a0,a0,t5
    3e6c:	00123100 	sll	a2,s2,0x4
    3e70:	01625821 	addu	t3,t3,v0
    3e74:	01273821 	addu	a3,t1,a3
    3e78:	8caf001c 	lw	t7,28(a1)
    3e7c:	01284021 	addu	t0,t1,t0
    3e80:	8d500018 	lw	s0,24(t2)
    3e84:	00d23023 	subu	a2,a2,s2
    3e88:	8faa0020 	lw	t2,32(sp)
    3e8c:	006e1821 	addu	v1,v1,t6
    3e90:	8c840020 	lw	a0,32(a0)
    3e94:	8d620010 	lw	v0,16(t3)
    3e98:	01263021 	addu	a2,t1,a2
    3e9c:	00ee3821 	addu	a3,a3,t6
    3ea0:	03d72821 	addu	a1,s8,s7
    3ea4:	8c630014 	lw	v1,20(v1)
    3ea8:	012c4821 	addu	t1,t1,t4
    3eac:	010d4021 	addu	t0,t0,t5
    3eb0:	00aa2821 	addu	a1,a1,t2
    3eb4:	3c0b0005 	lui	t3,0x5
    3eb8:	8cea000c 	lw	t2,12(a3)
    3ebc:	008f2021 	addu	a0,a0,t7
    3ec0:	00cd3021 	addu	a2,a2,t5
    3ec4:	012e4821 	addu	t1,t1,t6
    3ec8:	8d080008 	lw	t0,8(t0)
    3ecc:	00822021 	addu	a0,a0,v0
    3ed0:	8cc60000 	lw	a2,0(a2)
    3ed4:	2562eee4 	addiu	v0,t3,-4380
    3ed8:	00009810 	mfhi	s3
    3edc:	00701821 	addu	v1,v1,s0
    3ee0:	00052880 	sll	a1,a1,0x2
    3ee4:	8d270004 	lw	a3,4(t1)
    3ee8:	00a22821 	addu	a1,a1,v0
    3eec:	006a1821 	addu	v1,v1,t2
    3ef0:	001817c3 	sra	v0,t8,0x1f
    3ef4:	00882021 	addu	a0,a0,t0
    3ef8:	001398c3 	sra	s3,s3,0x3
    3efc:	02625823 	subu	t3,s3,v0
    3f00:	00862021 	addu	a0,a0,a2
    3f04:	00671821 	addu	v1,v1,a3
    3f08:	8ca60000 	lw	a2,0(a1)
    3f0c:	00641821 	addu	v1,v1,a0
    3f10:	000b1080 	sll	v0,t3,0x2
    3f14:	000b2100 	sll	a0,t3,0x4
    3f18:	00661821 	addu	v1,v1,a2
    3f1c:	00441021 	addu	v0,v0,a0
    3f20:	aca30000 	sw	v1,0(a1)
    3f24:	03025823 	subu	t3,t8,v0
    3f28:	8fac001c 	lw	t4,28(sp)
    3f2c:	24020013 	li	v0,19
    3f30:	258c0001 	addiu	t4,t4,1
    3f34:	1582fc70 	bne	t4,v0,30f8 <temperature+0x12c>
    3f38:	afac001c 	sw	t4,28(sp)
    3f3c:	8fae0014 	lw	t6,20(sp)
    3f40:	3c040005 	lui	a0,0x5
    3f44:	2dc20009 	sltiu	v0,t6,9
    3f48:	1040034a 	beqz	v0,4c74 <temperature+0x1ca8>
    3f4c:	ac8b0564 	sw	t3,1380(a0)
    3f50:	3c030000 	lui	v1,0x0
    3f54:	246373f8 	addiu	v1,v1,29688
    3f58:	000e1080 	sll	v0,t6,0x2
    3f5c:	00431021 	addu	v0,v0,v1
    3f60:	8fa30018 	lw	v1,24(sp)
    3f64:	8c420000 	lw	v0,0(v0)
    3f68:	000340c0 	sll	t0,v1,0x3
    3f6c:	25780001 	addiu	t8,t3,1
    3f70:	000bf080 	sll	s8,t3,0x2
    3f74:	000bb940 	sll	s7,t3,0x5
    3f78:	3c0f0005 	lui	t7,0x5
    3f7c:	00400008 	jr	v0
    3f80:	00034840 	sll	t1,v1,0x1
    3f84:	01091023 	subu	v0,t0,t1
    3f88:	00162040 	sll	a0,s6,0x1
    3f8c:	001618c0 	sll	v1,s6,0x3
    3f90:	00641823 	subu	v1,v1,a0
    3f94:	00593821 	addu	a3,v0,t9
    3f98:	3c066666 	lui	a2,0x6666
    3f9c:	00541021 	addu	v0,v0,s4
    3fa0:	25e405c8 	addiu	a0,t7,1480
    3fa4:	34c66667 	ori	a2,a2,0x6667
    3fa8:	00742821 	addu	a1,v1,s4
    3fac:	00021080 	sll	v0,v0,0x2
    3fb0:	00791821 	addu	v1,v1,t9
    3fb4:	00441021 	addu	v0,v0,a0
    3fb8:	03060018 	mult	t8,a2
    3fbc:	00031880 	sll	v1,v1,0x2
    3fc0:	00641821 	addu	v1,v1,a0
    3fc4:	8c420000 	lw	v0,0(v0)
    3fc8:	00052880 	sll	a1,a1,0x2
    3fcc:	00073880 	sll	a3,a3,0x2
    3fd0:	00e43821 	addu	a3,a3,a0
    3fd4:	00a42821 	addu	a1,a1,a0
    3fd8:	8c630000 	lw	v1,0(v1)
    3fdc:	8ca40000 	lw	a0,0(a1)
    3fe0:	8ce50000 	lw	a1,0(a3)
    3fe4:	00023980 	sll	a3,v0,0x6
    3fe8:	00021100 	sll	v0,v0,0x4
    3fec:	00e23823 	subu	a3,a3,v0
    3ff0:	00034980 	sll	t1,v1,0x6
    3ff4:	00031900 	sll	v1,v1,0x4
    3ff8:	01234823 	subu	t1,t1,v1
    3ffc:	3c020005 	lui	v0,0x5
    4000:	00071900 	sll	v1,a3,0x4
    4004:	00044180 	sll	t0,a0,0x6
    4008:	00055180 	sll	t2,a1,0x6
    400c:	00042100 	sll	a0,a0,0x4
    4010:	00052900 	sll	a1,a1,0x4
    4014:	00671823 	subu	v1,v1,a3
    4018:	2447955c 	addiu	a3,v0,-27300
    401c:	3c020005 	lui	v0,0x5
    4020:	01044023 	subu	t0,t0,a0
    4024:	01455023 	subu	t2,t2,a1
    4028:	2442b44c 	addiu	v0,v0,-19380
    402c:	00082900 	sll	a1,t0,0x4
    4030:	00095900 	sll	t3,t1,0x4
    4034:	00621821 	addu	v1,v1,v0
    4038:	000a6100 	sll	t4,t2,0x4
    403c:	3c020004 	lui	v0,0x4
    4040:	00a82823 	subu	a1,a1,t0
    4044:	01695823 	subu	t3,t3,t1
    4048:	2442766c 	addiu	v0,v0,30316
    404c:	8fa80020 	lw	t0,32(sp)
    4050:	018a6023 	subu	t4,t4,t2
    4054:	00a72821 	addu	a1,a1,a3
    4058:	01625821 	addu	t3,t3,v0
    405c:	3c090005 	lui	t1,0x5
    4060:	03d72021 	addu	a0,s8,s7
    4064:	01876021 	addu	t4,t4,a3
    4068:	00882021 	addu	a0,a0,t0
    406c:	8c6202bc 	lw	v0,700(v1)
    4070:	2528fa24 	addiu	t0,t1,-1500
    4074:	8d8702b0 	lw	a3,688(t4)
    4078:	8ca902b8 	lw	t1,696(a1)
    407c:	8d6502ac 	lw	a1,684(t3)
    4080:	00003010 	mfhi	a2
    4084:	08001064 	j	4190 <temperature+0x11c4>
    4088:	00042080 	sll	a0,a0,0x2
    408c:	001f1040 	sll	v0,ra,0x1
    4090:	001f18c0 	sll	v1,ra,0x3
    4094:	00621823 	subu	v1,v1,v0
    4098:	00793821 	addu	a3,v1,t9
    409c:	01091023 	subu	v0,t0,t1
    40a0:	3c066666 	lui	a2,0x6666
    40a4:	00741821 	addu	v1,v1,s4
    40a8:	25e405c8 	addiu	a0,t7,1480
    40ac:	34c66667 	ori	a2,a2,0x6667
    40b0:	00542821 	addu	a1,v0,s4
    40b4:	00031880 	sll	v1,v1,0x2
    40b8:	00591021 	addu	v0,v0,t9
    40bc:	00641821 	addu	v1,v1,a0
    40c0:	03060018 	mult	t8,a2
    40c4:	00052880 	sll	a1,a1,0x2
    40c8:	00021080 	sll	v0,v0,0x2
    40cc:	00a42821 	addu	a1,a1,a0
    40d0:	00441021 	addu	v0,v0,a0
    40d4:	8c630000 	lw	v1,0(v1)
    40d8:	00073880 	sll	a3,a3,0x2
    40dc:	00e43821 	addu	a3,a3,a0
    40e0:	8c420000 	lw	v0,0(v0)
    40e4:	8ca40000 	lw	a0,0(a1)
    40e8:	8ce50000 	lw	a1,0(a3)
    40ec:	00033980 	sll	a3,v1,0x6
    40f0:	00031900 	sll	v1,v1,0x4
    40f4:	00e33823 	subu	a3,a3,v1
    40f8:	00044180 	sll	t0,a0,0x6
    40fc:	00024980 	sll	t1,v0,0x6
    4100:	00042100 	sll	a0,a0,0x4
    4104:	00021100 	sll	v0,v0,0x4
    4108:	01044023 	subu	t0,t0,a0
    410c:	01224823 	subu	t1,t1,v0
    4110:	00055180 	sll	t2,a1,0x6
    4114:	00071900 	sll	v1,a3,0x4
    4118:	00052900 	sll	a1,a1,0x4
    411c:	3c020005 	lui	v0,0x5
    4120:	01455023 	subu	t2,t2,a1
    4124:	00671823 	subu	v1,v1,a3
    4128:	00082900 	sll	a1,t0,0x4
    412c:	2447955c 	addiu	a3,v0,-27300
    4130:	3c020005 	lui	v0,0x5
    4134:	00a82823 	subu	a1,a1,t0
    4138:	2442b44c 	addiu	v0,v0,-19380
    413c:	00a22821 	addu	a1,a1,v0
    4140:	00095900 	sll	t3,t1,0x4
    4144:	000a6100 	sll	t4,t2,0x4
    4148:	3c020004 	lui	v0,0x4
    414c:	01695823 	subu	t3,t3,t1
    4150:	2442766c 	addiu	v0,v0,30316
    4154:	8fa80020 	lw	t0,32(sp)
    4158:	018a6023 	subu	t4,t4,t2
    415c:	01675821 	addu	t3,t3,a3
    4160:	01826021 	addu	t4,t4,v0
    4164:	00671821 	addu	v1,v1,a3
    4168:	3c090005 	lui	t1,0x5
    416c:	03d72021 	addu	a0,s8,s7
    4170:	00882021 	addu	a0,a0,t0
    4174:	8c6202c0 	lw	v0,704(v1)
    4178:	2528fa24 	addiu	t0,t1,-1500
    417c:	8d8702b4 	lw	a3,692(t4)
    4180:	8ca902bc 	lw	t1,700(a1)
    4184:	8d6502c8 	lw	a1,712(t3)
    4188:	00003010 	mfhi	a2
    418c:	00042080 	sll	a0,a0,0x2
    4190:	00181fc3 	sra	v1,t8,0x1f
    4194:	000630c3 	sra	a2,a2,0x3
    4198:	00882021 	addu	a0,a0,t0
    419c:	00c33023 	subu	a2,a2,v1
    41a0:	00a72821 	addu	a1,a1,a3
    41a4:	00061900 	sll	v1,a2,0x4
    41a8:	8c870000 	lw	a3,0(a0)
    41ac:	00491021 	addu	v0,v0,t1
    41b0:	00063080 	sll	a2,a2,0x2
    41b4:	00451021 	addu	v0,v0,a1
    41b8:	00c33021 	addu	a2,a2,v1
    41bc:	00471021 	addu	v0,v0,a3
    41c0:	03063023 	subu	a2,t8,a2
    41c4:	3c0a0005 	lui	t2,0x5
    41c8:	ac820000 	sw	v0,0(a0)
    41cc:	0800131d 	j	4c74 <temperature+0x1ca8>
    41d0:	ad460564 	sw	a2,1380(t2)
    41d4:	3c076666 	lui	a3,0x6666
    41d8:	001f1840 	sll	v1,ra,0x1
    41dc:	00162840 	sll	a1,s6,0x1
    41e0:	34e76667 	ori	a3,a3,0x6667
    41e4:	001f10c0 	sll	v0,ra,0x3
    41e8:	001620c0 	sll	a0,s6,0x3
    41ec:	00431023 	subu	v0,v0,v1
    41f0:	00852023 	subu	a0,a0,a1
    41f4:	01091823 	subu	v1,t0,t1
    41f8:	03070018 	mult	t8,a3
    41fc:	00594021 	addu	t0,v0,t9
    4200:	00944821 	addu	t1,a0,s4
    4204:	00743021 	addu	a2,v1,s4
    4208:	00541021 	addu	v0,v0,s4
    420c:	00992021 	addu	a0,a0,t9
    4210:	00791821 	addu	v1,v1,t9
    4214:	25e505c8 	addiu	a1,t7,1480
    4218:	00021080 	sll	v0,v0,0x2
    421c:	00063080 	sll	a2,a2,0x2
    4220:	00084080 	sll	t0,t0,0x2
    4224:	00094880 	sll	t1,t1,0x2
    4228:	00031880 	sll	v1,v1,0x2
    422c:	00042080 	sll	a0,a0,0x2
    4230:	00451021 	addu	v0,v0,a1
    4234:	00c53021 	addu	a2,a2,a1
    4238:	01054021 	addu	t0,t0,a1
    423c:	01254821 	addu	t1,t1,a1
    4240:	00852021 	addu	a0,a0,a1
    4244:	00651821 	addu	v1,v1,a1
    4248:	8c420000 	lw	v0,0(v0)
    424c:	8cc60000 	lw	a2,0(a2)
    4250:	8d080000 	lw	t0,0(t0)
    4254:	8d290000 	lw	t1,0(t1)
    4258:	8c630000 	lw	v1,0(v1)
    425c:	8c840000 	lw	a0,0(a0)
    4260:	00026980 	sll	t5,v0,0x6
    4264:	00067180 	sll	t6,a2,0x6
    4268:	00087980 	sll	t7,t0,0x6
    426c:	00098180 	sll	s0,t1,0x6
    4270:	00021100 	sll	v0,v0,0x4
    4274:	00063100 	sll	a2,a2,0x4
    4278:	00084100 	sll	t0,t0,0x4
    427c:	00094900 	sll	t1,t1,0x4
    4280:	00035980 	sll	t3,v1,0x6
    4284:	00046180 	sll	t4,a0,0x6
    4288:	00031900 	sll	v1,v1,0x4
    428c:	00042100 	sll	a0,a0,0x4
    4290:	01635823 	subu	t3,t3,v1
    4294:	01846023 	subu	t4,t4,a0
    4298:	01c67023 	subu	t6,t6,a2
    429c:	01e87823 	subu	t7,t7,t0
    42a0:	02098023 	subu	s0,s0,t1
    42a4:	01a26823 	subu	t5,t5,v0
    42a8:	3c040005 	lui	a0,0x5
    42ac:	000b3100 	sll	a2,t3,0x4
    42b0:	000c4100 	sll	t0,t4,0x4
    42b4:	000d1100 	sll	v0,t5,0x4
    42b8:	000e2900 	sll	a1,t6,0x4
    42bc:	000f4900 	sll	t1,t7,0x4
    42c0:	00105100 	sll	t2,s0,0x4
    42c4:	2483955c 	addiu	v1,a0,-27300
    42c8:	00cb3023 	subu	a2,a2,t3
    42cc:	010c4023 	subu	t0,t0,t4
    42d0:	8fab0020 	lw	t3,32(sp)
    42d4:	004d1023 	subu	v0,v0,t5
    42d8:	00ae2823 	subu	a1,a1,t6
    42dc:	012f4823 	subu	t1,t1,t7
    42e0:	01505023 	subu	t2,t2,s0
    42e4:	00a32821 	addu	a1,a1,v1
    42e8:	01234821 	addu	t1,t1,v1
    42ec:	03d72021 	addu	a0,s8,s7
    42f0:	00431021 	addu	v0,v0,v1
    42f4:	01435021 	addu	t2,t2,v1
    42f8:	01034021 	addu	t0,t0,v1
    42fc:	00c33021 	addu	a2,a2,v1
    4300:	008b2021 	addu	a0,a0,t3
    4304:	3c0c0005 	lui	t4,0x5
    4308:	8cab02bc 	lw	t3,700(a1)
    430c:	8c4202b8 	lw	v0,696(v0)
    4310:	8d2502c4 	lw	a1,708(t1)
    4314:	8d4a02c0 	lw	t2,704(t2)
    4318:	8cc602c8 	lw	a2,712(a2)
    431c:	8d0802cc 	lw	t0,716(t0)
    4320:	00003810 	mfhi	a3
    4324:	00042080 	sll	a0,a0,0x2
    4328:	08001214 	j	4850 <temperature+0x1884>
    432c:	2589fa24 	addiu	t1,t4,-1500
    4330:	01091023 	subu	v0,t0,t1
    4334:	00162040 	sll	a0,s6,0x1
    4338:	001618c0 	sll	v1,s6,0x3
    433c:	00641823 	subu	v1,v1,a0
    4340:	00543821 	addu	a3,v0,s4
    4344:	3c066666 	lui	a2,0x6666
    4348:	00551021 	addu	v0,v0,s5
    434c:	25e405c8 	addiu	a0,t7,1480
    4350:	34c66667 	ori	a2,a2,0x6667
    4354:	00752821 	addu	a1,v1,s5
    4358:	00021080 	sll	v0,v0,0x2
    435c:	00741821 	addu	v1,v1,s4
    4360:	00441021 	addu	v0,v0,a0
    4364:	03060018 	mult	t8,a2
    4368:	00052880 	sll	a1,a1,0x2
    436c:	00031880 	sll	v1,v1,0x2
    4370:	00a42821 	addu	a1,a1,a0
    4374:	00641821 	addu	v1,v1,a0
    4378:	8c420000 	lw	v0,0(v0)
    437c:	00073880 	sll	a3,a3,0x2
    4380:	00e43821 	addu	a3,a3,a0
    4384:	8c630000 	lw	v1,0(v1)
    4388:	8ca40000 	lw	a0,0(a1)
    438c:	8ce50000 	lw	a1,0(a3)
    4390:	00023980 	sll	a3,v0,0x6
    4394:	00021100 	sll	v0,v0,0x4
    4398:	00e23823 	subu	a3,a3,v0
    439c:	00044180 	sll	t0,a0,0x6
    43a0:	00034980 	sll	t1,v1,0x6
    43a4:	00042100 	sll	a0,a0,0x4
    43a8:	00031900 	sll	v1,v1,0x4
    43ac:	01044023 	subu	t0,t0,a0
    43b0:	01234823 	subu	t1,t1,v1
    43b4:	00055180 	sll	t2,a1,0x6
    43b8:	00071900 	sll	v1,a3,0x4
    43bc:	00052900 	sll	a1,a1,0x4
    43c0:	3c020005 	lui	v0,0x5
    43c4:	01455023 	subu	t2,t2,a1
    43c8:	00671823 	subu	v1,v1,a3
    43cc:	00082900 	sll	a1,t0,0x4
    43d0:	2447955c 	addiu	a3,v0,-27300
    43d4:	3c020004 	lui	v0,0x4
    43d8:	00a82823 	subu	a1,a1,t0
    43dc:	2442766c 	addiu	v0,v0,30316
    43e0:	00a22821 	addu	a1,a1,v0
    43e4:	00095900 	sll	t3,t1,0x4
    43e8:	000a6100 	sll	t4,t2,0x4
    43ec:	3c020005 	lui	v0,0x5
    43f0:	01695823 	subu	t3,t3,t1
    43f4:	2442b44c 	addiu	v0,v0,-19380
    43f8:	8fa80020 	lw	t0,32(sp)
    43fc:	018a6023 	subu	t4,t4,t2
    4400:	01675821 	addu	t3,t3,a3
    4404:	01826021 	addu	t4,t4,v0
    4408:	00671821 	addu	v1,v1,a3
    440c:	3c090005 	lui	t1,0x5
    4410:	03d72021 	addu	a0,s8,s7
    4414:	00882021 	addu	a0,a0,t0
    4418:	8c6202c8 	lw	v0,712(v1)
    441c:	2528fa24 	addiu	t0,t1,-1500
    4420:	8d8702bc 	lw	a3,700(t4)
    4424:	8ca902c4 	lw	t1,708(a1)
    4428:	8d6502b8 	lw	a1,696(t3)
    442c:	00003010 	mfhi	a2
    4430:	08001064 	j	4190 <temperature+0x11c4>
    4434:	00042080 	sll	a0,a0,0x2
    4438:	001f1040 	sll	v0,ra,0x1
    443c:	001f18c0 	sll	v1,ra,0x3
    4440:	00621823 	subu	v1,v1,v0
    4444:	00743821 	addu	a3,v1,s4
    4448:	01091023 	subu	v0,t0,t1
    444c:	3c066666 	lui	a2,0x6666
    4450:	00751821 	addu	v1,v1,s5
    4454:	25e405c8 	addiu	a0,t7,1480
    4458:	34c66667 	ori	a2,a2,0x6667
    445c:	00552821 	addu	a1,v0,s5
    4460:	00031880 	sll	v1,v1,0x2
    4464:	00541021 	addu	v0,v0,s4
    4468:	00641821 	addu	v1,v1,a0
    446c:	03060018 	mult	t8,a2
    4470:	00021080 	sll	v0,v0,0x2
    4474:	00441021 	addu	v0,v0,a0
    4478:	8c630000 	lw	v1,0(v1)
    447c:	00052880 	sll	a1,a1,0x2
    4480:	00073880 	sll	a3,a3,0x2
    4484:	00e43821 	addu	a3,a3,a0
    4488:	00a42821 	addu	a1,a1,a0
    448c:	8c420000 	lw	v0,0(v0)
    4490:	8ca40000 	lw	a0,0(a1)
    4494:	8ce50000 	lw	a1,0(a3)
    4498:	00033980 	sll	a3,v1,0x6
    449c:	00031900 	sll	v1,v1,0x4
    44a0:	00e33823 	subu	a3,a3,v1
    44a4:	00024980 	sll	t1,v0,0x6
    44a8:	00021100 	sll	v0,v0,0x4
    44ac:	01224823 	subu	t1,t1,v0
    44b0:	00071900 	sll	v1,a3,0x4
    44b4:	3c020005 	lui	v0,0x5
    44b8:	00044180 	sll	t0,a0,0x6
    44bc:	00055180 	sll	t2,a1,0x6
    44c0:	00042100 	sll	a0,a0,0x4
    44c4:	00052900 	sll	a1,a1,0x4
    44c8:	00671823 	subu	v1,v1,a3
    44cc:	2447955c 	addiu	a3,v0,-27300
    44d0:	3c020004 	lui	v0,0x4
    44d4:	01044023 	subu	t0,t0,a0
    44d8:	01455023 	subu	t2,t2,a1
    44dc:	2442766c 	addiu	v0,v0,30316
    44e0:	00082900 	sll	a1,t0,0x4
    44e4:	00095900 	sll	t3,t1,0x4
    44e8:	00621821 	addu	v1,v1,v0
    44ec:	000a6100 	sll	t4,t2,0x4
    44f0:	3c020005 	lui	v0,0x5
    44f4:	00a82823 	subu	a1,a1,t0
    44f8:	01695823 	subu	t3,t3,t1
    44fc:	2442b44c 	addiu	v0,v0,-19380
    4500:	8fa80020 	lw	t0,32(sp)
    4504:	018a6023 	subu	t4,t4,t2
    4508:	00a72821 	addu	a1,a1,a3
    450c:	01625821 	addu	t3,t3,v0
    4510:	3c090005 	lui	t1,0x5
    4514:	03d72021 	addu	a0,s8,s7
    4518:	01876021 	addu	t4,t4,a3
    451c:	00882021 	addu	a0,a0,t0
    4520:	8c6202ac 	lw	v0,684(v1)
    4524:	2528fa24 	addiu	t0,t1,-1500
    4528:	8d8702b8 	lw	a3,696(t4)
    452c:	8ca902b0 	lw	t1,688(a1)
    4530:	8d6502bc 	lw	a1,700(t3)
    4534:	00003010 	mfhi	a2
    4538:	08001064 	j	4190 <temperature+0x11c4>
    453c:	00042080 	sll	a0,a0,0x2
    4540:	3c076666 	lui	a3,0x6666
    4544:	001f1840 	sll	v1,ra,0x1
    4548:	00162840 	sll	a1,s6,0x1
    454c:	34e76667 	ori	a3,a3,0x6667
    4550:	001f10c0 	sll	v0,ra,0x3
    4554:	001620c0 	sll	a0,s6,0x3
    4558:	00431023 	subu	v0,v0,v1
    455c:	00852023 	subu	a0,a0,a1
    4560:	03070018 	mult	t8,a3
    4564:	01091823 	subu	v1,t0,t1
    4568:	00544021 	addu	t0,v0,s4
    456c:	00954821 	addu	t1,a0,s5
    4570:	00551021 	addu	v0,v0,s5
    4574:	00942021 	addu	a0,a0,s4
    4578:	25e505c8 	addiu	a1,t7,1480
    457c:	00753021 	addu	a2,v1,s5
    4580:	00021080 	sll	v0,v0,0x2
    4584:	00741821 	addu	v1,v1,s4
    4588:	00084080 	sll	t0,t0,0x2
    458c:	00042080 	sll	a0,a0,0x2
    4590:	00451021 	addu	v0,v0,a1
    4594:	01054021 	addu	t0,t0,a1
    4598:	00852021 	addu	a0,a0,a1
    459c:	00063080 	sll	a2,a2,0x2
    45a0:	00094880 	sll	t1,t1,0x2
    45a4:	00031880 	sll	v1,v1,0x2
    45a8:	00c53021 	addu	a2,a2,a1
    45ac:	01254821 	addu	t1,t1,a1
    45b0:	8c420000 	lw	v0,0(v0)
    45b4:	8d080000 	lw	t0,0(t0)
    45b8:	00651821 	addu	v1,v1,a1
    45bc:	8c840000 	lw	a0,0(a0)
    45c0:	8cc60000 	lw	a2,0(a2)
    45c4:	8d290000 	lw	t1,0(t1)
    45c8:	8c630000 	lw	v1,0(v1)
    45cc:	00026180 	sll	t4,v0,0x6
    45d0:	00087180 	sll	t6,t0,0x6
    45d4:	00021100 	sll	v0,v0,0x4
    45d8:	00084100 	sll	t0,t0,0x4
    45dc:	00048980 	sll	s1,a0,0x6
    45e0:	00042100 	sll	a0,a0,0x4
    45e4:	01826023 	subu	t4,t4,v0
    45e8:	01c87023 	subu	t6,t6,t0
    45ec:	02248823 	subu	s1,s1,a0
    45f0:	00066980 	sll	t5,a2,0x6
    45f4:	00097980 	sll	t7,t1,0x6
    45f8:	00063100 	sll	a2,a2,0x4
    45fc:	00094900 	sll	t1,t1,0x4
    4600:	00038180 	sll	s0,v1,0x6
    4604:	00031900 	sll	v1,v1,0x4
    4608:	01a66823 	subu	t5,t5,a2
    460c:	01e97823 	subu	t7,t7,t1
    4610:	02038023 	subu	s0,s0,v1
    4614:	000c2900 	sll	a1,t4,0x4
    4618:	3c020005 	lui	v0,0x5
    461c:	000e5100 	sll	t2,t6,0x4
    4620:	3c030005 	lui	v1,0x5
    4624:	00114100 	sll	t0,s1,0x4
    4628:	2463b44c 	addiu	v1,v1,-19380
    462c:	000d4900 	sll	t1,t5,0x4
    4630:	00ac2823 	subu	a1,a1,t4
    4634:	000f5900 	sll	t3,t7,0x4
    4638:	244c955c 	addiu	t4,v0,-27300
    463c:	014e5023 	subu	t2,t2,t6
    4640:	3c020004 	lui	v0,0x4
    4644:	01114023 	subu	t0,t0,s1
    4648:	01435021 	addu	t2,t2,v1
    464c:	012d4823 	subu	t1,t1,t5
    4650:	2442766c 	addiu	v0,v0,30316
    4654:	01034021 	addu	t0,t0,v1
    4658:	016f5823 	subu	t3,t3,t7
    465c:	8fa30020 	lw	v1,32(sp)
    4660:	00103100 	sll	a2,s0,0x4
    4664:	01224821 	addu	t1,t1,v0
    4668:	016c5821 	addu	t3,t3,t4
    466c:	00ac2821 	addu	a1,a1,t4
    4670:	03d72021 	addu	a0,s8,s7
    4674:	00d03023 	subu	a2,a2,s0
    4678:	00832021 	addu	a0,a0,v1
    467c:	8ca202cc 	lw	v0,716(a1)
    4680:	8d2d02c8 	lw	t5,712(t1)
    4684:	00cc3021 	addu	a2,a2,t4
    4688:	8d4502c0 	lw	a1,704(t2)
    468c:	00003810 	mfhi	a3
    4690:	8d6a02c4 	lw	t2,708(t3)
    4694:	3c0b0005 	lui	t3,0x5
    4698:	8cc602bc 	lw	a2,700(a2)
    469c:	00181fc3 	sra	v1,t8,0x1f
    46a0:	00042080 	sll	a0,a0,0x2
    46a4:	2569fa24 	addiu	t1,t3,-1500
    46a8:	8d0802b8 	lw	t0,696(t0)
    46ac:	000738c3 	sra	a3,a3,0x3
    46b0:	00892021 	addu	a0,a0,t1
    46b4:	00e33823 	subu	a3,a3,v1
    46b8:	004d1021 	addu	v0,v0,t5
    46bc:	00aa2821 	addu	a1,a1,t2
    46c0:	00461021 	addu	v0,v0,a2
    46c4:	00071900 	sll	v1,a3,0x4
    46c8:	8c860000 	lw	a2,0(a0)
    46cc:	00a82821 	addu	a1,a1,t0
    46d0:	00073880 	sll	a3,a3,0x2
    46d4:	00451021 	addu	v0,v0,a1
    46d8:	00e33821 	addu	a3,a3,v1
    46dc:	00461021 	addu	v0,v0,a2
    46e0:	03073823 	subu	a3,t8,a3
    46e4:	3c0c0005 	lui	t4,0x5
    46e8:	ac820000 	sw	v0,0(a0)
    46ec:	0800131d 	j	4c74 <temperature+0x1ca8>
    46f0:	ad870564 	sw	a3,1380(t4)
    46f4:	01091023 	subu	v0,t0,t1
    46f8:	3c076666 	lui	a3,0x6666
    46fc:	00162040 	sll	a0,s6,0x1
    4700:	34e76667 	ori	a3,a3,0x6667
    4704:	00544821 	addu	t1,v0,s4
    4708:	001618c0 	sll	v1,s6,0x3
    470c:	00641823 	subu	v1,v1,a0
    4710:	00552821 	addu	a1,v0,s5
    4714:	25e405c8 	addiu	a0,t7,1480
    4718:	03070018 	mult	t8,a3
    471c:	00094880 	sll	t1,t1,0x2
    4720:	00591021 	addu	v0,v0,t9
    4724:	00754021 	addu	t0,v1,s5
    4728:	00743021 	addu	a2,v1,s4
    472c:	01244821 	addu	t1,t1,a0
    4730:	00791821 	addu	v1,v1,t9
    4734:	00052880 	sll	a1,a1,0x2
    4738:	00021080 	sll	v0,v0,0x2
    473c:	00a42821 	addu	a1,a1,a0
    4740:	8d290000 	lw	t1,0(t1)
    4744:	00441021 	addu	v0,v0,a0
    4748:	00084080 	sll	t0,t0,0x2
    474c:	00063080 	sll	a2,a2,0x2
    4750:	00031880 	sll	v1,v1,0x2
    4754:	01044021 	addu	t0,t0,a0
    4758:	00c43021 	addu	a2,a2,a0
    475c:	00641821 	addu	v1,v1,a0
    4760:	8ca50000 	lw	a1,0(a1)
    4764:	8c420000 	lw	v0,0(v0)
    4768:	8d080000 	lw	t0,0(t0)
    476c:	8cc60000 	lw	a2,0(a2)
    4770:	8c630000 	lw	v1,0(v1)
    4774:	00098180 	sll	s0,t1,0x6
    4778:	00094900 	sll	t1,t1,0x4
    477c:	02098023 	subu	s0,s0,t1
    4780:	00052180 	sll	a0,a1,0x6
    4784:	00024980 	sll	t1,v0,0x6
    4788:	00052900 	sll	a1,a1,0x4
    478c:	00021100 	sll	v0,v0,0x4
    4790:	00852023 	subu	a0,a0,a1
    4794:	01224823 	subu	t1,t1,v0
    4798:	00087180 	sll	t6,t0,0x6
    479c:	00067980 	sll	t7,a2,0x6
    47a0:	00084100 	sll	t0,t0,0x4
    47a4:	00063100 	sll	a2,a2,0x4
    47a8:	00038980 	sll	s1,v1,0x6
    47ac:	00031900 	sll	v1,v1,0x4
    47b0:	01c87023 	subu	t6,t6,t0
    47b4:	01e67823 	subu	t7,t7,a2
    47b8:	02238823 	subu	s1,s1,v1
    47bc:	00045100 	sll	t2,a0,0x4
    47c0:	3c020005 	lui	v0,0x5
    47c4:	00093100 	sll	a2,t1,0x4
    47c8:	3c030005 	lui	v1,0x5
    47cc:	2445955c 	addiu	a1,v0,-27300
    47d0:	2463b44c 	addiu	v1,v1,-19380
    47d4:	01445023 	subu	t2,t2,a0
    47d8:	00c93023 	subu	a2,a2,t1
    47dc:	000e5900 	sll	t3,t6,0x4
    47e0:	000f6100 	sll	t4,t7,0x4
    47e4:	00106900 	sll	t5,s0,0x4
    47e8:	00114100 	sll	t0,s1,0x4
    47ec:	3c020004 	lui	v0,0x4
    47f0:	01435021 	addu	t2,t2,v1
    47f4:	2442766c 	addiu	v0,v0,30316
    47f8:	00c33021 	addu	a2,a2,v1
    47fc:	016e5823 	subu	t3,t3,t6
    4800:	018f6023 	subu	t4,t4,t7
    4804:	01b06823 	subu	t5,t5,s0
    4808:	01114023 	subu	t0,t0,s1
    480c:	8fa30020 	lw	v1,32(sp)
    4810:	01826021 	addu	t4,t4,v0
    4814:	01655821 	addu	t3,t3,a1
    4818:	01a56821 	addu	t5,t5,a1
    481c:	01054021 	addu	t0,t0,a1
    4820:	03d72021 	addu	a0,s8,s7
    4824:	00832021 	addu	a0,a0,v1
    4828:	8d4202c8 	lw	v0,712(t2)
    482c:	8d8502b8 	lw	a1,696(t4)
    4830:	8d6b02c4 	lw	t3,708(t3)
    4834:	3c0c0005 	lui	t4,0x5
    4838:	8daa02bc 	lw	t2,700(t5)
    483c:	8cc602b0 	lw	a2,688(a2)
    4840:	8d0802ac 	lw	t0,684(t0)
    4844:	00003810 	mfhi	a3
    4848:	00042080 	sll	a0,a0,0x2
    484c:	2589fa24 	addiu	t1,t4,-1500
    4850:	00181fc3 	sra	v1,t8,0x1f
    4854:	000738c3 	sra	a3,a3,0x3
    4858:	00892021 	addu	a0,a0,t1
    485c:	00e33823 	subu	a3,a3,v1
    4860:	004b1021 	addu	v0,v0,t3
    4864:	00aa2821 	addu	a1,a1,t2
    4868:	00461021 	addu	v0,v0,a2
    486c:	00071900 	sll	v1,a3,0x4
    4870:	8c860000 	lw	a2,0(a0)
    4874:	00a82821 	addu	a1,a1,t0
    4878:	00073880 	sll	a3,a3,0x2
    487c:	00451021 	addu	v0,v0,a1
    4880:	00e33821 	addu	a3,a3,v1
    4884:	00461021 	addu	v0,v0,a2
    4888:	03073823 	subu	a3,t8,a3
    488c:	3c0e0005 	lui	t6,0x5
    4890:	ac820000 	sw	v0,0(a0)
    4894:	0800131d 	j	4c74 <temperature+0x1ca8>
    4898:	adc70564 	sw	a3,1380(t6)
    489c:	3c066666 	lui	a2,0x6666
    48a0:	001f1840 	sll	v1,ra,0x1
    48a4:	34c66667 	ori	a2,a2,0x6667
    48a8:	001f10c0 	sll	v0,ra,0x3
    48ac:	00431023 	subu	v0,v0,v1
    48b0:	03060018 	mult	t8,a2
    48b4:	01091823 	subu	v1,t0,t1
    48b8:	00552821 	addu	a1,v0,s5
    48bc:	25e405c8 	addiu	a0,t7,1480
    48c0:	00544821 	addu	t1,v0,s4
    48c4:	00754021 	addu	t0,v1,s5
    48c8:	00743821 	addu	a3,v1,s4
    48cc:	00052880 	sll	a1,a1,0x2
    48d0:	00591021 	addu	v0,v0,t9
    48d4:	00a42821 	addu	a1,a1,a0
    48d8:	00791821 	addu	v1,v1,t9
    48dc:	00084080 	sll	t0,t0,0x2
    48e0:	00073880 	sll	a3,a3,0x2
    48e4:	00094880 	sll	t1,t1,0x2
    48e8:	00021080 	sll	v0,v0,0x2
    48ec:	01044021 	addu	t0,t0,a0
    48f0:	00e43821 	addu	a3,a3,a0
    48f4:	01244821 	addu	t1,t1,a0
    48f8:	8ca50000 	lw	a1,0(a1)
    48fc:	00441021 	addu	v0,v0,a0
    4900:	00031880 	sll	v1,v1,0x2
    4904:	00641821 	addu	v1,v1,a0
    4908:	8d080000 	lw	t0,0(t0)
    490c:	8ce70000 	lw	a3,0(a3)
    4910:	8d290000 	lw	t1,0(t1)
    4914:	8c420000 	lw	v0,0(v0)
    4918:	8c630000 	lw	v1,0(v1)
    491c:	00052180 	sll	a0,a1,0x6
    4920:	00052900 	sll	a1,a1,0x4
    4924:	00852023 	subu	a0,a0,a1
    4928:	00086980 	sll	t5,t0,0x6
    492c:	00077180 	sll	t6,a3,0x6
    4930:	00097980 	sll	t7,t1,0x6
    4934:	00084100 	sll	t0,t0,0x4
    4938:	00073900 	sll	a3,a3,0x4
    493c:	00094900 	sll	t1,t1,0x4
    4940:	00025980 	sll	t3,v0,0x6
    4944:	00021100 	sll	v0,v0,0x4
    4948:	01c77023 	subu	t6,t6,a3
    494c:	01625823 	subu	t3,t3,v0
    4950:	01a86823 	subu	t5,t5,t0
    4954:	01e97823 	subu	t7,t7,t1
    4958:	00036180 	sll	t4,v1,0x6
    495c:	00041100 	sll	v0,a0,0x4
    4960:	00031900 	sll	v1,v1,0x4
    4964:	01836023 	subu	t4,t4,v1
    4968:	000e4900 	sll	t1,t6,0x4
    496c:	00441023 	subu	v0,v0,a0
    4970:	000b3900 	sll	a3,t3,0x4
    4974:	3c040005 	lui	a0,0x5
    4978:	000d2900 	sll	a1,t5,0x4
    497c:	000f5100 	sll	t2,t7,0x4
    4980:	2483955c 	addiu	v1,a0,-27300
    4984:	012e4823 	subu	t1,t1,t6
    4988:	000c4100 	sll	t0,t4,0x4
    498c:	00eb3823 	subu	a3,a3,t3
    4990:	00ad2823 	subu	a1,a1,t5
    4994:	8fab0020 	lw	t3,32(sp)
    4998:	014f5023 	subu	t2,t2,t7
    499c:	00a32821 	addu	a1,a1,v1
    49a0:	01234821 	addu	t1,t1,v1
    49a4:	010c4023 	subu	t0,t0,t4
    49a8:	00431021 	addu	v0,v0,v1
    49ac:	01435021 	addu	t2,t2,v1
    49b0:	03d72021 	addu	a0,s8,s7
    49b4:	01034021 	addu	t0,t0,v1
    49b8:	008b2021 	addu	a0,a0,t3
    49bc:	00e33821 	addu	a3,a3,v1
    49c0:	8cab02b0 	lw	t3,688(a1)
    49c4:	00003010 	mfhi	a2
    49c8:	8d2502bc 	lw	a1,700(t1)
    49cc:	8c4202ac 	lw	v0,684(v0)
    49d0:	8d4a02b8 	lw	t2,696(t2)
    49d4:	3c0c0005 	lui	t4,0x5
    49d8:	8ce702c4 	lw	a3,708(a3)
    49dc:	00181fc3 	sra	v1,t8,0x1f
    49e0:	00042080 	sll	a0,a0,0x2
    49e4:	2589fa24 	addiu	t1,t4,-1500
    49e8:	8d0802c8 	lw	t0,712(t0)
    49ec:	000630c3 	sra	a2,a2,0x3
    49f0:	00892021 	addu	a0,a0,t1
    49f4:	00c33023 	subu	a2,a2,v1
    49f8:	004b1021 	addu	v0,v0,t3
    49fc:	00aa2821 	addu	a1,a1,t2
    4a00:	00471021 	addu	v0,v0,a3
    4a04:	00061900 	sll	v1,a2,0x4
    4a08:	8c870000 	lw	a3,0(a0)
    4a0c:	00a82821 	addu	a1,a1,t0
    4a10:	00063080 	sll	a2,a2,0x2
    4a14:	00451021 	addu	v0,v0,a1
    4a18:	00c33021 	addu	a2,a2,v1
    4a1c:	00471021 	addu	v0,v0,a3
    4a20:	03063023 	subu	a2,t8,a2
    4a24:	3c0e0005 	lui	t6,0x5
    4a28:	ac820000 	sw	v0,0(a0)
    4a2c:	0800131d 	j	4c74 <temperature+0x1ca8>
    4a30:	adc60564 	sw	a2,1380(t6)
    4a34:	001f1040 	sll	v0,ra,0x1
    4a38:	001f18c0 	sll	v1,ra,0x3
    4a3c:	00621823 	subu	v1,v1,v0
    4a40:	00752821 	addu	a1,v1,s5
    4a44:	00161040 	sll	v0,s6,0x1
    4a48:	001620c0 	sll	a0,s6,0x3
    4a4c:	01094823 	subu	t1,t0,t1
    4a50:	00822023 	subu	a0,a0,v0
    4a54:	3c0b6666 	lui	t3,0x6666
    4a58:	25e205c8 	addiu	v0,t7,1480
    4a5c:	00052880 	sll	a1,a1,0x2
    4a60:	01355021 	addu	t2,t1,s5
    4a64:	01346021 	addu	t4,t1,s4
    4a68:	00743021 	addu	a2,v1,s4
    4a6c:	356b6667 	ori	t3,t3,0x6667
    4a70:	00a22821 	addu	a1,a1,v0
    4a74:	00953821 	addu	a3,a0,s5
    4a78:	00944021 	addu	t0,a0,s4
    4a7c:	8ca50000 	lw	a1,0(a1)
    4a80:	030b0018 	mult	t8,t3
    4a84:	000a5080 	sll	t2,t2,0x2
    4a88:	00063080 	sll	a2,a2,0x2
    4a8c:	000c6080 	sll	t4,t4,0x2
    4a90:	00791821 	addu	v1,v1,t9
    4a94:	00992021 	addu	a0,a0,t9
    4a98:	01394821 	addu	t1,t1,t9
    4a9c:	01425021 	addu	t2,t2,v0
    4aa0:	00c23021 	addu	a2,a2,v0
    4aa4:	01826021 	addu	t4,t4,v0
    4aa8:	00073880 	sll	a3,a3,0x2
    4aac:	00084080 	sll	t0,t0,0x2
    4ab0:	00031880 	sll	v1,v1,0x2
    4ab4:	00094880 	sll	t1,t1,0x2
    4ab8:	00042080 	sll	a0,a0,0x2
    4abc:	00621821 	addu	v1,v1,v0
    4ac0:	00822021 	addu	a0,a0,v0
    4ac4:	01224821 	addu	t1,t1,v0
    4ac8:	8d4a0000 	lw	t2,0(t2)
    4acc:	00e23821 	addu	a3,a3,v0
    4ad0:	8cc60000 	lw	a2,0(a2)
    4ad4:	8d8c0000 	lw	t4,0(t4)
    4ad8:	01024021 	addu	t0,t0,v0
    4adc:	00051180 	sll	v0,a1,0x6
    4ae0:	00052900 	sll	a1,a1,0x4
    4ae4:	00451023 	subu	v0,v0,a1
    4ae8:	8c6d0000 	lw	t5,0(v1)
    4aec:	8ce70000 	lw	a3,0(a3)
    4af0:	8c910000 	lw	s1,0(a0)
    4af4:	8d080000 	lw	t0,0(t0)
    4af8:	000a1980 	sll	v1,t2,0x6
    4afc:	00069180 	sll	s2,a2,0x6
    4b00:	000a5100 	sll	t2,t2,0x4
    4b04:	000ca180 	sll	s4,t4,0x6
    4b08:	00063100 	sll	a2,a2,0x4
    4b0c:	000c6100 	sll	t4,t4,0x4
    4b10:	00022100 	sll	a0,v0,0x4
    4b14:	006a1823 	subu	v1,v1,t2
    4b18:	8d300000 	lw	s0,0(t1)
    4b1c:	02469023 	subu	s2,s2,a2
    4b20:	00079980 	sll	s3,a3,0x6
    4b24:	028ca023 	subu	s4,s4,t4
    4b28:	00073900 	sll	a3,a3,0x4
    4b2c:	000da980 	sll	s5,t5,0x6
    4b30:	00822023 	subu	a0,a0,v0
    4b34:	000d6900 	sll	t5,t5,0x4
    4b38:	3c020005 	lui	v0,0x5
    4b3c:	2456955c 	addiu	s6,v0,-27300
    4b40:	02679823 	subu	s3,s3,a3
    4b44:	02ada823 	subu	s5,s5,t5
    4b48:	00083180 	sll	a2,t0,0x6
    4b4c:	00032900 	sll	a1,v1,0x4
    4b50:	00084100 	sll	t0,t0,0x4
    4b54:	3c0d0005 	lui	t5,0x5
    4b58:	00124900 	sll	t1,s2,0x4
    4b5c:	00146100 	sll	t4,s4,0x4
    4b60:	3c020004 	lui	v0,0x4
    4b64:	25adb44c 	addiu	t5,t5,-19380
    4b68:	00c83023 	subu	a2,a2,t0
    4b6c:	00a32823 	subu	a1,a1,v1
    4b70:	00107180 	sll	t6,s0,0x6
    4b74:	00117980 	sll	t7,s1,0x6
    4b78:	00108100 	sll	s0,s0,0x4
    4b7c:	2442766c 	addiu	v0,v0,30316
    4b80:	00135100 	sll	t2,s3,0x4
    4b84:	00118900 	sll	s1,s1,0x4
    4b88:	01324823 	subu	t1,t1,s2
    4b8c:	01946023 	subu	t4,t4,s4
    4b90:	01d07023 	subu	t6,t6,s0
    4b94:	01826021 	addu	t4,t4,v0
    4b98:	01f17823 	subu	t7,t7,s1
    4b9c:	00b62821 	addu	a1,a1,s6
    4ba0:	008d2021 	addu	a0,a0,t5
    4ba4:	00063900 	sll	a3,a2,0x4
    4ba8:	01364821 	addu	t1,t1,s6
    4bac:	01535023 	subu	t2,t2,s3
    4bb0:	00154100 	sll	t0,s5,0x4
    4bb4:	00e63823 	subu	a3,a3,a2
    4bb8:	014d5021 	addu	t2,t2,t5
    4bbc:	8cb002c8 	lw	s0,712(a1)
    4bc0:	000e1900 	sll	v1,t6,0x4
    4bc4:	8d2202c0 	lw	v0,704(t1)
    4bc8:	01154023 	subu	t0,t0,s5
    4bcc:	8d8902bc 	lw	t1,700(t4)
    4bd0:	8c8402cc 	lw	a0,716(a0)
    4bd4:	8fac0020 	lw	t4,32(sp)
    4bd8:	000f3100 	sll	a2,t7,0x4
    4bdc:	010d4021 	addu	t0,t0,t5
    4be0:	006e1823 	subu	v1,v1,t6
    4be4:	00f63821 	addu	a3,a3,s6
    4be8:	03d72821 	addu	a1,s8,s7
    4bec:	00cf3023 	subu	a2,a2,t7
    4bf0:	8d4a02c4 	lw	t2,708(t2)
    4bf4:	00cd3021 	addu	a2,a2,t5
    4bf8:	00ac2821 	addu	a1,a1,t4
    4bfc:	8ced02b8 	lw	t5,696(a3)
    4c00:	00761821 	addu	v1,v1,s6
    4c04:	8d0c02b4 	lw	t4,692(t0)
    4c08:	00902021 	addu	a0,a0,s0
    4c0c:	3c0e0005 	lui	t6,0x5
    4c10:	8c6802b0 	lw	t0,688(v1)
    4c14:	8cc602ac 	lw	a2,684(a2)
    4c18:	00005810 	mfhi	t3
    4c1c:	004a1021 	addu	v0,v0,t2
    4c20:	00892021 	addu	a0,a0,t1
    4c24:	00052880 	sll	a1,a1,0x2
    4c28:	25c7fa24 	addiu	a3,t6,-1500
    4c2c:	00181fc3 	sra	v1,t8,0x1f
    4c30:	00a72821 	addu	a1,a1,a3
    4c34:	000b58c3 	sra	t3,t3,0x3
    4c38:	004d1021 	addu	v0,v0,t5
    4c3c:	008c2021 	addu	a0,a0,t4
    4c40:	01635823 	subu	t3,t3,v1
    4c44:	00862021 	addu	a0,a0,a2
    4c48:	00481021 	addu	v0,v0,t0
    4c4c:	8ca60000 	lw	a2,0(a1)
    4c50:	000b1900 	sll	v1,t3,0x4
    4c54:	00441021 	addu	v0,v0,a0
    4c58:	000b5880 	sll	t3,t3,0x2
    4c5c:	00461021 	addu	v0,v0,a2
    4c60:	01635821 	addu	t3,t3,v1
    4c64:	030b5823 	subu	t3,t8,t3
    4c68:	aca20000 	sw	v0,0(a1)
    4c6c:	3c020005 	lui	v0,0x5
    4c70:	ac4b0564 	sw	t3,1380(v0)
    4c74:	3c110005 	lui	s1,0x5
    4c78:	8e290564 	lw	t1,1380(s1)
    4c7c:	8fa40020 	lw	a0,32(sp)
    4c80:	00091140 	sll	v0,t1,0x5
    4c84:	00091880 	sll	v1,t1,0x2
    4c88:	00621821 	addu	v1,v1,v0
    4c8c:	00641821 	addu	v1,v1,a0
    4c90:	3c0a0005 	lui	t2,0x5
    4c94:	254afa24 	addiu	t2,t2,-1500
    4c98:	00031880 	sll	v1,v1,0x2
    4c9c:	006a7021 	addu	t6,v1,t2
    4ca0:	8dc80000 	lw	t0,0(t6)
    4ca4:	3c068888 	lui	a2,0x8888
    4ca8:	34c68889 	ori	a2,a2,0x8889
    4cac:	01060018 	mult	t0,a2
    4cb0:	3c026666 	lui	v0,0x6666
    4cb4:	25290001 	addiu	t1,t1,1
    4cb8:	34506667 	ori	s0,v0,0x6667
    4cbc:	3c020005 	lui	v0,0x5
    4cc0:	2442eee4 	addiu	v0,v0,-4380
    4cc4:	00621821 	addu	v1,v1,v0
    4cc8:	8c650000 	lw	a1,0(v1)
    4ccc:	000817c3 	sra	v0,t0,0x1f
    4cd0:	000967c3 	sra	t4,t1,0x1f
    4cd4:	ac600000 	sw	zero,0(v1)
    4cd8:	8fa40010 	lw	a0,16(sp)
    4cdc:	00003010 	mfhi	a2
    4ce0:	00c83021 	addu	a2,a2,t0
    4ce4:	00063143 	sra	a2,a2,0x5
    4ce8:	01300018 	mult	t1,s0
    4cec:	00c23023 	subu	a2,a2,v0
    4cf0:	00c52821 	addu	a1,a2,a1
    4cf4:	3c020005 	lui	v0,0x5
    4cf8:	ac460568 	sw	a2,1384(v0)
    4cfc:	00056fc3 	sra	t5,a1,0x1f
    4d00:	8c8b0000 	lw	t3,0(a0)
    4d04:	3c040000 	lui	a0,0x0
    4d08:	24846a98 	addiu	a0,a0,27288
    4d0c:	00003810 	mfhi	a3
    4d10:	000738c3 	sra	a3,a3,0x3
    4d14:	00ec1023 	subu	v0,a3,t4
    4d18:	00b00018 	mult	a1,s0
    4d1c:	00021900 	sll	v1,v0,0x4
    4d20:	00021080 	sll	v0,v0,0x2
    4d24:	00431021 	addu	v0,v0,v1
    4d28:	01221023 	subu	v0,t1,v0
    4d2c:	00021940 	sll	v1,v0,0x5
    4d30:	00021080 	sll	v0,v0,0x2
    4d34:	00431021 	addu	v0,v0,v1
    4d38:	8fa30020 	lw	v1,32(sp)
    4d3c:	00000000 	nop
    4d40:	00431021 	addu	v0,v0,v1
    4d44:	00021080 	sll	v0,v0,0x2
    4d48:	004a1021 	addu	v0,v0,t2
    4d4c:	00002810 	mfhi	a1
    4d50:	8c430000 	lw	v1,0(v0)
    4d54:	00052883 	sra	a1,a1,0x2
    4d58:	00ad2823 	subu	a1,a1,t5
    4d5c:	01655821 	addu	t3,t3,a1
    4d60:	01034021 	addu	t0,t0,v1
    4d64:	8fa50010 	lw	a1,16(sp)
    4d68:	01064023 	subu	t0,t0,a2
    4d6c:	ac480000 	sw	t0,0(v0)
    4d70:	acab0000 	sw	t3,0(a1)
    4d74:	0c000340 	jal	d00 <puts>
    4d78:	adc00000 	sw	zero,0(t6)
    4d7c:	8fa40020 	lw	a0,32(sp)
    4d80:	0c00000b 	jal	2c <itoa>
    4d84:	00000000 	nop
    4d88:	0c000340 	jal	d00 <puts>
    4d8c:	00402021 	move	a0,v0
    4d90:	3c040000 	lui	a0,0x0
    4d94:	0c000340 	jal	d00 <puts>
    4d98:	24846c8c 	addiu	a0,a0,27788
    4d9c:	8fa60010 	lw	a2,16(sp)
    4da0:	8fa70020 	lw	a3,32(sp)
    4da4:	8cc40000 	lw	a0,0(a2)
    4da8:	24e70001 	addiu	a3,a3,1
    4dac:	0c00000b 	jal	2c <itoa>
    4db0:	afa70020 	sw	a3,32(sp)
    4db4:	0c000340 	jal	d00 <puts>
    4db8:	00402021 	move	a0,v0
    4dbc:	3c040000 	lui	a0,0x0
    4dc0:	0c000340 	jal	d00 <puts>
    4dc4:	2484696c 	addiu	a0,a0,26988
    4dc8:	8fa80010 	lw	t0,16(sp)
    4dcc:	8fa90020 	lw	t1,32(sp)
    4dd0:	25080004 	addiu	t0,t0,4
    4dd4:	24020024 	li	v0,36
    4dd8:	1522f88c 	bne	t1,v0,300c <temperature+0x40>
    4ddc:	afa80010 	sw	t0,16(sp)
    4de0:	8e230564 	lw	v1,1380(s1)
    4de4:	00000000 	nop
    4de8:	24630001 	addiu	v1,v1,1
    4dec:	00700018 	mult	v1,s0
    4df0:	000327c3 	sra	a0,v1,0x1f
    4df4:	00001010 	mfhi	v0
    4df8:	000210c3 	sra	v0,v0,0x3
    4dfc:	00441023 	subu	v0,v0,a0
    4e00:	00022100 	sll	a0,v0,0x4
    4e04:	00021080 	sll	v0,v0,0x2
    4e08:	00441021 	addu	v0,v0,a0
    4e0c:	00621823 	subu	v1,v1,v0
    4e10:	ae230564 	sw	v1,1380(s1)
    4e14:	8fbf004c 	lw	ra,76(sp)
    4e18:	8fbe0048 	lw	s8,72(sp)
    4e1c:	8fb70044 	lw	s7,68(sp)
    4e20:	8fb60040 	lw	s6,64(sp)
    4e24:	8fb5003c 	lw	s5,60(sp)
    4e28:	8fb40038 	lw	s4,56(sp)
    4e2c:	8fb30034 	lw	s3,52(sp)
    4e30:	8fb20030 	lw	s2,48(sp)
    4e34:	8fb1002c 	lw	s1,44(sp)
    4e38:	8fb00028 	lw	s0,40(sp)
    4e3c:	03e00008 	jr	ra
    4e40:	27bd0050 	addiu	sp,sp,80

00004e44 <handle_app_terminated>:
    4e44:	27bdffd0 	addiu	sp,sp,-48
    4e48:	afb3001c 	sw	s3,28(sp)
    4e4c:	00a09821 	move	s3,a1
    4e50:	afb50024 	sw	s5,36(sp)
    4e54:	30a500ff 	andi	a1,a1,0xff
    4e58:	0080a821 	move	s5,a0
    4e5c:	00132202 	srl	a0,s3,0x8
    4e60:	afb40020 	sw	s4,32(sp)
    4e64:	afb20018 	sw	s2,24(sp)
    4e68:	afb10014 	sw	s1,20(sp)
    4e6c:	afb00010 	sw	s0,16(sp)
    4e70:	afbf0028 	sw	ra,40(sp)
    4e74:	0c00036a 	jal	da8 <search_cluster_ID>
    4e78:	00c08021 	move	s0,a2
    4e7c:	0040a021 	move	s4,v0
    4e80:	02008821 	move	s1,s0
    4e84:	080013ca 	j	4f28 <handle_app_terminated+0xe4>
    4e88:	00009021 	move	s2,zero
    4e8c:	8e230000 	lw	v1,0(s1)
    4e90:	3c100004 	lui	s0,0x4
    4e94:	2602764c 	addiu	v0,s0,30284
    4e98:	00823021 	addu	a2,a0,v0
    4e9c:	306500ff 	andi	a1,v1,0xff
    4ea0:	1073000d 	beq	v1,s3,4ed8 <handle_app_terminated+0x94>
    4ea4:	00032202 	srl	a0,v1,0x8
    4ea8:	0c00036a 	jal	da8 <search_cluster_ID>
    4eac:	00000000 	nop
    4eb0:	00021940 	sll	v1,v0,0x5
    4eb4:	00021080 	sll	v0,v0,0x2
    4eb8:	00621823 	subu	v1,v1,v0
    4ebc:	2602764c 	addiu	v0,s0,30284
    4ec0:	00621821 	addu	v1,v1,v0
    4ec4:	8c620018 	lw	v0,24(v1)
    4ec8:	00000000 	nop
    4ecc:	24420001 	addiu	v0,v0,1
    4ed0:	080013ba 	j	4ee8 <handle_app_terminated+0xa4>
    4ed4:	ac620018 	sw	v0,24(v1)
    4ed8:	8cc20018 	lw	v0,24(a2)
    4edc:	00000000 	nop
    4ee0:	24420001 	addiu	v0,v0,1
    4ee4:	acc20018 	sw	v0,24(a2)
    4ee8:	3c040000 	lui	a0,0x0
    4eec:	3c100004 	lui	s0,0x4
    4ef0:	0c000340 	jal	d00 <puts>
    4ef4:	248469f8 	addiu	a0,a0,27128
    4ef8:	8e047668 	lw	a0,30312(s0)
    4efc:	0c00000b 	jal	2c <itoa>
    4f00:	26520001 	addiu	s2,s2,1
    4f04:	0c000340 	jal	d00 <puts>
    4f08:	00402021 	move	a0,v0
    4f0c:	3c040000 	lui	a0,0x0
    4f10:	0c000340 	jal	d00 <puts>
    4f14:	2484696c 	addiu	a0,a0,26988
    4f18:	8e027668 	lw	v0,30312(s0)
    4f1c:	26310004 	addiu	s1,s1,4
    4f20:	24420001 	addiu	v0,v0,1
    4f24:	ae027668 	sw	v0,30312(s0)
    4f28:	00141880 	sll	v1,s4,0x2
    4f2c:	00141140 	sll	v0,s4,0x5
    4f30:	1655ffd6 	bne	s2,s5,4e8c <handle_app_terminated+0x48>
    4f34:	00432023 	subu	a0,v0,v1
    4f38:	3c020005 	lui	v0,0x5
    4f3c:	8c43056c 	lw	v1,1388(v0)
    4f40:	00000000 	nop
    4f44:	24630001 	addiu	v1,v1,1
    4f48:	ac43056c 	sw	v1,1388(v0)
    4f4c:	24020005 	li	v0,5
    4f50:	14620011 	bne	v1,v0,4f98 <handle_app_terminated+0x154>
    4f54:	3c040000 	lui	a0,0x0
    4f58:	24846aa8 	addiu	a0,a0,27304
    4f5c:	0c000340 	jal	d00 <puts>
    4f60:	3c102000 	lui	s0,0x2000
    4f64:	36020300 	ori	v0,s0,0x300
    4f68:	8c440000 	lw	a0,0(v0)
    4f6c:	0c00000b 	jal	2c <itoa>
    4f70:	36100080 	ori	s0,s0,0x80
    4f74:	0c000340 	jal	d00 <puts>
    4f78:	00402021 	move	a0,v0
    4f7c:	3c040000 	lui	a0,0x0
    4f80:	0c000340 	jal	d00 <puts>
    4f84:	2484696c 	addiu	a0,a0,26988
    4f88:	0c000bf3 	jal	2fcc <temperature>
    4f8c:	00000000 	nop
    4f90:	24020001 	li	v0,1
    4f94:	ae020000 	sw	v0,0(s0)
    4f98:	8fbf0028 	lw	ra,40(sp)
    4f9c:	8fb50024 	lw	s5,36(sp)
    4fa0:	8fb40020 	lw	s4,32(sp)
    4fa4:	8fb3001c 	lw	s3,28(sp)
    4fa8:	8fb20018 	lw	s2,24(sp)
    4fac:	8fb10014 	lw	s1,20(sp)
    4fb0:	8fb00010 	lw	s0,16(sp)
    4fb4:	03e00008 	jr	ra
    4fb8:	27bd0030 	addiu	sp,sp,48

00004fbc <handle_packet>:
    4fbc:	27bdff60 	addiu	sp,sp,-160
    4fc0:	27a4005c 	addiu	a0,sp,92
    4fc4:	afbf009c 	sw	ra,156(sp)
    4fc8:	0c000170 	jal	5c0 <read_packet>
    4fcc:	afb00098 	sw	s0,152(sp)
    4fd0:	8fa30064 	lw	v1,100(sp)
    4fd4:	24020160 	li	v0,352
    4fd8:	1062002a 	beq	v1,v0,5084 <handle_packet+0xc8>
    4fdc:	2c620161 	sltiu	v0,v1,353
    4fe0:	10400015 	beqz	v0,5038 <handle_packet+0x7c>
    4fe4:	24020200 	li	v0,512
    4fe8:	24020090 	li	v0,144
    4fec:	1062016e 	beq	v1,v0,55a8 <handle_packet+0x5ec>
    4ff0:	2c620091 	sltiu	v0,v1,145
    4ff4:	10400008 	beqz	v0,5018 <handle_packet+0x5c>
    4ff8:	24020140 	li	v0,320
    4ffc:	24020060 	li	v0,96
    5000:	10620109 	beq	v1,v0,5428 <handle_packet+0x46c>
    5004:	24020070 	li	v0,112
    5008:	14620274 	bne	v1,v0,59dc <handle_packet+0xa20>
    500c:	3c040000 	lui	a0,0x0
    5010:	080014b6 	j	52d8 <handle_packet+0x31c>
    5014:	00000000 	nop
    5018:	10620099 	beq	v1,v0,5280 <handle_packet+0x2c4>
    501c:	24020150 	li	v0,336
    5020:	10620047 	beq	v1,v0,5140 <handle_packet+0x184>
    5024:	24020130 	li	v0,304
    5028:	1462026c 	bne	v1,v0,59dc <handle_packet+0xa20>
    502c:	3c040000 	lui	a0,0x0
    5030:	08001456 	j	5158 <handle_packet+0x19c>
    5034:	00000000 	nop
    5038:	10620121 	beq	v1,v0,54c0 <handle_packet+0x504>
    503c:	2c620201 	sltiu	v0,v1,513
    5040:	10400008 	beqz	v0,5064 <handle_packet+0xa8>
    5044:	24020240 	li	v0,576
    5048:	24020180 	li	v0,384
    504c:	106200eb 	beq	v1,v0,53fc <handle_packet+0x440>
    5050:	24020190 	li	v0,400
    5054:	14620261 	bne	v1,v0,59dc <handle_packet+0xa20>
    5058:	3c040000 	lui	a0,0x0
    505c:	08001510 	j	5440 <handle_packet+0x484>
    5060:	3c020004 	lui	v0,0x4
    5064:	10620155 	beq	v1,v0,55bc <handle_packet+0x600>
    5068:	24020250 	li	v0,592
    506c:	1062023b 	beq	v1,v0,595c <handle_packet+0x9a0>
    5070:	24020235 	li	v0,565
    5074:	14620258 	bne	v1,v0,59d8 <handle_packet+0xa1c>
    5078:	00000000 	nop
    507c:	08001664 	j	5990 <handle_packet+0x9d4>
    5080:	00000000 	nop
    5084:	8fab0070 	lw	t3,112(sp)
    5088:	8fa70090 	lw	a3,144(sp)
    508c:	3c020005 	lui	v0,0x5
    5090:	8c46edc4 	lw	a2,-4668(v0)
    5094:	00071940 	sll	v1,a3,0x5
    5098:	00071080 	sll	v0,a3,0x2
    509c:	00621823 	subu	v1,v1,v0
    50a0:	3c020004 	lui	v0,0x4
    50a4:	00062202 	srl	a0,a2,0x8
    50a8:	2442764c 	addiu	v0,v0,30284
    50ac:	00621821 	addu	v1,v1,v0
    50b0:	000428c0 	sll	a1,a0,0x3
    50b4:	3c020004 	lui	v0,0x4
    50b8:	00042040 	sll	a0,a0,0x1
    50bc:	00a42823 	subu	a1,a1,a0
    50c0:	24427614 	addiu	v0,v0,30228
    50c4:	8c680008 	lw	t0,8(v1)
    50c8:	00a22821 	addu	a1,a1,v0
    50cc:	3c020005 	lui	v0,0x5
    50d0:	8c6a0014 	lw	t2,20(v1)
    50d4:	8c69000c 	lw	t1,12(v1)
    50d8:	8c630010 	lw	v1,16(v1)
    50dc:	a04bedcc 	sb	t3,-4660(v0)
    50e0:	3c020005 	lui	v0,0x5
    50e4:	30c600ff 	andi	a2,a2,0xff
    50e8:	ac48edc8 	sw	t0,-4664(v0)
    50ec:	3c020005 	lui	v0,0x5
    50f0:	00a62821 	addu	a1,a1,a2
    50f4:	ac49edd8 	sw	t1,-4648(v0)
    50f8:	3c040000 	lui	a0,0x0
    50fc:	3c020005 	lui	v0,0x5
    5100:	ac43edd0 	sw	v1,-4656(v0)
    5104:	3c100005 	lui	s0,0x5
    5108:	3c020005 	lui	v0,0x5
    510c:	24846ab0 	addiu	a0,a0,27312
    5110:	a0a00000 	sb	zero,0(a1)
    5114:	ac4aede0 	sw	t2,-4640(v0)
    5118:	0c000340 	jal	d00 <puts>
    511c:	ae07eddc 	sw	a3,-4644(s0)
    5120:	8e05eddc 	lw	a1,-4644(s0)
    5124:	3c040000 	lui	a0,0x0
    5128:	0c00035b 	jal	d6c <putsv>
    512c:	24846ac4 	addiu	a0,a0,27332
    5130:	0c0005fa 	jal	17e8 <initialize_slaves>
    5134:	00000000 	nop
    5138:	08001687 	j	5a1c <handle_packet+0xa60>
    513c:	00000000 	nop
    5140:	8fa40068 	lw	a0,104(sp)
    5144:	8fa6007c 	lw	a2,124(sp)
    5148:	0c0009f2 	jal	27c8 <handle_new_app>
    514c:	00002821 	move	a1,zero
    5150:	08001687 	j	5a1c <handle_packet+0xa60>
    5154:	00000000 	nop
    5158:	8fa6007c 	lw	a2,124(sp)
    515c:	8fa70088 	lw	a3,136(sp)
    5160:	8fa80084 	lw	t0,132(sp)
    5164:	8fa90080 	lw	t1,128(sp)
    5168:	8faa008c 	lw	t2,140(sp)
    516c:	8fab006c 	lw	t3,108(sp)
    5170:	8fac0068 	lw	t4,104(sp)
    5174:	8fa50090 	lw	a1,144(sp)
    5178:	8fa20090 	lw	v0,144(sp)
    517c:	3c030005 	lui	v1,0x5
    5180:	2463edc0 	addiu	v1,v1,-4672
    5184:	00021080 	sll	v0,v0,0x2
    5188:	00431021 	addu	v0,v0,v1
    518c:	8c420000 	lw	v0,0(v0)
    5190:	8fa40094 	lw	a0,148(sp)
    5194:	00052880 	sll	a1,a1,0x2
    5198:	00441021 	addu	v0,v0,a0
    519c:	00a32821 	addu	a1,a1,v1
    51a0:	27a40010 	addiu	a0,sp,16
    51a4:	aca20000 	sw	v0,0(a1)
    51a8:	afa60018 	sw	a2,24(sp)
    51ac:	afa70028 	sw	a3,40(sp)
    51b0:	afa80020 	sw	t0,32(sp)
    51b4:	afa90024 	sw	t1,36(sp)
    51b8:	afaa001c 	sw	t2,28(sp)
    51bc:	afab0014 	sw	t3,20(sp)
    51c0:	0c00018d 	jal	634 <add_new_task>
    51c4:	afac0010 	sw	t4,16(sp)
    51c8:	8fa4007c 	lw	a0,124(sp)
    51cc:	0c0003f0 	jal	fc0 <search_physical_master_address>
    51d0:	00000000 	nop
    51d4:	00402021 	move	a0,v0
    51d8:	3c020005 	lui	v0,0x5
    51dc:	9042edcc 	lbu	v0,-4660(v0)
    51e0:	00000000 	nop
    51e4:	10820009 	beq	a0,v0,520c <handle_packet+0x250>
    51e8:	00000000 	nop
    51ec:	8fa20070 	lw	v0,112(sp)
    51f0:	00000000 	nop
    51f4:	10820005 	beq	a0,v0,520c <handle_packet+0x250>
    51f8:	00000000 	nop
    51fc:	0c0004d1 	jal	1344 <decrement_cluster_resources>
    5200:	00000000 	nop
    5204:	08001687 	j	5a1c <handle_packet+0xa60>
    5208:	00000000 	nop
    520c:	8fa20090 	lw	v0,144(sp)
    5210:	3c100004 	lui	s0,0x4
    5214:	00021940 	sll	v1,v0,0x5
    5218:	00021080 	sll	v0,v0,0x2
    521c:	2610764c 	addiu	s0,s0,30284
    5220:	00621823 	subu	v1,v1,v0
    5224:	00701821 	addu	v1,v1,s0
    5228:	8c620018 	lw	v0,24(v1)
    522c:	3c040000 	lui	a0,0x0
    5230:	2442ffff 	addiu	v0,v0,-1
    5234:	ac620018 	sw	v0,24(v1)
    5238:	0c000340 	jal	d00 <puts>
    523c:	24846ad4 	addiu	a0,a0,27348
    5240:	8fa20090 	lw	v0,144(sp)
    5244:	00000000 	nop
    5248:	00021940 	sll	v1,v0,0x5
    524c:	00021080 	sll	v0,v0,0x2
    5250:	00621823 	subu	v1,v1,v0
    5254:	00701821 	addu	v1,v1,s0
    5258:	8c640018 	lw	a0,24(v1)
    525c:	0c00000b 	jal	2c <itoa>
    5260:	00000000 	nop
    5264:	0c000340 	jal	d00 <puts>
    5268:	00402021 	move	a0,v0
    526c:	3c040000 	lui	a0,0x0
    5270:	0c000340 	jal	d00 <puts>
    5274:	2484696c 	addiu	a0,a0,26988
    5278:	08001687 	j	5a1c <handle_packet+0xa60>
    527c:	00000000 	nop
    5280:	8fa5007c 	lw	a1,124(sp)
    5284:	27b0002c 	addiu	s0,sp,44
    5288:	0c00012c 	jal	4b0 <DMA_read_data>
    528c:	02002021 	move	a0,s0
    5290:	8fa70090 	lw	a3,144(sp)
    5294:	8fa20090 	lw	v0,144(sp)
    5298:	3c030005 	lui	v1,0x5
    529c:	2463edc0 	addiu	v1,v1,-4672
    52a0:	00021080 	sll	v0,v0,0x2
    52a4:	00431021 	addu	v0,v0,v1
    52a8:	8fa60094 	lw	a2,148(sp)
    52ac:	8c420000 	lw	v0,0(v0)
    52b0:	00073880 	sll	a3,a3,0x2
    52b4:	00461021 	addu	v0,v0,a2
    52b8:	8fa4007c 	lw	a0,124(sp)
    52bc:	00e33821 	addu	a3,a3,v1
    52c0:	8fa50070 	lw	a1,112(sp)
    52c4:	02003021 	move	a2,s0
    52c8:	0c001391 	jal	4e44 <handle_app_terminated>
    52cc:	ace20000 	sw	v0,0(a3)
    52d0:	08001687 	j	5a1c <handle_packet+0xa60>
    52d4:	00000000 	nop
    52d8:	8fa40070 	lw	a0,112(sp)
    52dc:	0c00037e 	jal	df8 <page_released>
    52e0:	00000000 	nop
    52e4:	8fa20068 	lw	v0,104(sp)
    52e8:	3c050005 	lui	a1,0x5
    52ec:	00023202 	srl	a2,v0,0x8
    52f0:	8fa30068 	lw	v1,104(sp)
    52f4:	00061080 	sll	v0,a2,0x2
    52f8:	00063900 	sll	a3,a2,0x4
    52fc:	24a521b0 	addiu	a1,a1,8624
    5300:	00452821 	addu	a1,v0,a1
    5304:	306300ff 	andi	v1,v1,0xff
    5308:	00e21023 	subu	v0,a3,v0
    530c:	00431021 	addu	v0,v0,v1
    5310:	8ca40000 	lw	a0,0(a1)
    5314:	3c030004 	lui	v1,0x4
    5318:	24687524 	addiu	t0,v1,29988
    531c:	00021080 	sll	v0,v0,0x2
    5320:	8fa3006c 	lw	v1,108(sp)
    5324:	2484ffff 	addiu	a0,a0,-1
    5328:	00481021 	addu	v0,v0,t0
    532c:	ac430000 	sw	v1,0(v0)
    5330:	14800035 	bnez	a0,5408 <handle_packet+0x44c>
    5334:	aca40000 	sw	a0,0(a1)
    5338:	3c020005 	lui	v0,0x5
    533c:	9042edbc 	lbu	v0,-4676(v0)
    5340:	00000000 	nop
    5344:	10400029 	beqz	v0,53ec <handle_packet+0x430>
    5348:	00061180 	sll	v0,a2,0x6
    534c:	00471023 	subu	v0,v0,a3
    5350:	000218c0 	sll	v1,v0,0x3
    5354:	00621823 	subu	v1,v1,v0
    5358:	00661821 	addu	v1,v1,a2
    535c:	3c040005 	lui	a0,0x5
    5360:	248406e8 	addiu	a0,a0,1768
    5364:	00031880 	sll	v1,v1,0x2
    5368:	00641821 	addu	v1,v1,a0
    536c:	8c660000 	lw	a2,0(v1)
    5370:	00002821 	move	a1,zero
    5374:	00481821 	addu	v1,v0,t0
    5378:	080014e3 	j	538c <handle_packet+0x3d0>
    537c:	27a4002c 	addiu	a0,sp,44
    5380:	8c62fffc 	lw	v0,-4(v1)
    5384:	00000000 	nop
    5388:	ac82fffc 	sw	v0,-4(a0)
    538c:	00a6102a 	slt	v0,a1,a2
    5390:	24630004 	addiu	v1,v1,4
    5394:	24a50001 	addiu	a1,a1,1
    5398:	1440fff9 	bnez	v0,5380 <handle_packet+0x3c4>
    539c:	24840004 	addiu	a0,a0,4
    53a0:	3c020005 	lui	v0,0x5
    53a4:	8c47eddc 	lw	a3,-4644(v0)
    53a8:	3c020005 	lui	v0,0x5
    53ac:	2442edc0 	addiu	v0,v0,-4672
    53b0:	00073880 	sll	a3,a3,0x2
    53b4:	00e23821 	addu	a3,a3,v0
    53b8:	3c080005 	lui	t0,0x5
    53bc:	8d04edd4 	lw	a0,-4652(t0)
    53c0:	8ce30000 	lw	v1,0(a3)
    53c4:	3c020005 	lui	v0,0x5
    53c8:	00641821 	addu	v1,v1,a0
    53cc:	8c45edc4 	lw	a1,-4668(v0)
    53d0:	00c02021 	move	a0,a2
    53d4:	ace30000 	sw	v1,0(a3)
    53d8:	27a6002c 	addiu	a2,sp,44
    53dc:	0c001391 	jal	4e44 <handle_app_terminated>
    53e0:	ad00edd4 	sw	zero,-4652(t0)
    53e4:	08001503 	j	540c <handle_packet+0x450>
    53e8:	3c040005 	lui	a0,0x5
    53ec:	0c00050d 	jal	1434 <send_app_terminated>
    53f0:	00c02021 	move	a0,a2
    53f4:	08001503 	j	540c <handle_packet+0x450>
    53f8:	3c040005 	lui	a0,0x5
    53fc:	8fa40070 	lw	a0,112(sp)
    5400:	0c00037e 	jal	df8 <page_released>
    5404:	00000000 	nop
    5408:	3c040005 	lui	a0,0x5
    540c:	8c83213c 	lw	v1,8508(a0)
    5410:	2402ffff 	li	v0,-1
    5414:	10620181 	beq	v1,v0,5a1c <handle_packet+0xa60>
    5418:	2483213c 	addiu	v1,a0,8508
    541c:	24020001 	li	v0,1
    5420:	08001687 	j	5a1c <handle_packet+0xa60>
    5424:	ac62001c 	sw	v0,28(v1)
    5428:	8fa40068 	lw	a0,104(sp)
    542c:	8fa5007c 	lw	a1,124(sp)
    5430:	0c0001ca 	jal	728 <add_task_request>
    5434:	00000000 	nop
    5438:	08001687 	j	5a1c <handle_packet+0xa60>
    543c:	00000000 	nop
    5440:	8c427430 	lw	v0,29744(v0)
    5444:	00000000 	nop
    5448:	1c400008 	bgtz	v0,546c <handle_packet+0x4b0>
    544c:	00000000 	nop
    5450:	8fa40070 	lw	a0,112(sp)
    5454:	8fa50068 	lw	a1,104(sp)
    5458:	2406ffff 	li	a2,-1
    545c:	0c000585 	jal	1614 <send_loan_proc_delivery>
    5460:	2407ffff 	li	a3,-1
    5464:	08001687 	j	5a1c <handle_packet+0xa60>
    5468:	00000000 	nop
    546c:	8fa40068 	lw	a0,104(sp)
    5470:	0c00031e 	jal	c78 <loan_mapping>
    5474:	00000000 	nop
    5478:	00408021 	move	s0,v0
    547c:	8fa2007c 	lw	v0,124(sp)
    5480:	8fa7007c 	lw	a3,124(sp)
    5484:	00103202 	srl	a2,s0,0x8
    5488:	320300ff 	andi	v1,s0,0xff
    548c:	00021202 	srl	v0,v0,0x8
    5490:	30e700ff 	andi	a3,a3,0xff
    5494:	8fa40070 	lw	a0,112(sp)
    5498:	00461021 	addu	v0,v0,a2
    549c:	00e33821 	addu	a3,a3,v1
    54a0:	8fa50068 	lw	a1,104(sp)
    54a4:	00473821 	addu	a3,v0,a3
    54a8:	0c000585 	jal	1614 <send_loan_proc_delivery>
    54ac:	02003021 	move	a2,s0
    54b0:	0c0003a4 	jal	e90 <page_used>
    54b4:	02002021 	move	a0,s0
    54b8:	08001687 	j	5a1c <handle_packet+0xa60>
    54bc:	00000000 	nop
    54c0:	3c020005 	lui	v0,0x5
    54c4:	2450213c 	addiu	s0,v0,8508
    54c8:	8e020008 	lw	v0,8(s0)
    54cc:	8e03001c 	lw	v1,28(s0)
    54d0:	2442ffff 	addiu	v0,v0,-1
    54d4:	10600010 	beqz	v1,5518 <handle_packet+0x55c>
    54d8:	ae020008 	sw	v0,8(s0)
    54dc:	8fa40070 	lw	a0,112(sp)
    54e0:	8fa5007c 	lw	a1,124(sp)
    54e4:	0c0005a0 	jal	1680 <send_loan_proc_release>
    54e8:	00000000 	nop
    54ec:	8e040014 	lw	a0,20(s0)
    54f0:	2402ffff 	li	v0,-1
    54f4:	10820024 	beq	a0,v0,5588 <handle_packet+0x5cc>
    54f8:	3c020005 	lui	v0,0x5
    54fc:	8fa20070 	lw	v0,112(sp)
    5500:	00000000 	nop
    5504:	10820020 	beq	a0,v0,5588 <handle_packet+0x5cc>
    5508:	3c020005 	lui	v0,0x5
    550c:	8e050010 	lw	a1,16(s0)
    5510:	0800155f 	j	557c <handle_packet+0x5c0>
    5514:	00000000 	nop
    5518:	8fa2007c 	lw	v0,124(sp)
    551c:	2404ffff 	li	a0,-1
    5520:	10440019 	beq	v0,a0,5588 <handle_packet+0x5cc>
    5524:	3c020005 	lui	v0,0x5
    5528:	8fa2006c 	lw	v0,108(sp)
    552c:	8e03000c 	lw	v1,12(s0)
    5530:	00000000 	nop
    5534:	0043102b 	sltu	v0,v0,v1
    5538:	1040000e 	beqz	v0,5574 <handle_packet+0x5b8>
    553c:	00000000 	nop
    5540:	8fa2006c 	lw	v0,108(sp)
    5544:	8e050010 	lw	a1,16(s0)
    5548:	00000000 	nop
    554c:	10a40004 	beq	a1,a0,5560 <handle_packet+0x5a4>
    5550:	ae02000c 	sw	v0,12(s0)
    5554:	8e040014 	lw	a0,20(s0)
    5558:	0c0005a0 	jal	1680 <send_loan_proc_release>
    555c:	00000000 	nop
    5560:	8fa2007c 	lw	v0,124(sp)
    5564:	8fa30070 	lw	v1,112(sp)
    5568:	ae020010 	sw	v0,16(s0)
    556c:	08001561 	j	5584 <handle_packet+0x5c8>
    5570:	ae030014 	sw	v1,20(s0)
    5574:	8fa40070 	lw	a0,112(sp)
    5578:	8fa5007c 	lw	a1,124(sp)
    557c:	0c0005a0 	jal	1680 <send_loan_proc_release>
    5580:	00000000 	nop
    5584:	3c020005 	lui	v0,0x5
    5588:	8c422144 	lw	v0,8516(v0)
    558c:	00000000 	nop
    5590:	14400122 	bnez	v0,5a1c <handle_packet+0xa60>
    5594:	00000000 	nop
    5598:	0c000944 	jal	2510 <handle_end_of_reclustering_round>
    559c:	00000000 	nop
    55a0:	08001687 	j	5a1c <handle_packet+0xa60>
    55a4:	00000000 	nop
    55a8:	8fa4007c 	lw	a0,124(sp)
    55ac:	0c00037e 	jal	df8 <page_released>
    55b0:	00000000 	nop
    55b4:	08001687 	j	5a1c <handle_packet+0xa60>
    55b8:	00000000 	nop
    55bc:	8fa30094 	lw	v1,148(sp)
    55c0:	3c0200b2 	lui	v0,0xb2
    55c4:	34428721 	ori	v0,v0,0x8721
    55c8:	0062182b 	sltu	v1,v1,v0
    55cc:	1460000f 	bnez	v1,560c <handle_packet+0x650>
    55d0:	00000000 	nop
    55d4:	8fa20070 	lw	v0,112(sp)
    55d8:	8fa40070 	lw	a0,112(sp)
    55dc:	00021202 	srl	v0,v0,0x8
    55e0:	000218c0 	sll	v1,v0,0x3
    55e4:	00021040 	sll	v0,v0,0x1
    55e8:	00621823 	subu	v1,v1,v0
    55ec:	308400ff 	andi	a0,a0,0xff
    55f0:	00641821 	addu	v1,v1,a0
    55f4:	3c020005 	lui	v0,0x5
    55f8:	244205c8 	addiu	v0,v0,1480
    55fc:	00031880 	sll	v1,v1,0x2
    5600:	00621821 	addu	v1,v1,v0
    5604:	08001596 	j	5658 <handle_packet+0x69c>
    5608:	2402000a 	li	v0,10
    560c:	8fa30094 	lw	v1,148(sp)
    5610:	3c02009e 	lui	v0,0x9e
    5614:	3442b101 	ori	v0,v0,0xb101
    5618:	0062182b 	sltu	v1,v1,v0
    561c:	14600010 	bnez	v1,5660 <handle_packet+0x6a4>
    5620:	00000000 	nop
    5624:	8fa20070 	lw	v0,112(sp)
    5628:	8fa40070 	lw	a0,112(sp)
    562c:	00021202 	srl	v0,v0,0x8
    5630:	000218c0 	sll	v1,v0,0x3
    5634:	00021040 	sll	v0,v0,0x1
    5638:	00621823 	subu	v1,v1,v0
    563c:	308400ff 	andi	a0,a0,0xff
    5640:	00641821 	addu	v1,v1,a0
    5644:	3c020005 	lui	v0,0x5
    5648:	244205c8 	addiu	v0,v0,1480
    564c:	00031880 	sll	v1,v1,0x2
    5650:	00621821 	addu	v1,v1,v0
    5654:	24020009 	li	v0,9
    5658:	08001644 	j	5910 <handle_packet+0x954>
    565c:	ac620000 	sw	v0,0(v1)
    5660:	8fa30094 	lw	v1,148(sp)
    5664:	3c02008a 	lui	v0,0x8a
    5668:	3442dae1 	ori	v0,v0,0xdae1
    566c:	0062182b 	sltu	v1,v1,v0
    5670:	1460000f 	bnez	v1,56b0 <handle_packet+0x6f4>
    5674:	00000000 	nop
    5678:	8fa20070 	lw	v0,112(sp)
    567c:	8fa40070 	lw	a0,112(sp)
    5680:	00021202 	srl	v0,v0,0x8
    5684:	000218c0 	sll	v1,v0,0x3
    5688:	00021040 	sll	v0,v0,0x1
    568c:	00621823 	subu	v1,v1,v0
    5690:	308400ff 	andi	a0,a0,0xff
    5694:	00641821 	addu	v1,v1,a0
    5698:	3c020005 	lui	v0,0x5
    569c:	244205c8 	addiu	v0,v0,1480
    56a0:	00031880 	sll	v1,v1,0x2
    56a4:	00621821 	addu	v1,v1,v0
    56a8:	08001596 	j	5658 <handle_packet+0x69c>
    56ac:	24020008 	li	v0,8
    56b0:	8fa30094 	lw	v1,148(sp)
    56b4:	3c020077 	lui	v0,0x77
    56b8:	344204c1 	ori	v0,v0,0x4c1
    56bc:	0062182b 	sltu	v1,v1,v0
    56c0:	1460000f 	bnez	v1,5700 <handle_packet+0x744>
    56c4:	00000000 	nop
    56c8:	8fa20070 	lw	v0,112(sp)
    56cc:	8fa40070 	lw	a0,112(sp)
    56d0:	00021202 	srl	v0,v0,0x8
    56d4:	000218c0 	sll	v1,v0,0x3
    56d8:	00021040 	sll	v0,v0,0x1
    56dc:	00621823 	subu	v1,v1,v0
    56e0:	308400ff 	andi	a0,a0,0xff
    56e4:	00641821 	addu	v1,v1,a0
    56e8:	3c020005 	lui	v0,0x5
    56ec:	244205c8 	addiu	v0,v0,1480
    56f0:	00031880 	sll	v1,v1,0x2
    56f4:	00621821 	addu	v1,v1,v0
    56f8:	08001596 	j	5658 <handle_packet+0x69c>
    56fc:	24020007 	li	v0,7
    5700:	8fa30094 	lw	v1,148(sp)
    5704:	3c020063 	lui	v0,0x63
    5708:	34422ea1 	ori	v0,v0,0x2ea1
    570c:	0062182b 	sltu	v1,v1,v0
    5710:	1460000f 	bnez	v1,5750 <handle_packet+0x794>
    5714:	00000000 	nop
    5718:	8fa20070 	lw	v0,112(sp)
    571c:	8fa40070 	lw	a0,112(sp)
    5720:	00021202 	srl	v0,v0,0x8
    5724:	000218c0 	sll	v1,v0,0x3
    5728:	00021040 	sll	v0,v0,0x1
    572c:	00621823 	subu	v1,v1,v0
    5730:	308400ff 	andi	a0,a0,0xff
    5734:	00641821 	addu	v1,v1,a0
    5738:	3c020005 	lui	v0,0x5
    573c:	244205c8 	addiu	v0,v0,1480
    5740:	00031880 	sll	v1,v1,0x2
    5744:	00621821 	addu	v1,v1,v0
    5748:	08001596 	j	5658 <handle_packet+0x69c>
    574c:	24020006 	li	v0,6
    5750:	8fa30094 	lw	v1,148(sp)
    5754:	3c02004f 	lui	v0,0x4f
    5758:	34425881 	ori	v0,v0,0x5881
    575c:	0062182b 	sltu	v1,v1,v0
    5760:	1460000f 	bnez	v1,57a0 <handle_packet+0x7e4>
    5764:	00000000 	nop
    5768:	8fa20070 	lw	v0,112(sp)
    576c:	8fa40070 	lw	a0,112(sp)
    5770:	00021202 	srl	v0,v0,0x8
    5774:	000218c0 	sll	v1,v0,0x3
    5778:	00021040 	sll	v0,v0,0x1
    577c:	00621823 	subu	v1,v1,v0
    5780:	308400ff 	andi	a0,a0,0xff
    5784:	00641821 	addu	v1,v1,a0
    5788:	3c020005 	lui	v0,0x5
    578c:	244205c8 	addiu	v0,v0,1480
    5790:	00031880 	sll	v1,v1,0x2
    5794:	00621821 	addu	v1,v1,v0
    5798:	08001596 	j	5658 <handle_packet+0x69c>
    579c:	24020005 	li	v0,5
    57a0:	8fa30094 	lw	v1,148(sp)
    57a4:	3c02003b 	lui	v0,0x3b
    57a8:	34428261 	ori	v0,v0,0x8261
    57ac:	0062182b 	sltu	v1,v1,v0
    57b0:	1460000f 	bnez	v1,57f0 <handle_packet+0x834>
    57b4:	00000000 	nop
    57b8:	8fa20070 	lw	v0,112(sp)
    57bc:	8fa40070 	lw	a0,112(sp)
    57c0:	00021202 	srl	v0,v0,0x8
    57c4:	000218c0 	sll	v1,v0,0x3
    57c8:	00021040 	sll	v0,v0,0x1
    57cc:	00621823 	subu	v1,v1,v0
    57d0:	308400ff 	andi	a0,a0,0xff
    57d4:	00641821 	addu	v1,v1,a0
    57d8:	3c020005 	lui	v0,0x5
    57dc:	244205c8 	addiu	v0,v0,1480
    57e0:	00031880 	sll	v1,v1,0x2
    57e4:	00621821 	addu	v1,v1,v0
    57e8:	08001596 	j	5658 <handle_packet+0x69c>
    57ec:	24020004 	li	v0,4
    57f0:	8fa30094 	lw	v1,148(sp)
    57f4:	3c020027 	lui	v0,0x27
    57f8:	3442ac41 	ori	v0,v0,0xac41
    57fc:	0062182b 	sltu	v1,v1,v0
    5800:	1460000f 	bnez	v1,5840 <handle_packet+0x884>
    5804:	00000000 	nop
    5808:	8fa20070 	lw	v0,112(sp)
    580c:	8fa40070 	lw	a0,112(sp)
    5810:	00021202 	srl	v0,v0,0x8
    5814:	000218c0 	sll	v1,v0,0x3
    5818:	00021040 	sll	v0,v0,0x1
    581c:	00621823 	subu	v1,v1,v0
    5820:	308400ff 	andi	a0,a0,0xff
    5824:	00641821 	addu	v1,v1,a0
    5828:	3c020005 	lui	v0,0x5
    582c:	244205c8 	addiu	v0,v0,1480
    5830:	00031880 	sll	v1,v1,0x2
    5834:	00621821 	addu	v1,v1,v0
    5838:	08001596 	j	5658 <handle_packet+0x69c>
    583c:	24020003 	li	v0,3
    5840:	8fa30094 	lw	v1,148(sp)
    5844:	3c020013 	lui	v0,0x13
    5848:	3442d621 	ori	v0,v0,0xd621
    584c:	0062182b 	sltu	v1,v1,v0
    5850:	1460000f 	bnez	v1,5890 <handle_packet+0x8d4>
    5854:	00000000 	nop
    5858:	8fa20070 	lw	v0,112(sp)
    585c:	8fa40070 	lw	a0,112(sp)
    5860:	00021202 	srl	v0,v0,0x8
    5864:	000218c0 	sll	v1,v0,0x3
    5868:	00021040 	sll	v0,v0,0x1
    586c:	00621823 	subu	v1,v1,v0
    5870:	308400ff 	andi	a0,a0,0xff
    5874:	00641821 	addu	v1,v1,a0
    5878:	3c020005 	lui	v0,0x5
    587c:	244205c8 	addiu	v0,v0,1480
    5880:	00031880 	sll	v1,v1,0x2
    5884:	00621821 	addu	v1,v1,v0
    5888:	08001596 	j	5658 <handle_packet+0x69c>
    588c:	24020002 	li	v0,2
    5890:	8fa30094 	lw	v1,148(sp)
    5894:	3c020009 	lui	v0,0x9
    5898:	3442eb11 	ori	v0,v0,0xeb11
    589c:	0062182b 	sltu	v1,v1,v0
    58a0:	1460000f 	bnez	v1,58e0 <handle_packet+0x924>
    58a4:	3c050005 	lui	a1,0x5
    58a8:	8fa30070 	lw	v1,112(sp)
    58ac:	8fa40070 	lw	a0,112(sp)
    58b0:	00031a02 	srl	v1,v1,0x8
    58b4:	000310c0 	sll	v0,v1,0x3
    58b8:	00031840 	sll	v1,v1,0x1
    58bc:	00431023 	subu	v0,v0,v1
    58c0:	308400ff 	andi	a0,a0,0xff
    58c4:	00441021 	addu	v0,v0,a0
    58c8:	24a305c8 	addiu	v1,a1,1480
    58cc:	00021080 	sll	v0,v0,0x2
    58d0:	00431021 	addu	v0,v0,v1
    58d4:	24030001 	li	v1,1
    58d8:	08001644 	j	5910 <handle_packet+0x954>
    58dc:	ac430000 	sw	v1,0(v0)
    58e0:	8fa30070 	lw	v1,112(sp)
    58e4:	8fa40070 	lw	a0,112(sp)
    58e8:	00031a02 	srl	v1,v1,0x8
    58ec:	000310c0 	sll	v0,v1,0x3
    58f0:	00031840 	sll	v1,v1,0x1
    58f4:	00431023 	subu	v0,v0,v1
    58f8:	308400ff 	andi	a0,a0,0xff
    58fc:	00441021 	addu	v0,v0,a0
    5900:	00021080 	sll	v0,v0,0x2
    5904:	24a305c8 	addiu	v1,a1,1480
    5908:	00431021 	addu	v0,v0,v1
    590c:	ac400000 	sw	zero,0(v0)
    5910:	8fa20070 	lw	v0,112(sp)
    5914:	8fa40070 	lw	a0,112(sp)
    5918:	00021202 	srl	v0,v0,0x8
    591c:	000218c0 	sll	v1,v0,0x3
    5920:	00021040 	sll	v0,v0,0x1
    5924:	00621823 	subu	v1,v1,v0
    5928:	308400ff 	andi	a0,a0,0xff
    592c:	3c060005 	lui	a2,0x5
    5930:	00641821 	addu	v1,v1,a0
    5934:	3c020005 	lui	v0,0x5
    5938:	8cc4edd4 	lw	a0,-4652(a2)
    593c:	00031880 	sll	v1,v1,0x2
    5940:	8fa50094 	lw	a1,148(sp)
    5944:	24420658 	addiu	v0,v0,1624
    5948:	00621821 	addu	v1,v1,v0
    594c:	02042021 	addu	a0,s0,a0
    5950:	ac650000 	sw	a1,0(v1)
    5954:	08001687 	j	5a1c <handle_packet+0xa60>
    5958:	acc4edd4 	sw	a0,-4652(a2)
    595c:	8fa40090 	lw	a0,144(sp)
    5960:	8fa20090 	lw	v0,144(sp)
    5964:	3c030005 	lui	v1,0x5
    5968:	2463edc0 	addiu	v1,v1,-4672
    596c:	00021080 	sll	v0,v0,0x2
    5970:	00431021 	addu	v0,v0,v1
    5974:	8c420000 	lw	v0,0(v0)
    5978:	8fa50094 	lw	a1,148(sp)
    597c:	00042080 	sll	a0,a0,0x2
    5980:	00451021 	addu	v0,v0,a1
    5984:	00832021 	addu	a0,a0,v1
    5988:	08001687 	j	5a1c <handle_packet+0xa60>
    598c:	ac820000 	sw	v0,0(a0)
    5990:	8fa4007c 	lw	a0,124(sp)
    5994:	0c00037e 	jal	df8 <page_released>
    5998:	00000000 	nop
    599c:	8fa20068 	lw	v0,104(sp)
    59a0:	8fa40068 	lw	a0,104(sp)
    59a4:	00021202 	srl	v0,v0,0x8
    59a8:	00021900 	sll	v1,v0,0x4
    59ac:	00021080 	sll	v0,v0,0x2
    59b0:	00621823 	subu	v1,v1,v0
    59b4:	308400ff 	andi	a0,a0,0xff
    59b8:	00641821 	addu	v1,v1,a0
    59bc:	3c020004 	lui	v0,0x4
    59c0:	00031880 	sll	v1,v1,0x2
    59c4:	8fa40070 	lw	a0,112(sp)
    59c8:	24427434 	addiu	v0,v0,29748
    59cc:	00621821 	addu	v1,v1,v0
    59d0:	08001687 	j	5a1c <handle_packet+0xa60>
    59d4:	ac640000 	sw	a0,0(v1)
    59d8:	3c040000 	lui	a0,0x0
    59dc:	0c000340 	jal	d00 <puts>
    59e0:	24846ae8 	addiu	a0,a0,27368
    59e4:	8fa40064 	lw	a0,100(sp)
    59e8:	0c000046 	jal	118 <itoh>
    59ec:	00000000 	nop
    59f0:	0c000340 	jal	d00 <puts>
    59f4:	00402021 	move	a0,v0
    59f8:	3c040000 	lui	a0,0x0
    59fc:	0c000340 	jal	d00 <puts>
    5a00:	2484696c 	addiu	a0,a0,26988
    5a04:	3c022000 	lui	v0,0x2000
    5a08:	34420300 	ori	v0,v0,0x300
    5a0c:	3c040000 	lui	a0,0x0
    5a10:	8c450000 	lw	a1,0(v0)
    5a14:	0c00035b 	jal	d6c <putsv>
    5a18:	24846b00 	addiu	a0,a0,27392
    5a1c:	8fbf009c 	lw	ra,156(sp)
    5a20:	8fb00098 	lw	s0,152(sp)
    5a24:	03e00008 	jr	ra
    5a28:	27bd00a0 	addiu	sp,sp,160

00005a2c <main>:
    5a2c:	27bdffd8 	addiu	sp,sp,-40
    5a30:	3c022000 	lui	v0,0x2000
    5a34:	afb10014 	sw	s1,20(sp)
    5a38:	afb00010 	sw	s0,16(sp)
    5a3c:	afbf0020 	sw	ra,32(sp)
    5a40:	afb3001c 	sw	s3,28(sp)
    5a44:	afb20018 	sw	s2,24(sp)
    5a48:	34420140 	ori	v0,v0,0x140
    5a4c:	8c420000 	lw	v0,0(v0)
    5a50:	3c100005 	lui	s0,0x5
    5a54:	ae02edc4 	sw	v0,-4668(s0)
    5a58:	14400011 	bnez	v0,5aa0 <main+0x74>
    5a5c:	3c110005 	lui	s1,0x5
    5a60:	3c040000 	lui	a0,0x0
    5a64:	0c000340 	jal	d00 <puts>
    5a68:	24846ab0 	addiu	a0,a0,27312
    5a6c:	3c040000 	lui	a0,0x0
    5a70:	0c000340 	jal	d00 <puts>
    5a74:	24846b08 	addiu	a0,a0,27400
    5a78:	8e03edc4 	lw	v1,-4668(s0)
    5a7c:	24020001 	li	v0,1
    5a80:	a222edbc 	sb	v0,-4676(s1)
    5a84:	3c020005 	lui	v0,0x5
    5a88:	0c0005be 	jal	16f8 <initialize_clusters>
    5a8c:	a043edcc 	sb	v1,-4660(v0)
    5a90:	0c0005fa 	jal	17e8 <initialize_slaves>
    5a94:	00000000 	nop
    5a98:	080016ad 	j	5ab4 <main+0x88>
    5a9c:	24030001 	li	v1,1
    5aa0:	3c040000 	lui	a0,0x0
    5aa4:	0c000340 	jal	d00 <puts>
    5aa8:	24846b28 	addiu	a0,a0,27432
    5aac:	a220edbc 	sb	zero,-4676(s1)
    5ab0:	24030001 	li	v1,1
    5ab4:	3c020005 	lui	v0,0x5
    5ab8:	ac430570 	sw	v1,1392(v0)
    5abc:	3c020005 	lui	v0,0x5
    5ac0:	24432434 	addiu	v1,v0,9268
    5ac4:	3c020005 	lui	v0,0x5
    5ac8:	24422bdc 	addiu	v0,v0,11228
    5acc:	2404ffff 	li	a0,-1
    5ad0:	ac640000 	sw	a0,0(v1)
    5ad4:	2463001c 	addiu	v1,v1,28
    5ad8:	1462fffd 	bne	v1,v0,5ad0 <main+0xa4>
    5adc:	00000000 	nop
    5ae0:	3c020005 	lui	v0,0x5
    5ae4:	24432204 	addiu	v1,v0,8708
    5ae8:	3c020005 	lui	v0,0x5
    5aec:	24422434 	addiu	v0,v0,9268
    5af0:	2404ffff 	li	a0,-1
    5af4:	ac640000 	sw	a0,0(v1)
    5af8:	24630008 	addiu	v1,v1,8
    5afc:	1462fffd 	bne	v1,v0,5af4 <main+0xc8>
    5b00:	00000000 	nop
    5b04:	24030001 	li	v1,1
    5b08:	3c020005 	lui	v0,0x5
    5b0c:	ac4321ac 	sw	v1,8620(v0)
    5b10:	3c020005 	lui	v0,0x5
    5b14:	ac44213c 	sw	a0,8508(v0)
    5b18:	3c020005 	lui	v0,0x5
    5b1c:	ac432200 	sw	v1,8704(v0)
    5b20:	3c102000 	lui	s0,0x2000
    5b24:	36020020 	ori	v0,s0,0x20
    5b28:	8c420000 	lw	v0,0(v0)
    5b2c:	00000000 	nop
    5b30:	30420020 	andi	v0,v0,0x20
    5b34:	10400005 	beqz	v0,5b4c <main+0x120>
    5b38:	00000000 	nop
    5b3c:	0c0013ef 	jal	4fbc <handle_packet>
    5b40:	3c102000 	lui	s0,0x2000
    5b44:	080016ca 	j	5b28 <main+0xfc>
    5b48:	36020020 	ori	v0,s0,0x20
    5b4c:	36020250 	ori	v0,s0,0x250
    5b50:	8c420000 	lw	v0,0(v0)
    5b54:	00000000 	nop
    5b58:	1440fff1 	bnez	v0,5b20 <main+0xf4>
    5b5c:	36120300 	ori	s2,s0,0x300
    5b60:	3c130005 	lui	s3,0x5
    5b64:	8e420000 	lw	v0,0(s2)
    5b68:	8e63edb8 	lw	v1,-4680(s3)
    5b6c:	00000000 	nop
    5b70:	0043102b 	sltu	v0,v0,v1
    5b74:	14400320 	bnez	v0,67f8 <main+0xdcc>
    5b78:	3c040000 	lui	a0,0x0
    5b7c:	0c000340 	jal	d00 <puts>
    5b80:	24846b48 	addiu	a0,a0,27464
    5b84:	8e440000 	lw	a0,0(s2)
    5b88:	0c00000b 	jal	2c <itoa>
    5b8c:	3c110000 	lui	s1,0x0
    5b90:	0c000340 	jal	d00 <puts>
    5b94:	00402021 	move	a0,v0
    5b98:	0c000340 	jal	d00 <puts>
    5b9c:	2624696c 	addiu	a0,s1,26988
    5ba0:	0c000bf3 	jal	2fcc <temperature>
    5ba4:	00000000 	nop
    5ba8:	3c040000 	lui	a0,0x0
    5bac:	0c000340 	jal	d00 <puts>
    5bb0:	24846b74 	addiu	a0,a0,27508
    5bb4:	8e440000 	lw	a0,0(s2)
    5bb8:	0c00000b 	jal	2c <itoa>
    5bbc:	3c120005 	lui	s2,0x5
    5bc0:	0c000340 	jal	d00 <puts>
    5bc4:	00402021 	move	a0,v0
    5bc8:	0c000340 	jal	d00 <puts>
    5bcc:	2624696c 	addiu	a0,s1,26988
    5bd0:	3c020005 	lui	v0,0x5
    5bd4:	8c43edb4 	lw	v1,-4684(v0)
    5bd8:	8e62edb8 	lw	v0,-4680(s3)
    5bdc:	26520658 	addiu	s2,s2,1624
    5be0:	00431021 	addu	v0,v0,v1
    5be4:	0c00062c 	jal	18b0 <test_slow_proc>
    5be8:	ae62edb8 	sw	v0,-4680(s3)
    5bec:	3c040000 	lui	a0,0x0
    5bf0:	0c000340 	jal	d00 <puts>
    5bf4:	24846ba0 	addiu	a0,a0,27552
    5bf8:	8e440018 	lw	a0,24(s2)
    5bfc:	0c00000b 	jal	2c <itoa>
    5c00:	3c100005 	lui	s0,0x5
    5c04:	0c000340 	jal	d00 <puts>
    5c08:	00402021 	move	a0,v0
    5c0c:	0c000340 	jal	d00 <puts>
    5c10:	2624696c 	addiu	a0,s1,26988
    5c14:	3c040000 	lui	a0,0x0
    5c18:	0c000340 	jal	d00 <puts>
    5c1c:	24846bb8 	addiu	a0,a0,27576
    5c20:	8e440030 	lw	a0,48(s2)
    5c24:	0c00000b 	jal	2c <itoa>
    5c28:	261005c8 	addiu	s0,s0,1480
    5c2c:	0c000340 	jal	d00 <puts>
    5c30:	00402021 	move	a0,v0
    5c34:	0c000340 	jal	d00 <puts>
    5c38:	2624696c 	addiu	a0,s1,26988
    5c3c:	3c040000 	lui	a0,0x0
    5c40:	0c000340 	jal	d00 <puts>
    5c44:	24846bd0 	addiu	a0,a0,27600
    5c48:	8e440048 	lw	a0,72(s2)
    5c4c:	0c00000b 	jal	2c <itoa>
    5c50:	00000000 	nop
    5c54:	0c000340 	jal	d00 <puts>
    5c58:	00402021 	move	a0,v0
    5c5c:	0c000340 	jal	d00 <puts>
    5c60:	2624696c 	addiu	a0,s1,26988
    5c64:	3c040000 	lui	a0,0x0
    5c68:	0c000340 	jal	d00 <puts>
    5c6c:	24846be8 	addiu	a0,a0,27624
    5c70:	8e440060 	lw	a0,96(s2)
    5c74:	0c00000b 	jal	2c <itoa>
    5c78:	00000000 	nop
    5c7c:	0c000340 	jal	d00 <puts>
    5c80:	00402021 	move	a0,v0
    5c84:	0c000340 	jal	d00 <puts>
    5c88:	2624696c 	addiu	a0,s1,26988
    5c8c:	3c040000 	lui	a0,0x0
    5c90:	0c000340 	jal	d00 <puts>
    5c94:	24846c00 	addiu	a0,a0,27648
    5c98:	8e440078 	lw	a0,120(s2)
    5c9c:	0c00000b 	jal	2c <itoa>
    5ca0:	00000000 	nop
    5ca4:	0c000340 	jal	d00 <puts>
    5ca8:	00402021 	move	a0,v0
    5cac:	0c000340 	jal	d00 <puts>
    5cb0:	2624696c 	addiu	a0,s1,26988
    5cb4:	3c040000 	lui	a0,0x0
    5cb8:	0c000340 	jal	d00 <puts>
    5cbc:	24846c18 	addiu	a0,a0,27672
    5cc0:	8e440004 	lw	a0,4(s2)
    5cc4:	0c00000b 	jal	2c <itoa>
    5cc8:	00000000 	nop
    5ccc:	0c000340 	jal	d00 <puts>
    5cd0:	00402021 	move	a0,v0
    5cd4:	0c000340 	jal	d00 <puts>
    5cd8:	2624696c 	addiu	a0,s1,26988
    5cdc:	3c040000 	lui	a0,0x0
    5ce0:	0c000340 	jal	d00 <puts>
    5ce4:	24846c30 	addiu	a0,a0,27696
    5ce8:	8e44001c 	lw	a0,28(s2)
    5cec:	0c00000b 	jal	2c <itoa>
    5cf0:	00000000 	nop
    5cf4:	0c000340 	jal	d00 <puts>
    5cf8:	00402021 	move	a0,v0
    5cfc:	0c000340 	jal	d00 <puts>
    5d00:	2624696c 	addiu	a0,s1,26988
    5d04:	3c040000 	lui	a0,0x0
    5d08:	0c000340 	jal	d00 <puts>
    5d0c:	24846c48 	addiu	a0,a0,27720
    5d10:	8e440034 	lw	a0,52(s2)
    5d14:	0c00000b 	jal	2c <itoa>
    5d18:	00000000 	nop
    5d1c:	0c000340 	jal	d00 <puts>
    5d20:	00402021 	move	a0,v0
    5d24:	0c000340 	jal	d00 <puts>
    5d28:	2624696c 	addiu	a0,s1,26988
    5d2c:	3c040000 	lui	a0,0x0
    5d30:	0c000340 	jal	d00 <puts>
    5d34:	24846c60 	addiu	a0,a0,27744
    5d38:	8e44004c 	lw	a0,76(s2)
    5d3c:	0c00000b 	jal	2c <itoa>
    5d40:	00000000 	nop
    5d44:	0c000340 	jal	d00 <puts>
    5d48:	00402021 	move	a0,v0
    5d4c:	0c000340 	jal	d00 <puts>
    5d50:	2624696c 	addiu	a0,s1,26988
    5d54:	3c040000 	lui	a0,0x0
    5d58:	0c000340 	jal	d00 <puts>
    5d5c:	24846c78 	addiu	a0,a0,27768
    5d60:	8e440064 	lw	a0,100(s2)
    5d64:	0c00000b 	jal	2c <itoa>
    5d68:	00000000 	nop
    5d6c:	0c000340 	jal	d00 <puts>
    5d70:	00402021 	move	a0,v0
    5d74:	0c000340 	jal	d00 <puts>
    5d78:	2624696c 	addiu	a0,s1,26988
    5d7c:	3c040000 	lui	a0,0x0
    5d80:	0c000340 	jal	d00 <puts>
    5d84:	24846c90 	addiu	a0,a0,27792
    5d88:	8e44007c 	lw	a0,124(s2)
    5d8c:	0c00000b 	jal	2c <itoa>
    5d90:	00000000 	nop
    5d94:	0c000340 	jal	d00 <puts>
    5d98:	00402021 	move	a0,v0
    5d9c:	0c000340 	jal	d00 <puts>
    5da0:	2624696c 	addiu	a0,s1,26988
    5da4:	3c040000 	lui	a0,0x0
    5da8:	0c000340 	jal	d00 <puts>
    5dac:	24846ca8 	addiu	a0,a0,27816
    5db0:	8e440008 	lw	a0,8(s2)
    5db4:	0c00000b 	jal	2c <itoa>
    5db8:	00000000 	nop
    5dbc:	0c000340 	jal	d00 <puts>
    5dc0:	00402021 	move	a0,v0
    5dc4:	0c000340 	jal	d00 <puts>
    5dc8:	2624696c 	addiu	a0,s1,26988
    5dcc:	3c040000 	lui	a0,0x0
    5dd0:	0c000340 	jal	d00 <puts>
    5dd4:	24846cc0 	addiu	a0,a0,27840
    5dd8:	8e440020 	lw	a0,32(s2)
    5ddc:	0c00000b 	jal	2c <itoa>
    5de0:	00000000 	nop
    5de4:	0c000340 	jal	d00 <puts>
    5de8:	00402021 	move	a0,v0
    5dec:	0c000340 	jal	d00 <puts>
    5df0:	2624696c 	addiu	a0,s1,26988
    5df4:	3c040000 	lui	a0,0x0
    5df8:	0c000340 	jal	d00 <puts>
    5dfc:	24846cd8 	addiu	a0,a0,27864
    5e00:	8e440038 	lw	a0,56(s2)
    5e04:	0c00000b 	jal	2c <itoa>
    5e08:	00000000 	nop
    5e0c:	0c000340 	jal	d00 <puts>
    5e10:	00402021 	move	a0,v0
    5e14:	0c000340 	jal	d00 <puts>
    5e18:	2624696c 	addiu	a0,s1,26988
    5e1c:	3c040000 	lui	a0,0x0
    5e20:	0c000340 	jal	d00 <puts>
    5e24:	24846cf0 	addiu	a0,a0,27888
    5e28:	8e440050 	lw	a0,80(s2)
    5e2c:	0c00000b 	jal	2c <itoa>
    5e30:	00000000 	nop
    5e34:	0c000340 	jal	d00 <puts>
    5e38:	00402021 	move	a0,v0
    5e3c:	0c000340 	jal	d00 <puts>
    5e40:	2624696c 	addiu	a0,s1,26988
    5e44:	3c040000 	lui	a0,0x0
    5e48:	0c000340 	jal	d00 <puts>
    5e4c:	24846d08 	addiu	a0,a0,27912
    5e50:	8e440068 	lw	a0,104(s2)
    5e54:	0c00000b 	jal	2c <itoa>
    5e58:	00000000 	nop
    5e5c:	0c000340 	jal	d00 <puts>
    5e60:	00402021 	move	a0,v0
    5e64:	0c000340 	jal	d00 <puts>
    5e68:	2624696c 	addiu	a0,s1,26988
    5e6c:	3c040000 	lui	a0,0x0
    5e70:	0c000340 	jal	d00 <puts>
    5e74:	24846d20 	addiu	a0,a0,27936
    5e78:	8e440080 	lw	a0,128(s2)
    5e7c:	0c00000b 	jal	2c <itoa>
    5e80:	00000000 	nop
    5e84:	0c000340 	jal	d00 <puts>
    5e88:	00402021 	move	a0,v0
    5e8c:	0c000340 	jal	d00 <puts>
    5e90:	2624696c 	addiu	a0,s1,26988
    5e94:	3c040000 	lui	a0,0x0
    5e98:	0c000340 	jal	d00 <puts>
    5e9c:	24846d38 	addiu	a0,a0,27960
    5ea0:	8e44000c 	lw	a0,12(s2)
    5ea4:	0c00000b 	jal	2c <itoa>
    5ea8:	00000000 	nop
    5eac:	0c000340 	jal	d00 <puts>
    5eb0:	00402021 	move	a0,v0
    5eb4:	0c000340 	jal	d00 <puts>
    5eb8:	2624696c 	addiu	a0,s1,26988
    5ebc:	3c040000 	lui	a0,0x0
    5ec0:	0c000340 	jal	d00 <puts>
    5ec4:	24846d50 	addiu	a0,a0,27984
    5ec8:	8e440024 	lw	a0,36(s2)
    5ecc:	0c00000b 	jal	2c <itoa>
    5ed0:	00000000 	nop
    5ed4:	0c000340 	jal	d00 <puts>
    5ed8:	00402021 	move	a0,v0
    5edc:	0c000340 	jal	d00 <puts>
    5ee0:	2624696c 	addiu	a0,s1,26988
    5ee4:	3c040000 	lui	a0,0x0
    5ee8:	0c000340 	jal	d00 <puts>
    5eec:	24846d68 	addiu	a0,a0,28008
    5ef0:	8e44003c 	lw	a0,60(s2)
    5ef4:	0c00000b 	jal	2c <itoa>
    5ef8:	00000000 	nop
    5efc:	0c000340 	jal	d00 <puts>
    5f00:	00402021 	move	a0,v0
    5f04:	0c000340 	jal	d00 <puts>
    5f08:	2624696c 	addiu	a0,s1,26988
    5f0c:	3c040000 	lui	a0,0x0
    5f10:	0c000340 	jal	d00 <puts>
    5f14:	24846d80 	addiu	a0,a0,28032
    5f18:	8e440054 	lw	a0,84(s2)
    5f1c:	0c00000b 	jal	2c <itoa>
    5f20:	00000000 	nop
    5f24:	0c000340 	jal	d00 <puts>
    5f28:	00402021 	move	a0,v0
    5f2c:	0c000340 	jal	d00 <puts>
    5f30:	2624696c 	addiu	a0,s1,26988
    5f34:	3c040000 	lui	a0,0x0
    5f38:	0c000340 	jal	d00 <puts>
    5f3c:	24846d98 	addiu	a0,a0,28056
    5f40:	8e44006c 	lw	a0,108(s2)
    5f44:	0c00000b 	jal	2c <itoa>
    5f48:	00000000 	nop
    5f4c:	0c000340 	jal	d00 <puts>
    5f50:	00402021 	move	a0,v0
    5f54:	0c000340 	jal	d00 <puts>
    5f58:	2624696c 	addiu	a0,s1,26988
    5f5c:	3c040000 	lui	a0,0x0
    5f60:	0c000340 	jal	d00 <puts>
    5f64:	24846db0 	addiu	a0,a0,28080
    5f68:	8e440084 	lw	a0,132(s2)
    5f6c:	0c00000b 	jal	2c <itoa>
    5f70:	00000000 	nop
    5f74:	0c000340 	jal	d00 <puts>
    5f78:	00402021 	move	a0,v0
    5f7c:	0c000340 	jal	d00 <puts>
    5f80:	2624696c 	addiu	a0,s1,26988
    5f84:	3c040000 	lui	a0,0x0
    5f88:	0c000340 	jal	d00 <puts>
    5f8c:	24846dc8 	addiu	a0,a0,28104
    5f90:	8e440010 	lw	a0,16(s2)
    5f94:	0c00000b 	jal	2c <itoa>
    5f98:	00000000 	nop
    5f9c:	0c000340 	jal	d00 <puts>
    5fa0:	00402021 	move	a0,v0
    5fa4:	0c000340 	jal	d00 <puts>
    5fa8:	2624696c 	addiu	a0,s1,26988
    5fac:	3c040000 	lui	a0,0x0
    5fb0:	0c000340 	jal	d00 <puts>
    5fb4:	24846de0 	addiu	a0,a0,28128
    5fb8:	8e440028 	lw	a0,40(s2)
    5fbc:	0c00000b 	jal	2c <itoa>
    5fc0:	00000000 	nop
    5fc4:	0c000340 	jal	d00 <puts>
    5fc8:	00402021 	move	a0,v0
    5fcc:	0c000340 	jal	d00 <puts>
    5fd0:	2624696c 	addiu	a0,s1,26988
    5fd4:	3c040000 	lui	a0,0x0
    5fd8:	0c000340 	jal	d00 <puts>
    5fdc:	24846df8 	addiu	a0,a0,28152
    5fe0:	8e440040 	lw	a0,64(s2)
    5fe4:	0c00000b 	jal	2c <itoa>
    5fe8:	00000000 	nop
    5fec:	0c000340 	jal	d00 <puts>
    5ff0:	00402021 	move	a0,v0
    5ff4:	0c000340 	jal	d00 <puts>
    5ff8:	2624696c 	addiu	a0,s1,26988
    5ffc:	3c040000 	lui	a0,0x0
    6000:	0c000340 	jal	d00 <puts>
    6004:	24846e10 	addiu	a0,a0,28176
    6008:	8e440058 	lw	a0,88(s2)
    600c:	0c00000b 	jal	2c <itoa>
    6010:	00000000 	nop
    6014:	0c000340 	jal	d00 <puts>
    6018:	00402021 	move	a0,v0
    601c:	0c000340 	jal	d00 <puts>
    6020:	2624696c 	addiu	a0,s1,26988
    6024:	3c040000 	lui	a0,0x0
    6028:	0c000340 	jal	d00 <puts>
    602c:	24846e28 	addiu	a0,a0,28200
    6030:	8e440070 	lw	a0,112(s2)
    6034:	0c00000b 	jal	2c <itoa>
    6038:	00000000 	nop
    603c:	0c000340 	jal	d00 <puts>
    6040:	00402021 	move	a0,v0
    6044:	0c000340 	jal	d00 <puts>
    6048:	2624696c 	addiu	a0,s1,26988
    604c:	3c040000 	lui	a0,0x0
    6050:	0c000340 	jal	d00 <puts>
    6054:	24846e40 	addiu	a0,a0,28224
    6058:	8e440088 	lw	a0,136(s2)
    605c:	0c00000b 	jal	2c <itoa>
    6060:	00000000 	nop
    6064:	0c000340 	jal	d00 <puts>
    6068:	00402021 	move	a0,v0
    606c:	0c000340 	jal	d00 <puts>
    6070:	2624696c 	addiu	a0,s1,26988
    6074:	3c040000 	lui	a0,0x0
    6078:	0c000340 	jal	d00 <puts>
    607c:	24846e58 	addiu	a0,a0,28248
    6080:	8e440014 	lw	a0,20(s2)
    6084:	0c00000b 	jal	2c <itoa>
    6088:	00000000 	nop
    608c:	0c000340 	jal	d00 <puts>
    6090:	00402021 	move	a0,v0
    6094:	0c000340 	jal	d00 <puts>
    6098:	2624696c 	addiu	a0,s1,26988
    609c:	3c040000 	lui	a0,0x0
    60a0:	0c000340 	jal	d00 <puts>
    60a4:	24846e70 	addiu	a0,a0,28272
    60a8:	8e44002c 	lw	a0,44(s2)
    60ac:	0c00000b 	jal	2c <itoa>
    60b0:	00000000 	nop
    60b4:	0c000340 	jal	d00 <puts>
    60b8:	00402021 	move	a0,v0
    60bc:	0c000340 	jal	d00 <puts>
    60c0:	2624696c 	addiu	a0,s1,26988
    60c4:	3c040000 	lui	a0,0x0
    60c8:	0c000340 	jal	d00 <puts>
    60cc:	24846e88 	addiu	a0,a0,28296
    60d0:	8e440044 	lw	a0,68(s2)
    60d4:	0c00000b 	jal	2c <itoa>
    60d8:	00000000 	nop
    60dc:	0c000340 	jal	d00 <puts>
    60e0:	00402021 	move	a0,v0
    60e4:	0c000340 	jal	d00 <puts>
    60e8:	2624696c 	addiu	a0,s1,26988
    60ec:	3c040000 	lui	a0,0x0
    60f0:	0c000340 	jal	d00 <puts>
    60f4:	24846ea0 	addiu	a0,a0,28320
    60f8:	8e44005c 	lw	a0,92(s2)
    60fc:	0c00000b 	jal	2c <itoa>
    6100:	00000000 	nop
    6104:	0c000340 	jal	d00 <puts>
    6108:	00402021 	move	a0,v0
    610c:	0c000340 	jal	d00 <puts>
    6110:	2624696c 	addiu	a0,s1,26988
    6114:	3c040000 	lui	a0,0x0
    6118:	0c000340 	jal	d00 <puts>
    611c:	24846eb8 	addiu	a0,a0,28344
    6120:	8e440074 	lw	a0,116(s2)
    6124:	0c00000b 	jal	2c <itoa>
    6128:	00000000 	nop
    612c:	0c000340 	jal	d00 <puts>
    6130:	00402021 	move	a0,v0
    6134:	0c000340 	jal	d00 <puts>
    6138:	2624696c 	addiu	a0,s1,26988
    613c:	3c040000 	lui	a0,0x0
    6140:	0c000340 	jal	d00 <puts>
    6144:	24846ed0 	addiu	a0,a0,28368
    6148:	8e44008c 	lw	a0,140(s2)
    614c:	0c00000b 	jal	2c <itoa>
    6150:	00000000 	nop
    6154:	0c000340 	jal	d00 <puts>
    6158:	00402021 	move	a0,v0
    615c:	0c000340 	jal	d00 <puts>
    6160:	2624696c 	addiu	a0,s1,26988
    6164:	3c040000 	lui	a0,0x0
    6168:	0c000340 	jal	d00 <puts>
    616c:	24846ee8 	addiu	a0,a0,28392
    6170:	8e040018 	lw	a0,24(s0)
    6174:	0c00000b 	jal	2c <itoa>
    6178:	00000000 	nop
    617c:	0c000340 	jal	d00 <puts>
    6180:	00402021 	move	a0,v0
    6184:	0c000340 	jal	d00 <puts>
    6188:	2624696c 	addiu	a0,s1,26988
    618c:	3c040000 	lui	a0,0x0
    6190:	0c000340 	jal	d00 <puts>
    6194:	24846f0c 	addiu	a0,a0,28428
    6198:	8e040030 	lw	a0,48(s0)
    619c:	0c00000b 	jal	2c <itoa>
    61a0:	00000000 	nop
    61a4:	0c000340 	jal	d00 <puts>
    61a8:	00402021 	move	a0,v0
    61ac:	0c000340 	jal	d00 <puts>
    61b0:	2624696c 	addiu	a0,s1,26988
    61b4:	3c040000 	lui	a0,0x0
    61b8:	0c000340 	jal	d00 <puts>
    61bc:	24846f30 	addiu	a0,a0,28464
    61c0:	8e040048 	lw	a0,72(s0)
    61c4:	0c00000b 	jal	2c <itoa>
    61c8:	00000000 	nop
    61cc:	0c000340 	jal	d00 <puts>
    61d0:	00402021 	move	a0,v0
    61d4:	0c000340 	jal	d00 <puts>
    61d8:	2624696c 	addiu	a0,s1,26988
    61dc:	3c040000 	lui	a0,0x0
    61e0:	0c000340 	jal	d00 <puts>
    61e4:	24846f54 	addiu	a0,a0,28500
    61e8:	8e040060 	lw	a0,96(s0)
    61ec:	0c00000b 	jal	2c <itoa>
    61f0:	00000000 	nop
    61f4:	0c000340 	jal	d00 <puts>
    61f8:	00402021 	move	a0,v0
    61fc:	0c000340 	jal	d00 <puts>
    6200:	2624696c 	addiu	a0,s1,26988
    6204:	3c040000 	lui	a0,0x0
    6208:	0c000340 	jal	d00 <puts>
    620c:	24846f78 	addiu	a0,a0,28536
    6210:	8e040078 	lw	a0,120(s0)
    6214:	0c00000b 	jal	2c <itoa>
    6218:	00000000 	nop
    621c:	0c000340 	jal	d00 <puts>
    6220:	00402021 	move	a0,v0
    6224:	0c000340 	jal	d00 <puts>
    6228:	2624696c 	addiu	a0,s1,26988
    622c:	3c040000 	lui	a0,0x0
    6230:	0c000340 	jal	d00 <puts>
    6234:	24846f9c 	addiu	a0,a0,28572
    6238:	8e040004 	lw	a0,4(s0)
    623c:	0c00000b 	jal	2c <itoa>
    6240:	00000000 	nop
    6244:	0c000340 	jal	d00 <puts>
    6248:	00402021 	move	a0,v0
    624c:	0c000340 	jal	d00 <puts>
    6250:	2624696c 	addiu	a0,s1,26988
    6254:	3c040000 	lui	a0,0x0
    6258:	0c000340 	jal	d00 <puts>
    625c:	24846fc0 	addiu	a0,a0,28608
    6260:	8e04001c 	lw	a0,28(s0)
    6264:	0c00000b 	jal	2c <itoa>
    6268:	00000000 	nop
    626c:	0c000340 	jal	d00 <puts>
    6270:	00402021 	move	a0,v0
    6274:	0c000340 	jal	d00 <puts>
    6278:	2624696c 	addiu	a0,s1,26988
    627c:	3c040000 	lui	a0,0x0
    6280:	0c000340 	jal	d00 <puts>
    6284:	24846fe4 	addiu	a0,a0,28644
    6288:	8e040034 	lw	a0,52(s0)
    628c:	0c00000b 	jal	2c <itoa>
    6290:	00000000 	nop
    6294:	0c000340 	jal	d00 <puts>
    6298:	00402021 	move	a0,v0
    629c:	0c000340 	jal	d00 <puts>
    62a0:	2624696c 	addiu	a0,s1,26988
    62a4:	3c040000 	lui	a0,0x0
    62a8:	0c000340 	jal	d00 <puts>
    62ac:	24847008 	addiu	a0,a0,28680
    62b0:	8e04004c 	lw	a0,76(s0)
    62b4:	0c00000b 	jal	2c <itoa>
    62b8:	00000000 	nop
    62bc:	0c000340 	jal	d00 <puts>
    62c0:	00402021 	move	a0,v0
    62c4:	0c000340 	jal	d00 <puts>
    62c8:	2624696c 	addiu	a0,s1,26988
    62cc:	3c040000 	lui	a0,0x0
    62d0:	0c000340 	jal	d00 <puts>
    62d4:	2484702c 	addiu	a0,a0,28716
    62d8:	8e040064 	lw	a0,100(s0)
    62dc:	0c00000b 	jal	2c <itoa>
    62e0:	00000000 	nop
    62e4:	0c000340 	jal	d00 <puts>
    62e8:	00402021 	move	a0,v0
    62ec:	0c000340 	jal	d00 <puts>
    62f0:	2624696c 	addiu	a0,s1,26988
    62f4:	3c040000 	lui	a0,0x0
    62f8:	0c000340 	jal	d00 <puts>
    62fc:	24847050 	addiu	a0,a0,28752
    6300:	8e04007c 	lw	a0,124(s0)
    6304:	0c00000b 	jal	2c <itoa>
    6308:	00000000 	nop
    630c:	0c000340 	jal	d00 <puts>
    6310:	00402021 	move	a0,v0
    6314:	0c000340 	jal	d00 <puts>
    6318:	2624696c 	addiu	a0,s1,26988
    631c:	3c040000 	lui	a0,0x0
    6320:	0c000340 	jal	d00 <puts>
    6324:	24847074 	addiu	a0,a0,28788
    6328:	8e040008 	lw	a0,8(s0)
    632c:	0c00000b 	jal	2c <itoa>
    6330:	00000000 	nop
    6334:	0c000340 	jal	d00 <puts>
    6338:	00402021 	move	a0,v0
    633c:	0c000340 	jal	d00 <puts>
    6340:	2624696c 	addiu	a0,s1,26988
    6344:	3c040000 	lui	a0,0x0
    6348:	0c000340 	jal	d00 <puts>
    634c:	24847098 	addiu	a0,a0,28824
    6350:	8e040020 	lw	a0,32(s0)
    6354:	0c00000b 	jal	2c <itoa>
    6358:	00000000 	nop
    635c:	0c000340 	jal	d00 <puts>
    6360:	00402021 	move	a0,v0
    6364:	0c000340 	jal	d00 <puts>
    6368:	2624696c 	addiu	a0,s1,26988
    636c:	3c040000 	lui	a0,0x0
    6370:	0c000340 	jal	d00 <puts>
    6374:	248470bc 	addiu	a0,a0,28860
    6378:	8e040038 	lw	a0,56(s0)
    637c:	0c00000b 	jal	2c <itoa>
    6380:	00000000 	nop
    6384:	0c000340 	jal	d00 <puts>
    6388:	00402021 	move	a0,v0
    638c:	0c000340 	jal	d00 <puts>
    6390:	2624696c 	addiu	a0,s1,26988
    6394:	3c040000 	lui	a0,0x0
    6398:	0c000340 	jal	d00 <puts>
    639c:	248470e0 	addiu	a0,a0,28896
    63a0:	8e040050 	lw	a0,80(s0)
    63a4:	0c00000b 	jal	2c <itoa>
    63a8:	00000000 	nop
    63ac:	0c000340 	jal	d00 <puts>
    63b0:	00402021 	move	a0,v0
    63b4:	0c000340 	jal	d00 <puts>
    63b8:	2624696c 	addiu	a0,s1,26988
    63bc:	3c040000 	lui	a0,0x0
    63c0:	0c000340 	jal	d00 <puts>
    63c4:	24847104 	addiu	a0,a0,28932
    63c8:	8e040068 	lw	a0,104(s0)
    63cc:	0c00000b 	jal	2c <itoa>
    63d0:	00000000 	nop
    63d4:	0c000340 	jal	d00 <puts>
    63d8:	00402021 	move	a0,v0
    63dc:	0c000340 	jal	d00 <puts>
    63e0:	2624696c 	addiu	a0,s1,26988
    63e4:	3c040000 	lui	a0,0x0
    63e8:	0c000340 	jal	d00 <puts>
    63ec:	24847128 	addiu	a0,a0,28968
    63f0:	8e040080 	lw	a0,128(s0)
    63f4:	0c00000b 	jal	2c <itoa>
    63f8:	00000000 	nop
    63fc:	0c000340 	jal	d00 <puts>
    6400:	00402021 	move	a0,v0
    6404:	0c000340 	jal	d00 <puts>
    6408:	2624696c 	addiu	a0,s1,26988
    640c:	3c040000 	lui	a0,0x0
    6410:	0c000340 	jal	d00 <puts>
    6414:	2484714c 	addiu	a0,a0,29004
    6418:	8e04000c 	lw	a0,12(s0)
    641c:	0c00000b 	jal	2c <itoa>
    6420:	00000000 	nop
    6424:	0c000340 	jal	d00 <puts>
    6428:	00402021 	move	a0,v0
    642c:	0c000340 	jal	d00 <puts>
    6430:	2624696c 	addiu	a0,s1,26988
    6434:	3c040000 	lui	a0,0x0
    6438:	0c000340 	jal	d00 <puts>
    643c:	24847170 	addiu	a0,a0,29040
    6440:	8e040024 	lw	a0,36(s0)
    6444:	0c00000b 	jal	2c <itoa>
    6448:	00000000 	nop
    644c:	0c000340 	jal	d00 <puts>
    6450:	00402021 	move	a0,v0
    6454:	0c000340 	jal	d00 <puts>
    6458:	2624696c 	addiu	a0,s1,26988
    645c:	3c040000 	lui	a0,0x0
    6460:	0c000340 	jal	d00 <puts>
    6464:	24847194 	addiu	a0,a0,29076
    6468:	8e04003c 	lw	a0,60(s0)
    646c:	0c00000b 	jal	2c <itoa>
    6470:	00000000 	nop
    6474:	0c000340 	jal	d00 <puts>
    6478:	00402021 	move	a0,v0
    647c:	0c000340 	jal	d00 <puts>
    6480:	2624696c 	addiu	a0,s1,26988
    6484:	3c040000 	lui	a0,0x0
    6488:	0c000340 	jal	d00 <puts>
    648c:	248471b8 	addiu	a0,a0,29112
    6490:	8e040054 	lw	a0,84(s0)
    6494:	0c00000b 	jal	2c <itoa>
    6498:	00000000 	nop
    649c:	0c000340 	jal	d00 <puts>
    64a0:	00402021 	move	a0,v0
    64a4:	0c000340 	jal	d00 <puts>
    64a8:	2624696c 	addiu	a0,s1,26988
    64ac:	3c040000 	lui	a0,0x0
    64b0:	0c000340 	jal	d00 <puts>
    64b4:	248471dc 	addiu	a0,a0,29148
    64b8:	8e04006c 	lw	a0,108(s0)
    64bc:	0c00000b 	jal	2c <itoa>
    64c0:	00000000 	nop
    64c4:	0c000340 	jal	d00 <puts>
    64c8:	00402021 	move	a0,v0
    64cc:	0c000340 	jal	d00 <puts>
    64d0:	2624696c 	addiu	a0,s1,26988
    64d4:	3c040000 	lui	a0,0x0
    64d8:	0c000340 	jal	d00 <puts>
    64dc:	24847200 	addiu	a0,a0,29184
    64e0:	8e040084 	lw	a0,132(s0)
    64e4:	0c00000b 	jal	2c <itoa>
    64e8:	00000000 	nop
    64ec:	0c000340 	jal	d00 <puts>
    64f0:	00402021 	move	a0,v0
    64f4:	0c000340 	jal	d00 <puts>
    64f8:	2624696c 	addiu	a0,s1,26988
    64fc:	3c040000 	lui	a0,0x0
    6500:	0c000340 	jal	d00 <puts>
    6504:	24847224 	addiu	a0,a0,29220
    6508:	8e040010 	lw	a0,16(s0)
    650c:	0c00000b 	jal	2c <itoa>
    6510:	00000000 	nop
    6514:	0c000340 	jal	d00 <puts>
    6518:	00402021 	move	a0,v0
    651c:	0c000340 	jal	d00 <puts>
    6520:	2624696c 	addiu	a0,s1,26988
    6524:	3c040000 	lui	a0,0x0
    6528:	0c000340 	jal	d00 <puts>
    652c:	24847248 	addiu	a0,a0,29256
    6530:	8e040028 	lw	a0,40(s0)
    6534:	0c00000b 	jal	2c <itoa>
    6538:	00000000 	nop
    653c:	0c000340 	jal	d00 <puts>
    6540:	00402021 	move	a0,v0
    6544:	0c000340 	jal	d00 <puts>
    6548:	2624696c 	addiu	a0,s1,26988
    654c:	3c040000 	lui	a0,0x0
    6550:	0c000340 	jal	d00 <puts>
    6554:	2484726c 	addiu	a0,a0,29292
    6558:	8e040040 	lw	a0,64(s0)
    655c:	0c00000b 	jal	2c <itoa>
    6560:	00000000 	nop
    6564:	0c000340 	jal	d00 <puts>
    6568:	00402021 	move	a0,v0
    656c:	0c000340 	jal	d00 <puts>
    6570:	2624696c 	addiu	a0,s1,26988
    6574:	3c040000 	lui	a0,0x0
    6578:	0c000340 	jal	d00 <puts>
    657c:	24847290 	addiu	a0,a0,29328
    6580:	8e040058 	lw	a0,88(s0)
    6584:	0c00000b 	jal	2c <itoa>
    6588:	00000000 	nop
    658c:	0c000340 	jal	d00 <puts>
    6590:	00402021 	move	a0,v0
    6594:	0c000340 	jal	d00 <puts>
    6598:	2624696c 	addiu	a0,s1,26988
    659c:	3c040000 	lui	a0,0x0
    65a0:	0c000340 	jal	d00 <puts>
    65a4:	248472b4 	addiu	a0,a0,29364
    65a8:	8e040070 	lw	a0,112(s0)
    65ac:	0c00000b 	jal	2c <itoa>
    65b0:	00000000 	nop
    65b4:	0c000340 	jal	d00 <puts>
    65b8:	00402021 	move	a0,v0
    65bc:	0c000340 	jal	d00 <puts>
    65c0:	2624696c 	addiu	a0,s1,26988
    65c4:	3c040000 	lui	a0,0x0
    65c8:	0c000340 	jal	d00 <puts>
    65cc:	248472d8 	addiu	a0,a0,29400
    65d0:	8e040088 	lw	a0,136(s0)
    65d4:	0c00000b 	jal	2c <itoa>
    65d8:	00000000 	nop
    65dc:	0c000340 	jal	d00 <puts>
    65e0:	00402021 	move	a0,v0
    65e4:	0c000340 	jal	d00 <puts>
    65e8:	2624696c 	addiu	a0,s1,26988
    65ec:	3c040000 	lui	a0,0x0
    65f0:	0c000340 	jal	d00 <puts>
    65f4:	248472fc 	addiu	a0,a0,29436
    65f8:	8e040014 	lw	a0,20(s0)
    65fc:	0c00000b 	jal	2c <itoa>
    6600:	00000000 	nop
    6604:	0c000340 	jal	d00 <puts>
    6608:	00402021 	move	a0,v0
    660c:	0c000340 	jal	d00 <puts>
    6610:	2624696c 	addiu	a0,s1,26988
    6614:	3c040000 	lui	a0,0x0
    6618:	0c000340 	jal	d00 <puts>
    661c:	24847320 	addiu	a0,a0,29472
    6620:	8e04002c 	lw	a0,44(s0)
    6624:	0c00000b 	jal	2c <itoa>
    6628:	00000000 	nop
    662c:	0c000340 	jal	d00 <puts>
    6630:	00402021 	move	a0,v0
    6634:	0c000340 	jal	d00 <puts>
    6638:	2624696c 	addiu	a0,s1,26988
    663c:	3c040000 	lui	a0,0x0
    6640:	0c000340 	jal	d00 <puts>
    6644:	24847344 	addiu	a0,a0,29508
    6648:	8e040044 	lw	a0,68(s0)
    664c:	0c00000b 	jal	2c <itoa>
    6650:	00000000 	nop
    6654:	0c000340 	jal	d00 <puts>
    6658:	00402021 	move	a0,v0
    665c:	0c000340 	jal	d00 <puts>
    6660:	2624696c 	addiu	a0,s1,26988
    6664:	3c040000 	lui	a0,0x0
    6668:	0c000340 	jal	d00 <puts>
    666c:	24847368 	addiu	a0,a0,29544
    6670:	8e04005c 	lw	a0,92(s0)
    6674:	0c00000b 	jal	2c <itoa>
    6678:	00000000 	nop
    667c:	0c000340 	jal	d00 <puts>
    6680:	00402021 	move	a0,v0
    6684:	0c000340 	jal	d00 <puts>
    6688:	2624696c 	addiu	a0,s1,26988
    668c:	3c040000 	lui	a0,0x0
    6690:	0c000340 	jal	d00 <puts>
    6694:	2484738c 	addiu	a0,a0,29580
    6698:	8e040074 	lw	a0,116(s0)
    669c:	0c00000b 	jal	2c <itoa>
    66a0:	00000000 	nop
    66a4:	0c000340 	jal	d00 <puts>
    66a8:	00402021 	move	a0,v0
    66ac:	0c000340 	jal	d00 <puts>
    66b0:	2624696c 	addiu	a0,s1,26988
    66b4:	3c040000 	lui	a0,0x0
    66b8:	0c000340 	jal	d00 <puts>
    66bc:	248473b0 	addiu	a0,a0,29616
    66c0:	8e04008c 	lw	a0,140(s0)
    66c4:	0c00000b 	jal	2c <itoa>
    66c8:	00000000 	nop
    66cc:	0c000340 	jal	d00 <puts>
    66d0:	00402021 	move	a0,v0
    66d4:	0c000340 	jal	d00 <puts>
    66d8:	2624696c 	addiu	a0,s1,26988
    66dc:	ae400018 	sw	zero,24(s2)
    66e0:	ae400030 	sw	zero,48(s2)
    66e4:	ae400048 	sw	zero,72(s2)
    66e8:	ae400060 	sw	zero,96(s2)
    66ec:	ae400078 	sw	zero,120(s2)
    66f0:	ae400004 	sw	zero,4(s2)
    66f4:	ae40001c 	sw	zero,28(s2)
    66f8:	ae400034 	sw	zero,52(s2)
    66fc:	ae40004c 	sw	zero,76(s2)
    6700:	ae400064 	sw	zero,100(s2)
    6704:	ae40007c 	sw	zero,124(s2)
    6708:	ae400008 	sw	zero,8(s2)
    670c:	ae400020 	sw	zero,32(s2)
    6710:	ae400038 	sw	zero,56(s2)
    6714:	ae400050 	sw	zero,80(s2)
    6718:	ae400068 	sw	zero,104(s2)
    671c:	ae400080 	sw	zero,128(s2)
    6720:	ae40000c 	sw	zero,12(s2)
    6724:	ae400024 	sw	zero,36(s2)
    6728:	ae40003c 	sw	zero,60(s2)
    672c:	ae400054 	sw	zero,84(s2)
    6730:	ae40006c 	sw	zero,108(s2)
    6734:	ae400084 	sw	zero,132(s2)
    6738:	ae400010 	sw	zero,16(s2)
    673c:	ae400028 	sw	zero,40(s2)
    6740:	ae400040 	sw	zero,64(s2)
    6744:	ae400058 	sw	zero,88(s2)
    6748:	ae400070 	sw	zero,112(s2)
    674c:	ae400088 	sw	zero,136(s2)
    6750:	ae400014 	sw	zero,20(s2)
    6754:	ae40002c 	sw	zero,44(s2)
    6758:	ae400044 	sw	zero,68(s2)
    675c:	ae40005c 	sw	zero,92(s2)
    6760:	ae400074 	sw	zero,116(s2)
    6764:	ae40008c 	sw	zero,140(s2)
    6768:	ae000018 	sw	zero,24(s0)
    676c:	ae000030 	sw	zero,48(s0)
    6770:	ae000048 	sw	zero,72(s0)
    6774:	ae000060 	sw	zero,96(s0)
    6778:	ae000078 	sw	zero,120(s0)
    677c:	ae000004 	sw	zero,4(s0)
    6780:	ae00001c 	sw	zero,28(s0)
    6784:	ae000034 	sw	zero,52(s0)
    6788:	ae00004c 	sw	zero,76(s0)
    678c:	ae000064 	sw	zero,100(s0)
    6790:	ae00007c 	sw	zero,124(s0)
    6794:	ae000008 	sw	zero,8(s0)
    6798:	ae000020 	sw	zero,32(s0)
    679c:	ae000038 	sw	zero,56(s0)
    67a0:	ae000050 	sw	zero,80(s0)
    67a4:	ae000068 	sw	zero,104(s0)
    67a8:	ae000080 	sw	zero,128(s0)
    67ac:	ae00000c 	sw	zero,12(s0)
    67b0:	ae000024 	sw	zero,36(s0)
    67b4:	ae00003c 	sw	zero,60(s0)
    67b8:	ae000054 	sw	zero,84(s0)
    67bc:	ae00006c 	sw	zero,108(s0)
    67c0:	ae000084 	sw	zero,132(s0)
    67c4:	ae000010 	sw	zero,16(s0)
    67c8:	ae000028 	sw	zero,40(s0)
    67cc:	ae000040 	sw	zero,64(s0)
    67d0:	ae000058 	sw	zero,88(s0)
    67d4:	ae000070 	sw	zero,112(s0)
    67d8:	ae000088 	sw	zero,136(s0)
    67dc:	ae000014 	sw	zero,20(s0)
    67e0:	ae00002c 	sw	zero,44(s0)
    67e4:	ae000044 	sw	zero,68(s0)
    67e8:	ae00005c 	sw	zero,92(s0)
    67ec:	ae00008c 	sw	zero,140(s0)
    67f0:	080016c8 	j	5b20 <main+0xf4>
    67f4:	ae000074 	sw	zero,116(s0)
    67f8:	0c0001d9 	jal	764 <get_next_task_request>
    67fc:	00000000 	nop
    6800:	10400005 	beqz	v0,6818 <main+0xdec>
    6804:	00000000 	nop
    6808:	0c000983 	jal	260c <handle_task_request>
    680c:	00402021 	move	a0,v0
    6810:	080016c9 	j	5b24 <main+0xf8>
    6814:	3c102000 	lui	s0,0x2000
    6818:	3c020005 	lui	v0,0x5
    681c:	9042edbc 	lbu	v0,-4676(v0)
    6820:	00000000 	nop
    6824:	1040fcbe 	beqz	v0,5b20 <main+0xf4>
    6828:	00000000 	nop
    682c:	0c0001ab 	jal	6ac <get_next_new_task>
    6830:	00000000 	nop
    6834:	10400005 	beqz	v0,684c <main+0xe20>
    6838:	00000000 	nop
    683c:	0c0005b3 	jal	16cc <handle_new_task>
    6840:	00402021 	move	a0,v0
    6844:	080016c9 	j	5b24 <main+0xf8>
    6848:	3c102000 	lui	s0,0x2000
    684c:	36020350 	ori	v0,s0,0x350
    6850:	8c420000 	lw	v0,0(v0)
    6854:	00000000 	nop
    6858:	0441fcb1 	bgez	v0,5b20 <main+0xf4>
    685c:	00000000 	nop
    6860:	0c000a90 	jal	2a40 <handle_app_request>
    6864:	3c102000 	lui	s0,0x2000
    6868:	080016ca 	j	5b28 <main+0xfc>
    686c:	36020020 	ori	v0,s0,0x20
