
dijkstra_0_256_debug.bin: formato do arquivo elf32-bigmips

Disassembly of section .text:

00000000 <entry>:
   0:	341dffff 	li	sp,0xffff
   4:	0c000172 	jal	5c8 <main>
   8:	00000000 	nop
   c:	00002021 	move	a0,zero
  10:	0000000c 	syscall
  14:	00000000 	nop
  18:	08000006 	j	18 <entry+0x18>
  1c:	00000000 	nop

00000020 <SystemCall>:
  20:	0000000c 	syscall
  24:	00000000 	nop
  28:	03e00008 	jr	ra
  2c:	00000000 	nop

00000030 <itoa>:
  30:	14800007 	bnez	a0,50 <itoa+0x20>
  34:	3c050004 	lui	a1,0x4
  38:	24a31040 	addiu	v1,a1,4160
  3c:	24020030 	li	v0,48
  40:	00602021 	move	a0,v1
  44:	a0a21040 	sb	v0,4160(a1)
  48:	08000045 	j	114 <itoa+0xe4>
  4c:	a0600001 	sb	zero,1(v1)
  50:	3c02cccc 	lui	v0,0xcccc
  54:	3442cccd 	ori	v0,v0,0xcccd
  58:	00820019 	multu	a0,v0
  5c:	00404021 	move	t0,v0
  60:	24a71040 	addiu	a3,a1,4160
  64:	24060001 	li	a2,1
  68:	2409000b 	li	t1,11
  6c:	00001810 	mfhi	v1
  70:	000318c2 	srl	v1,v1,0x3
  74:	000310c0 	sll	v0,v1,0x3
  78:	00031840 	sll	v1,v1,0x1
  7c:	00621821 	addu	v1,v1,v0
  80:	00831823 	subu	v1,a0,v1
  84:	24630030 	addiu	v1,v1,48
  88:	0800002f 	j	bc <itoa+0x8c>
  8c:	a0a31040 	sb	v1,4160(a1)
  90:	00880019 	multu	a0,t0
  94:	24c60001 	addiu	a2,a2,1
  98:	00001010 	mfhi	v0
  9c:	000210c2 	srl	v0,v0,0x3
  a0:	000218c0 	sll	v1,v0,0x3
  a4:	00021040 	sll	v0,v0,0x1
  a8:	00431021 	addu	v0,v0,v1
  ac:	00821023 	subu	v0,a0,v0
  b0:	24420030 	addiu	v0,v0,48
  b4:	10c90006 	beq	a2,t1,d0 <itoa+0xa0>
  b8:	a0e20000 	sb	v0,0(a3)
  bc:	00880019 	multu	a0,t0
  c0:	00001010 	mfhi	v0
  c4:	000220c2 	srl	a0,v0,0x3
  c8:	1480fff1 	bnez	a0,90 <itoa+0x60>
  cc:	24e70001 	addiu	a3,a3,1
  d0:	3c020004 	lui	v0,0x4
  d4:	24421034 	addiu	v0,v0,4148
  d8:	24c4ffff 	addiu	a0,a2,-1
  dc:	3c030004 	lui	v1,0x4
  e0:	00822821 	addu	a1,a0,v0
  e4:	24631040 	addiu	v1,v1,4160
  e8:	00c21021 	addu	v0,a2,v0
  ec:	08000040 	j	100 <itoa+0xd0>
  f0:	a0400000 	sb	zero,0(v0)
  f4:	9062ffff 	lbu	v0,-1(v1)
  f8:	2484ffff 	addiu	a0,a0,-1
  fc:	a0a20001 	sb	v0,1(a1)
 100:	24630001 	addiu	v1,v1,1
 104:	0481fffb 	bgez	a0,f4 <itoa+0xc4>
 108:	24a5ffff 	addiu	a1,a1,-1
 10c:	3c020004 	lui	v0,0x4
 110:	24441034 	addiu	a0,v0,4148
 114:	03e00008 	jr	ra
 118:	00801021 	move	v0,a0

0000011c <itoh>:
 11c:	3c020004 	lui	v0,0x4
 120:	24050030 	li	a1,48
 124:	24431028 	addiu	v1,v0,4136
 128:	a0451028 	sb	a1,4136(v0)
 12c:	24020078 	li	v0,120
 130:	a0620001 	sb	v0,1(v1)
 134:	1480000a 	bnez	a0,160 <itoh+0x44>
 138:	a060000a 	sb	zero,10(v1)
 13c:	a0650009 	sb	a1,9(v1)
 140:	a0650002 	sb	a1,2(v1)
 144:	a0650003 	sb	a1,3(v1)
 148:	a0650004 	sb	a1,4(v1)
 14c:	a0650005 	sb	a1,5(v1)
 150:	a0650006 	sb	a1,6(v1)
 154:	a0650007 	sb	a1,7(v1)
 158:	08000068 	j	1a0 <itoh+0x84>
 15c:	a0650008 	sb	a1,8(v1)
 160:	3c020004 	lui	v0,0x4
 164:	24451031 	addiu	a1,v0,4145
 168:	3c020004 	lui	v0,0x4
 16c:	24471029 	addiu	a3,v0,4137
 170:	3082000f 	andi	v0,a0,0xf
 174:	24460030 	addiu	a2,v0,48
 178:	24430057 	addiu	v1,v0,87
 17c:	2c42000a 	sltiu	v0,v0,10
 180:	10400003 	beqz	v0,190 <itoh+0x74>
 184:	00000000 	nop
 188:	08000065 	j	194 <itoh+0x78>
 18c:	a0a60000 	sb	a2,0(a1)
 190:	a0a30000 	sb	v1,0(a1)
 194:	24a5ffff 	addiu	a1,a1,-1
 198:	14a7fff5 	bne	a1,a3,170 <itoh+0x54>
 19c:	00042102 	srl	a0,a0,0x4
 1a0:	3c020004 	lui	v0,0x4
 1a4:	03e00008 	jr	ra
 1a8:	24421028 	addiu	v0,v0,4136

000001ac <abs>:
 1ac:	04810002 	bgez	a0,1b8 <abs+0xc>
 1b0:	00801021 	move	v0,a0
 1b4:	00041023 	negu	v0,a0
 1b8:	03e00008 	jr	ra
 1bc:	00000000 	nop

000001c0 <rand>:
 1c0:	30820001 	andi	v0,a0,0x1
 1c4:	00021023 	negu	v0,v0
 1c8:	3042b400 	andi	v0,v0,0xb400
 1cc:	00042043 	sra	a0,a0,0x1
 1d0:	00822026 	xor	a0,a0,v0
 1d4:	14c00002 	bnez	a2,1e0 <rand+0x20>
 1d8:	0086001a 	div	zero,a0,a2
 1dc:	0007000d 	break	0x7
 1e0:	00001010 	mfhi	v0
 1e4:	03e00008 	jr	ra
 1e8:	00451021 	addu	v0,v0,a1

000001ec <add>:
 1ec:	03e00008 	jr	ra
 1f0:	00851021 	addu	v0,a0,a1

000001f4 <sub>:
 1f4:	03e00008 	jr	ra
 1f8:	00851023 	subu	v0,a0,a1

000001fc <memset>:
 1fc:	00801021 	move	v0,a0
 200:	08000084 	j	210 <memset+0x14>
 204:	00801821 	move	v1,a0
 208:	a0650000 	sb	a1,0(v1)
 20c:	24630001 	addiu	v1,v1,1
 210:	1cc0fffd 	bgtz	a2,208 <memset+0xc>
 214:	24c6ffff 	addiu	a2,a2,-1
 218:	03e00008 	jr	ra
 21c:	00000000 	nop

00000220 <fixetoa>:
 220:	0481003c 	bgez	a0,314 <fixetoa+0xf4>
 224:	00801021 	move	v0,a0
 228:	3c020004 	lui	v0,0x4
 22c:	24471018 	addiu	a3,v0,4120
 230:	3c026666 	lui	v0,0x6666
 234:	00042823 	negu	a1,a0
 238:	344a6667 	ori	t2,v0,0x6667
 23c:	00003021 	move	a2,zero
 240:	24090030 	li	t1,48
 244:	080000a3 	j	28c <fixetoa+0x6c>
 248:	2408000c 	li	t0,12
 24c:	080000a0 	j	280 <fixetoa+0x60>
 250:	a0e90000 	sb	t1,0(a3)
 254:	00aa0018 	mult	a1,t2
 258:	00001010 	mfhi	v0
 25c:	00021083 	sra	v0,v0,0x2
 260:	00431023 	subu	v0,v0,v1
 264:	00021840 	sll	v1,v0,0x1
 268:	000220c0 	sll	a0,v0,0x3
 26c:	00641821 	addu	v1,v1,a0
 270:	00a31823 	subu	v1,a1,v1
 274:	24630030 	addiu	v1,v1,48
 278:	00402821 	move	a1,v0
 27c:	a0e30000 	sb	v1,0(a3)
 280:	24c60001 	addiu	a2,a2,1
 284:	10c80006 	beq	a2,t0,2a0 <fixetoa+0x80>
 288:	24e70001 	addiu	a3,a3,1
 28c:	00051fc3 	sra	v1,a1,0x1f
 290:	14a0fff0 	bnez	a1,254 <fixetoa+0x34>
 294:	28c20005 	slti	v0,a2,5
 298:	1440ffec 	bnez	v0,24c <fixetoa+0x2c>
 29c:	00000000 	nop
 2a0:	3c030004 	lui	v1,0x4
 2a4:	24631008 	addiu	v1,v1,4104
 2a8:	3c020004 	lui	v0,0x4
 2ac:	24c40001 	addiu	a0,a2,1
 2b0:	00604021 	move	t0,v1
 2b4:	24471018 	addiu	a3,v0,4120
 2b8:	00c31821 	addu	v1,a2,v1
 2bc:	00002821 	move	a1,zero
 2c0:	24090004 	li	t1,4
 2c4:	2406002e 	li	a2,46
 2c8:	080000be 	j	2f8 <fixetoa+0xd8>
 2cc:	a0600002 	sb	zero,2(v1)
 2d0:	14a90003 	bne	a1,t1,2e0 <fixetoa+0xc0>
 2d4:	00000000 	nop
 2d8:	a0460000 	sb	a2,0(v0)
 2dc:	2484ffff 	addiu	a0,a0,-1
 2e0:	90e30000 	lbu	v1,0(a3)
 2e4:	00881021 	addu	v0,a0,t0
 2e8:	24a50001 	addiu	a1,a1,1
 2ec:	a0430000 	sb	v1,0(v0)
 2f0:	2484ffff 	addiu	a0,a0,-1
 2f4:	24e70001 	addiu	a3,a3,1
 2f8:	0481fff5 	bgez	a0,2d0 <fixetoa+0xb0>
 2fc:	00881021 	addu	v0,a0,t0
 300:	3c030004 	lui	v1,0x4
 304:	2402002d 	li	v0,45
 308:	24651008 	addiu	a1,v1,4104
 30c:	08000104 	j	410 <fixetoa+0x1f0>
 310:	a0621008 	sb	v0,4104(v1)
 314:	10400005 	beqz	v0,32c <fixetoa+0x10c>
 318:	3c040004 	lui	a0,0x4
 31c:	00402821 	move	a1,v0
 320:	24871018 	addiu	a3,a0,4120
 324:	080000e5 	j	394 <fixetoa+0x174>
 328:	00003021 	move	a2,zero
 32c:	24831018 	addiu	v1,a0,4120
 330:	24020030 	li	v0,48
 334:	00602821 	move	a1,v1
 338:	a0821018 	sb	v0,4120(a0)
 33c:	08000104 	j	410 <fixetoa+0x1f0>
 340:	a0600001 	sb	zero,1(v1)
 344:	24020030 	li	v0,48
 348:	080000e1 	j	384 <fixetoa+0x164>
 34c:	a0e20000 	sb	v0,0(a3)
 350:	3c026666 	lui	v0,0x6666
 354:	34426667 	ori	v0,v0,0x6667
 358:	00a20018 	mult	a1,v0
 35c:	00001010 	mfhi	v0
 360:	00021083 	sra	v0,v0,0x2
 364:	00431023 	subu	v0,v0,v1
 368:	00021840 	sll	v1,v0,0x1
 36c:	000220c0 	sll	a0,v0,0x3
 370:	00641821 	addu	v1,v1,a0
 374:	00a31823 	subu	v1,a1,v1
 378:	24630030 	addiu	v1,v1,48
 37c:	00402821 	move	a1,v0
 380:	a0e30000 	sb	v1,0(a3)
 384:	24c60001 	addiu	a2,a2,1
 388:	2402000c 	li	v0,12
 38c:	10c20006 	beq	a2,v0,3a8 <fixetoa+0x188>
 390:	24e70001 	addiu	a3,a3,1
 394:	00051fc3 	sra	v1,a1,0x1f
 398:	14a0ffed 	bnez	a1,350 <fixetoa+0x130>
 39c:	28c20005 	slti	v0,a2,5
 3a0:	1440ffe8 	bnez	v0,344 <fixetoa+0x124>
 3a4:	00000000 	nop
 3a8:	3c030004 	lui	v1,0x4
 3ac:	24631008 	addiu	v1,v1,4104
 3b0:	3c020004 	lui	v0,0x4
 3b4:	00c02021 	move	a0,a2
 3b8:	00604021 	move	t0,v1
 3bc:	24471018 	addiu	a3,v0,4120
 3c0:	00c31821 	addu	v1,a2,v1
 3c4:	00002821 	move	a1,zero
 3c8:	24090004 	li	t1,4
 3cc:	2406002e 	li	a2,46
 3d0:	08000100 	j	400 <fixetoa+0x1e0>
 3d4:	a0600001 	sb	zero,1(v1)
 3d8:	14a90003 	bne	a1,t1,3e8 <fixetoa+0x1c8>
 3dc:	00000000 	nop
 3e0:	a0460000 	sb	a2,0(v0)
 3e4:	2484ffff 	addiu	a0,a0,-1
 3e8:	90e30000 	lbu	v1,0(a3)
 3ec:	00881021 	addu	v0,a0,t0
 3f0:	24a50001 	addiu	a1,a1,1
 3f4:	a0430000 	sb	v1,0(v0)
 3f8:	2484ffff 	addiu	a0,a0,-1
 3fc:	24e70001 	addiu	a3,a3,1
 400:	0481fff5 	bgez	a0,3d8 <fixetoa+0x1b8>
 404:	00881021 	addu	v0,a0,t0
 408:	3c020004 	lui	v0,0x4
 40c:	24451008 	addiu	a1,v0,4104
 410:	03e00008 	jr	ra
 414:	00a01021 	move	v0,a1

00000418 <strcpy>:
 418:	00801821 	move	v1,a0
 41c:	80a20000 	lb	v0,0(a1)
 420:	24a50001 	addiu	a1,a1,1
 424:	a0620000 	sb	v0,0(v1)
 428:	1440fffc 	bnez	v0,41c <strcpy+0x4>
 42c:	24630001 	addiu	v1,v1,1
 430:	03e00008 	jr	ra
 434:	00801021 	move	v0,a0

00000438 <strlen>:
 438:	00801821 	move	v1,a0
 43c:	80620000 	lb	v0,0(v1)
 440:	00000000 	nop
 444:	1440fffd 	bnez	v0,43c <strlen+0x4>
 448:	24630001 	addiu	v1,v1,1
 44c:	00641023 	subu	v0,v1,a0
 450:	03e00008 	jr	ra
 454:	2442ffff 	addiu	v0,v0,-1

00000458 <qcount>:
 458:	3c020004 	lui	v0,0x4
 45c:	24424b90 	addiu	v0,v0,19344
 460:	00042080 	sll	a0,a0,0x2
 464:	00822021 	addu	a0,a0,v0
 468:	8c820000 	lw	v0,0(a0)
 46c:	03e00008 	jr	ra
 470:	00000000 	nop

00000474 <sendPath>:
 474:	00051880 	sll	v1,a1,0x2
 478:	00051100 	sll	v0,a1,0x4
 47c:	27bdffe8 	addiu	sp,sp,-24
 480:	00431023 	subu	v0,v0,v1
 484:	afb00010 	sw	s0,16(sp)
 488:	00441021 	addu	v0,v0,a0
 48c:	afbf0014 	sw	ra,20(sp)
 490:	8c430004 	lw	v1,4(v0)
 494:	2402270f 	li	v0,9999
 498:	00a08021 	move	s0,a1
 49c:	10620003 	beq	v1,v0,4ac <sendPath+0x38>
 4a0:	00602821 	move	a1,v1
 4a4:	0c00011d 	jal	474 <sendPath>
 4a8:	00000000 	nop
 4ac:	3c050004 	lui	a1,0x4
 4b0:	8ca41004 	lw	a0,4100(a1)
 4b4:	3c020004 	lui	v0,0x4
 4b8:	00041880 	sll	v1,a0,0x2
 4bc:	2442434c 	addiu	v0,v0,17228
 4c0:	00621821 	addu	v1,v1,v0
 4c4:	24840001 	addiu	a0,a0,1
 4c8:	26020001 	addiu	v0,s0,1
 4cc:	ac620000 	sw	v0,0(v1)
 4d0:	aca41004 	sw	a0,4100(a1)
 4d4:	8fbf0014 	lw	ra,20(sp)
 4d8:	8fb00010 	lw	s0,16(sp)
 4dc:	03e00008 	jr	ra
 4e0:	27bd0018 	addiu	sp,sp,24

000004e4 <dijkstra>:
 4e4:	03e00008 	jr	ra
 4e8:	00000000 	nop

000004ec <sendResult>:
 4ec:	27bdfde0 	addiu	sp,sp,-544
 4f0:	24030003 	li	v1,3
 4f4:	3c020004 	lui	v0,0x4
 4f8:	afbf021c 	sw	ra,540(sp)
 4fc:	afb00218 	sw	s0,536(sp)
 500:	ac431004 	sw	v1,4100(v0)
 504:	3c020004 	lui	v0,0x4
 508:	00801821 	move	v1,a0
 50c:	2444434c 	addiu	a0,v0,17228
 510:	3c020004 	lui	v0,0x4
 514:	00a03821 	move	a3,a1
 518:	244243d0 	addiu	v0,v0,17360
 51c:	ac800000 	sw	zero,0(a0)
 520:	24840004 	addiu	a0,a0,4
 524:	1482fffd 	bne	a0,v0,51c <sendResult+0x30>
 528:	00032a00 	sll	a1,v1,0x8
 52c:	00062080 	sll	a0,a2,0x2
 530:	00061100 	sll	v0,a2,0x4
 534:	00031980 	sll	v1,v1,0x6
 538:	00a32823 	subu	a1,a1,v1
 53c:	00441023 	subu	v0,v0,a0
 540:	3c040004 	lui	a0,0x4
 544:	2484124c 	addiu	a0,a0,4684
 548:	00451021 	addu	v0,v0,a1
 54c:	00441021 	addu	v0,v0,a0
 550:	8c430000 	lw	v1,0(v0)
 554:	3c020004 	lui	v0,0x4
 558:	2450434c 	addiu	s0,v0,17228
 55c:	00a42021 	addu	a0,a1,a0
 560:	00c02821 	move	a1,a2
 564:	ac47434c 	sw	a3,17228(v0)
 568:	ae030008 	sw	v1,8(s0)
 56c:	0c00011d 	jal	474 <sendPath>
 570:	ae060004 	sw	a2,4(s0)
 574:	24020021 	li	v0,33
 578:	afa20010 	sw	v0,16(sp)
 57c:	3c020004 	lui	v0,0x4
 580:	244443d0 	addiu	a0,v0,17360
 584:	27a30014 	addiu	v1,sp,20
 588:	8e020000 	lw	v0,0(s0)
 58c:	26100004 	addiu	s0,s0,4
 590:	ac620000 	sw	v0,0(v1)
 594:	1604fffc 	bne	s0,a0,588 <sendResult+0x9c>
 598:	24630004 	addiu	v1,v1,4
 59c:	24040001 	li	a0,1
 5a0:	27a50010 	addiu	a1,sp,16
 5a4:	24060005 	li	a2,5
 5a8:	0c000008 	jal	20 <SystemCall>
 5ac:	00003821 	move	a3,zero
 5b0:	1040fffb 	beqz	v0,5a0 <sendResult+0xb4>
 5b4:	24040001 	li	a0,1
 5b8:	8fbf021c 	lw	ra,540(sp)
 5bc:	8fb00218 	lw	s0,536(sp)
 5c0:	03e00008 	jr	ra
 5c4:	27bd0220 	addiu	sp,sp,544

000005c8 <main>:
 5c8:	27bdfdd8 	addiu	sp,sp,-552
 5cc:	3c020004 	lui	v0,0x4
 5d0:	afbf0224 	sw	ra,548(sp)
 5d4:	afb20220 	sw	s2,544(sp)
 5d8:	afb1021c 	sw	s1,540(sp)
 5dc:	afb00218 	sw	s0,536(sp)
 5e0:	ac401000 	sw	zero,4096(v0)
 5e4:	24020078 	li	v0,120
 5e8:	afa20010 	sw	v0,16(sp)
 5ec:	27b20010 	addiu	s2,sp,16
 5f0:	24040002 	li	a0,2
 5f4:	02402821 	move	a1,s2
 5f8:	24060005 	li	a2,5
 5fc:	0c000008 	jal	20 <SystemCall>
 600:	00003821 	move	a3,zero
 604:	1040fff9 	beqz	v0,5ec <main+0x24>
 608:	3c020004 	lui	v0,0x4
 60c:	244447d0 	addiu	a0,v0,18384
 610:	27a30014 	addiu	v1,sp,20
 614:	27a501f4 	addiu	a1,sp,500
 618:	8c620000 	lw	v0,0(v1)
 61c:	24630004 	addiu	v1,v1,4
 620:	ac820000 	sw	v0,0(a0)
 624:	1465fffc 	bne	v1,a1,618 <main+0x50>
 628:	24840008 	addiu	a0,a0,8
 62c:	24040002 	li	a0,2
 630:	02402821 	move	a1,s2
 634:	24060005 	li	a2,5
 638:	0c000008 	jal	20 <SystemCall>
 63c:	00003821 	move	a3,zero
 640:	1040fffa 	beqz	v0,62c <main+0x64>
 644:	3c020004 	lui	v0,0x4
 648:	244447d4 	addiu	a0,v0,18388
 64c:	27a30014 	addiu	v1,sp,20
 650:	27a501f4 	addiu	a1,sp,500
 654:	8c620000 	lw	v0,0(v1)
 658:	24630004 	addiu	v1,v1,4
 65c:	ac820000 	sw	v0,0(a0)
 660:	1465fffc 	bne	v1,a1,654 <main+0x8c>
 664:	24840008 	addiu	a0,a0,8
 668:	24020040 	li	v0,64
 66c:	afa20010 	sw	v0,16(sp)
 670:	24040002 	li	a0,2
 674:	02402821 	move	a1,s2
 678:	24060005 	li	a2,5
 67c:	0c000008 	jal	20 <SystemCall>
 680:	00003821 	move	a3,zero
 684:	1040fffa 	beqz	v0,670 <main+0xa8>
 688:	3c020004 	lui	v0,0x4
 68c:	2444104c 	addiu	a0,v0,4172
 690:	27a30014 	addiu	v1,sp,20
 694:	27a50114 	addiu	a1,sp,276
 698:	8c620000 	lw	v0,0(v1)
 69c:	24630004 	addiu	v1,v1,4
 6a0:	ac820000 	sw	v0,0(a0)
 6a4:	1465fffc 	bne	v1,a1,698 <main+0xd0>
 6a8:	24840008 	addiu	a0,a0,8
 6ac:	24040002 	li	a0,2
 6b0:	02402821 	move	a1,s2
 6b4:	24060005 	li	a2,5
 6b8:	0c000008 	jal	20 <SystemCall>
 6bc:	00003821 	move	a3,zero
 6c0:	1040fffa 	beqz	v0,6ac <main+0xe4>
 6c4:	3c020004 	lui	v0,0x4
 6c8:	24441050 	addiu	a0,v0,4176
 6cc:	27a30014 	addiu	v1,sp,20
 6d0:	27a50114 	addiu	a1,sp,276
 6d4:	8c620000 	lw	v0,0(v1)
 6d8:	24630004 	addiu	v1,v1,4
 6dc:	ac820000 	sw	v0,0(a0)
 6e0:	1465fffc 	bne	v1,a1,6d4 <main+0x10c>
 6e4:	24840008 	addiu	a0,a0,8
 6e8:	24020010 	li	v0,16
 6ec:	afa20010 	sw	v0,16(sp)
 6f0:	00008021 	move	s0,zero
 6f4:	24040002 	li	a0,2
 6f8:	02402821 	move	a1,s2
 6fc:	24060005 	li	a2,5
 700:	0c000008 	jal	20 <SystemCall>
 704:	00003821 	move	a3,zero
 708:	1040fffb 	beqz	v0,6f8 <main+0x130>
 70c:	24040002 	li	a0,2
 710:	3c020004 	lui	v0,0x4
 714:	00101880 	sll	v1,s0,0x2
 718:	244243d0 	addiu	v0,v0,17360
 71c:	00621821 	addu	v1,v1,v0
 720:	27a40014 	addiu	a0,sp,20
 724:	27a50054 	addiu	a1,sp,84
 728:	8c820000 	lw	v0,0(a0)
 72c:	24840004 	addiu	a0,a0,4
 730:	ac620000 	sw	v0,0(v1)
 734:	1485fffc 	bne	a0,a1,728 <main+0x160>
 738:	24630040 	addiu	v1,v1,64
 73c:	26100001 	addiu	s0,s0,1
 740:	2a020010 	slti	v0,s0,16
 744:	1440ffec 	bnez	v0,6f8 <main+0x130>
 748:	24040002 	li	a0,2
 74c:	3c020004 	lui	v0,0x4
 750:	8c51104c 	lw	s1,4172(v0)
 754:	3c020004 	lui	v0,0x4
 758:	001118c0 	sll	v1,s1,0x3
 75c:	244247d0 	addiu	v0,v0,18384
 760:	0800024e 	j	938 <main+0x370>
 764:	00628021 	addu	s0,v1,v0
 768:	8e180000 	lw	t8,0(s0)
 76c:	24444c90 	addiu	a0,v0,19600
 770:	2403270f 	li	v1,9999
 774:	8e060004 	lw	a2,4(s0)
 778:	ac404c90 	sw	zero,19600(v0)
 77c:	3c020004 	lui	v0,0x4
 780:	ac830004 	sw	v1,4(a0)
 784:	ac404b90 	sw	zero,19344(v0)
 788:	3c020004 	lui	v0,0x4
 78c:	244243d0 	addiu	v0,v0,17360
 790:	00182980 	sll	a1,t8,0x6
 794:	00a22821 	addu	a1,a1,v0
 798:	3c020004 	lui	v0,0x4
 79c:	ac830008 	sw	v1,8(a0)
 7a0:	2443124c 	addiu	v1,v0,4684
 7a4:	3c020004 	lui	v0,0x4
 7a8:	2447130c 	addiu	a3,v0,4876
 7ac:	2404270f 	li	a0,9999
 7b0:	8ca20000 	lw	v0,0(a1)
 7b4:	ac640004 	sw	a0,4(v1)
 7b8:	ac620000 	sw	v0,0(v1)
 7bc:	ac600008 	sw	zero,8(v1)
 7c0:	2463000c 	addiu	v1,v1,12
 7c4:	1467fffa 	bne	v1,a3,7b0 <main+0x1e8>
 7c8:	24a50004 	addiu	a1,a1,4
 7cc:	240bffff 	li	t3,-1
 7d0:	00004021 	move	t0,zero
 7d4:	08000280 	j	a00 <main+0x438>
 7d8:	00006821 	move	t5,zero
 7dc:	3c020004 	lui	v0,0x4
 7e0:	24474c90 	addiu	a3,v0,19600
 7e4:	8ca20000 	lw	v0,0(a1)
 7e8:	00000000 	nop
 7ec:	1440000b 	bnez	v0,81c <main+0x254>
 7f0:	00000000 	nop
 7f4:	8ca3fff8 	lw	v1,-8(a1)
 7f8:	8ce20008 	lw	v0,8(a3)
 7fc:	00000000 	nop
 800:	0062102a 	slt	v0,v1,v0
 804:	10400005 	beqz	v0,81c <main+0x254>
 808:	00000000 	nop
 80c:	10600003 	beqz	v1,81c <main+0x254>
 810:	00000000 	nop
 814:	ace40004 	sw	a0,4(a3)
 818:	ace30008 	sw	v1,8(a3)
 81c:	24840001 	addiu	a0,a0,1
 820:	24020010 	li	v0,16
 824:	1482ffed 	bne	a0,v0,7dc <main+0x214>
 828:	24a5000c 	addiu	a1,a1,12
 82c:	3c020004 	lui	v0,0x4
 830:	24434c90 	addiu	v1,v0,19600
 834:	8c6a0008 	lw	t2,8(v1)
 838:	00000000 	nop
 83c:	2942270f 	slti	v0,t2,9999
 840:	14400003 	bnez	v0,850 <main+0x288>
 844:	00000000 	nop
 848:	08000216 	j	858 <main+0x290>
 84c:	240a270f 	li	t2,9999
 850:	8c6b0004 	lw	t3,4(v1)
 854:	250d0001 	addiu	t5,t0,1
 858:	000b1080 	sll	v0,t3,0x2
 85c:	000b1900 	sll	v1,t3,0x4
 860:	00621823 	subu	v1,v1,v0
 864:	3c020004 	lui	v0,0x4
 868:	24451254 	addiu	a1,v0,4692
 86c:	3c020004 	lui	v0,0x4
 870:	244243d0 	addiu	v0,v0,17360
 874:	000b2180 	sll	a0,t3,0x6
 878:	00823821 	addu	a3,a0,v0
 87c:	3c020004 	lui	v0,0x4
 880:	2442124c 	addiu	v0,v0,4684
 884:	00626021 	addu	t4,v1,v0
 888:	00004021 	move	t0,zero
 88c:	240f0001 	li	t7,1
 890:	240e0010 	li	t6,16
 894:	00a04821 	move	t1,a1
 898:	150b0003 	bne	t0,t3,8a8 <main+0x2e0>
 89c:	00000000 	nop
 8a0:	08000237 	j	8dc <main+0x314>
 8a4:	ad2f0000 	sw	t7,0(t1)
 8a8:	8ca20000 	lw	v0,0(a1)
 8ac:	00000000 	nop
 8b0:	1440000a 	bnez	v0,8dc <main+0x314>
 8b4:	00000000 	nop
 8b8:	8d840000 	lw	a0,0(t4)
 8bc:	8ce30000 	lw	v1,0(a3)
 8c0:	8ca2fff8 	lw	v0,-8(a1)
 8c4:	00832021 	addu	a0,a0,v1
 8c8:	0082102a 	slt	v0,a0,v0
 8cc:	10400003 	beqz	v0,8dc <main+0x314>
 8d0:	00000000 	nop
 8d4:	aca4fff8 	sw	a0,-8(a1)
 8d8:	acabfffc 	sw	t3,-4(a1)
 8dc:	25080001 	addiu	t0,t0,1
 8e0:	2529000c 	addiu	t1,t1,12
 8e4:	24a5000c 	addiu	a1,a1,12
 8e8:	150effeb 	bne	t0,t6,898 <main+0x2d0>
 8ec:	24e70004 	addiu	a3,a3,4
 8f0:	2403270f 	li	v1,9999
 8f4:	3c020004 	lui	v0,0x4
 8f8:	29a4000f 	slti	a0,t5,15
 8fc:	1480003f 	bnez	a0,9fc <main+0x434>
 900:	ac434c98 	sw	v1,19608(v0)
 904:	3c020004 	lui	v0,0x4
 908:	ac4a424c 	sw	t2,16972(v0)
 90c:	03002821 	move	a1,t8
 910:	3c020004 	lui	v0,0x4
 914:	00002021 	move	a0,zero
 918:	0c00013b 	jal	4ec <sendResult>
 91c:	ac4d4b90 	sw	t5,19344(v0)
 920:	3c030004 	lui	v1,0x4
 924:	8c621000 	lw	v0,4096(v1)
 928:	26310001 	addiu	s1,s1,1
 92c:	24420001 	addiu	v0,v0,1
 930:	ac621000 	sw	v0,4096(v1)
 934:	26100008 	addiu	s0,s0,8
 938:	3c020004 	lui	v0,0x4
 93c:	8c421050 	lw	v0,4176(v0)
 940:	00000000 	nop
 944:	0222102a 	slt	v0,s1,v0
 948:	1440ff87 	bnez	v0,768 <main+0x1a0>
 94c:	3c020004 	lui	v0,0x4
 950:	24020021 	li	v0,33
 954:	afa20010 	sw	v0,16(sp)
 958:	2402ffff 	li	v0,-1
 95c:	afa20014 	sw	v0,20(sp)
 960:	24040001 	li	a0,1
 964:	02402821 	move	a1,s2
 968:	24060005 	li	a2,5
 96c:	0c000008 	jal	20 <SystemCall>
 970:	00003821 	move	a3,zero
 974:	1040fffa 	beqz	v0,960 <main+0x398>
 978:	3c050000 	lui	a1,0x0
 97c:	24a50a2c 	addiu	a1,a1,2604
 980:	24040004 	li	a0,4
 984:	00003021 	move	a2,zero
 988:	0c000008 	jal	20 <SystemCall>
 98c:	00003821 	move	a3,zero
 990:	00002821 	move	a1,zero
 994:	00003021 	move	a2,zero
 998:	00003821 	move	a3,zero
 99c:	0c000008 	jal	20 <SystemCall>
 9a0:	24040003 	li	a0,3
 9a4:	0c00000c 	jal	30 <itoa>
 9a8:	00402021 	move	a0,v0
 9ac:	00402821 	move	a1,v0
 9b0:	24040004 	li	a0,4
 9b4:	00003021 	move	a2,zero
 9b8:	0c000008 	jal	20 <SystemCall>
 9bc:	00003821 	move	a3,zero
 9c0:	3c050000 	lui	a1,0x0
 9c4:	24a50a38 	addiu	a1,a1,2616
 9c8:	24040004 	li	a0,4
 9cc:	00003021 	move	a2,zero
 9d0:	0c000008 	jal	20 <SystemCall>
 9d4:	00003821 	move	a3,zero
 9d8:	00002021 	move	a0,zero
 9dc:	00002821 	move	a1,zero
 9e0:	00003021 	move	a2,zero
 9e4:	0c000008 	jal	20 <SystemCall>
 9e8:	00003821 	move	a3,zero
 9ec:	14400008 	bnez	v0,a10 <main+0x448>
 9f0:	00002021 	move	a0,zero
 9f4:	08000278 	j	9e0 <main+0x418>
 9f8:	00002821 	move	a1,zero
 9fc:	01a04021 	move	t0,t5
 a00:	3c020004 	lui	v0,0x4
 a04:	24451254 	addiu	a1,v0,4692
 a08:	080001f7 	j	7dc <main+0x214>
 a0c:	00002021 	move	a0,zero
 a10:	8fbf0224 	lw	ra,548(sp)
 a14:	8fb20220 	lw	s2,544(sp)
 a18:	8fb1021c 	lw	s1,540(sp)
 a1c:	8fb00218 	lw	s0,536(sp)
 a20:	00001021 	move	v0,zero
 a24:	03e00008 	jr	ra
 a28:	27bd0228 	addiu	sp,sp,552
