
kernel_master_debug.bin: formato do arquivo elf32-bigmips

Disassembly of section .text:

00000000 <entry>:
       0:	3c1d000f 	lui	sp,0xf
       4:	37bdffff 	ori	sp,sp,0xffff
       8:	0c001604 	jal	5810 <main>
       c:	00000000 	nop
      10:	08000004 	j	10 <entry+0x10>
      14:	00000000 	nop

00000018 <get_net_address>:
      18:	3c022000 	lui	v0,0x2000
      1c:	34420140 	ori	v0,v0,0x140
      20:	8c420000 	lw	v0,0(v0)
      24:	03e00008 	jr	ra
      28:	00000000 	nop

0000002c <itoa>:
      2c:	14800007 	bnez	a0,4c <itoa+0x20>
      30:	3c050005 	lui	a1,0x5
      34:	24a32fd8 	addiu	v1,a1,12248
      38:	24020030 	li	v0,48
      3c:	00602021 	move	a0,v1
      40:	a0a22fd8 	sb	v0,12248(a1)
      44:	08000044 	j	110 <itoa+0xe4>
      48:	a0600001 	sb	zero,1(v1)
      4c:	3c02cccc 	lui	v0,0xcccc
      50:	3442cccd 	ori	v0,v0,0xcccd
      54:	00820019 	multu	a0,v0
      58:	00404021 	move	t0,v0
      5c:	24a72fd8 	addiu	a3,a1,12248
      60:	24060001 	li	a2,1
      64:	2409000b 	li	t1,11
      68:	00001810 	mfhi	v1
      6c:	000318c2 	srl	v1,v1,0x3
      70:	000310c0 	sll	v0,v1,0x3
      74:	00031840 	sll	v1,v1,0x1
      78:	00621821 	addu	v1,v1,v0
      7c:	00831823 	subu	v1,a0,v1
      80:	24630030 	addiu	v1,v1,48
      84:	0800002e 	j	b8 <itoa+0x8c>
      88:	a0a32fd8 	sb	v1,12248(a1)
      8c:	00880019 	multu	a0,t0
      90:	24c60001 	addiu	a2,a2,1
      94:	00001010 	mfhi	v0
      98:	000210c2 	srl	v0,v0,0x3
      9c:	000218c0 	sll	v1,v0,0x3
      a0:	00021040 	sll	v0,v0,0x1
      a4:	00431021 	addu	v0,v0,v1
      a8:	00821023 	subu	v0,a0,v0
      ac:	24420030 	addiu	v0,v0,48
      b0:	10c90006 	beq	a2,t1,cc <itoa+0xa0>
      b4:	a0e20000 	sb	v0,0(a3)
      b8:	00880019 	multu	a0,t0
      bc:	00001010 	mfhi	v0
      c0:	000220c2 	srl	a0,v0,0x3
      c4:	1480fff1 	bnez	a0,8c <itoa+0x60>
      c8:	24e70001 	addiu	a3,a3,1
      cc:	3c020005 	lui	v0,0x5
      d0:	24422fcc 	addiu	v0,v0,12236
      d4:	24c4ffff 	addiu	a0,a2,-1
      d8:	3c030005 	lui	v1,0x5
      dc:	00822821 	addu	a1,a0,v0
      e0:	24632fd8 	addiu	v1,v1,12248
      e4:	00c21021 	addu	v0,a2,v0
      e8:	0800003f 	j	fc <itoa+0xd0>
      ec:	a0400000 	sb	zero,0(v0)
      f0:	9062ffff 	lbu	v0,-1(v1)
      f4:	2484ffff 	addiu	a0,a0,-1
      f8:	a0a20001 	sb	v0,1(a1)
      fc:	24630001 	addiu	v1,v1,1
     100:	0481fffb 	bgez	a0,f0 <itoa+0xc4>
     104:	24a5ffff 	addiu	a1,a1,-1
     108:	3c020005 	lui	v0,0x5
     10c:	24442fcc 	addiu	a0,v0,12236
     110:	03e00008 	jr	ra
     114:	00801021 	move	v0,a0

00000118 <itoh>:
     118:	3c020005 	lui	v0,0x5
     11c:	24050030 	li	a1,48
     120:	24432fc0 	addiu	v1,v0,12224
     124:	a0452fc0 	sb	a1,12224(v0)
     128:	24020078 	li	v0,120
     12c:	a0620001 	sb	v0,1(v1)
     130:	1480000a 	bnez	a0,15c <itoh+0x44>
     134:	a060000a 	sb	zero,10(v1)
     138:	a0650009 	sb	a1,9(v1)
     13c:	a0650002 	sb	a1,2(v1)
     140:	a0650003 	sb	a1,3(v1)
     144:	a0650004 	sb	a1,4(v1)
     148:	a0650005 	sb	a1,5(v1)
     14c:	a0650006 	sb	a1,6(v1)
     150:	a0650007 	sb	a1,7(v1)
     154:	08000067 	j	19c <itoh+0x84>
     158:	a0650008 	sb	a1,8(v1)
     15c:	3c020005 	lui	v0,0x5
     160:	24452fc9 	addiu	a1,v0,12233
     164:	3c020005 	lui	v0,0x5
     168:	24472fc1 	addiu	a3,v0,12225
     16c:	3082000f 	andi	v0,a0,0xf
     170:	24460030 	addiu	a2,v0,48
     174:	24430057 	addiu	v1,v0,87
     178:	2c42000a 	sltiu	v0,v0,10
     17c:	10400003 	beqz	v0,18c <itoh+0x74>
     180:	00000000 	nop
     184:	08000064 	j	190 <itoh+0x78>
     188:	a0a60000 	sb	a2,0(a1)
     18c:	a0a30000 	sb	v1,0(a1)
     190:	24a5ffff 	addiu	a1,a1,-1
     194:	14a7fff5 	bne	a1,a3,16c <itoh+0x54>
     198:	00042102 	srl	a0,a0,0x4
     19c:	3c020005 	lui	v0,0x5
     1a0:	03e00008 	jr	ra
     1a4:	24422fc0 	addiu	v0,v0,12224

000001a8 <abs>:
     1a8:	04810002 	bgez	a0,1b4 <abs+0xc>
     1ac:	00801021 	move	v0,a0
     1b0:	00041023 	negu	v0,a0
     1b4:	03e00008 	jr	ra
     1b8:	00000000 	nop

000001bc <rand>:
     1bc:	30820001 	andi	v0,a0,0x1
     1c0:	00021023 	negu	v0,v0
     1c4:	3042b400 	andi	v0,v0,0xb400
     1c8:	00042043 	sra	a0,a0,0x1
     1cc:	00822026 	xor	a0,a0,v0
     1d0:	14c00002 	bnez	a2,1dc <rand+0x20>
     1d4:	0086001a 	div	zero,a0,a2
     1d8:	0007000d 	break	0x7
     1dc:	00001010 	mfhi	v0
     1e0:	03e00008 	jr	ra
     1e4:	00451021 	addu	v0,v0,a1

000001e8 <add>:
     1e8:	03e00008 	jr	ra
     1ec:	00851021 	addu	v0,a0,a1

000001f0 <sub>:
     1f0:	03e00008 	jr	ra
     1f4:	00851023 	subu	v0,a0,a1

000001f8 <memset>:
     1f8:	00801021 	move	v0,a0
     1fc:	08000083 	j	20c <memset+0x14>
     200:	00801821 	move	v1,a0
     204:	a0650000 	sb	a1,0(v1)
     208:	24630001 	addiu	v1,v1,1
     20c:	1cc0fffd 	bgtz	a2,204 <memset+0xc>
     210:	24c6ffff 	addiu	a2,a2,-1
     214:	03e00008 	jr	ra
     218:	00000000 	nop

0000021c <fixetoa>:
     21c:	0481003c 	bgez	a0,310 <fixetoa+0xf4>
     220:	00801021 	move	v0,a0
     224:	3c020005 	lui	v0,0x5
     228:	24472fb0 	addiu	a3,v0,12208
     22c:	3c026666 	lui	v0,0x6666
     230:	00042823 	negu	a1,a0
     234:	344a6667 	ori	t2,v0,0x6667
     238:	00003021 	move	a2,zero
     23c:	24090030 	li	t1,48
     240:	080000a2 	j	288 <fixetoa+0x6c>
     244:	2408000c 	li	t0,12
     248:	0800009f 	j	27c <fixetoa+0x60>
     24c:	a0e90000 	sb	t1,0(a3)
     250:	00aa0018 	mult	a1,t2
     254:	00001010 	mfhi	v0
     258:	00021083 	sra	v0,v0,0x2
     25c:	00431023 	subu	v0,v0,v1
     260:	00021840 	sll	v1,v0,0x1
     264:	000220c0 	sll	a0,v0,0x3
     268:	00641821 	addu	v1,v1,a0
     26c:	00a31823 	subu	v1,a1,v1
     270:	24630030 	addiu	v1,v1,48
     274:	00402821 	move	a1,v0
     278:	a0e30000 	sb	v1,0(a3)
     27c:	24c60001 	addiu	a2,a2,1
     280:	10c80006 	beq	a2,t0,29c <fixetoa+0x80>
     284:	24e70001 	addiu	a3,a3,1
     288:	00051fc3 	sra	v1,a1,0x1f
     28c:	14a0fff0 	bnez	a1,250 <fixetoa+0x34>
     290:	28c20005 	slti	v0,a2,5
     294:	1440ffec 	bnez	v0,248 <fixetoa+0x2c>
     298:	00000000 	nop
     29c:	3c030005 	lui	v1,0x5
     2a0:	24632fa0 	addiu	v1,v1,12192
     2a4:	3c020005 	lui	v0,0x5
     2a8:	24c40001 	addiu	a0,a2,1
     2ac:	00604021 	move	t0,v1
     2b0:	24472fb0 	addiu	a3,v0,12208
     2b4:	00c31821 	addu	v1,a2,v1
     2b8:	00002821 	move	a1,zero
     2bc:	24090004 	li	t1,4
     2c0:	2406002e 	li	a2,46
     2c4:	080000bd 	j	2f4 <fixetoa+0xd8>
     2c8:	a0600002 	sb	zero,2(v1)
     2cc:	14a90003 	bne	a1,t1,2dc <fixetoa+0xc0>
     2d0:	00000000 	nop
     2d4:	a0460000 	sb	a2,0(v0)
     2d8:	2484ffff 	addiu	a0,a0,-1
     2dc:	90e30000 	lbu	v1,0(a3)
     2e0:	00881021 	addu	v0,a0,t0
     2e4:	24a50001 	addiu	a1,a1,1
     2e8:	a0430000 	sb	v1,0(v0)
     2ec:	2484ffff 	addiu	a0,a0,-1
     2f0:	24e70001 	addiu	a3,a3,1
     2f4:	0481fff5 	bgez	a0,2cc <fixetoa+0xb0>
     2f8:	00881021 	addu	v0,a0,t0
     2fc:	3c030005 	lui	v1,0x5
     300:	2402002d 	li	v0,45
     304:	24652fa0 	addiu	a1,v1,12192
     308:	08000103 	j	40c <fixetoa+0x1f0>
     30c:	a0622fa0 	sb	v0,12192(v1)
     310:	10400005 	beqz	v0,328 <fixetoa+0x10c>
     314:	3c040005 	lui	a0,0x5
     318:	00402821 	move	a1,v0
     31c:	24872fb0 	addiu	a3,a0,12208
     320:	080000e4 	j	390 <fixetoa+0x174>
     324:	00003021 	move	a2,zero
     328:	24832fb0 	addiu	v1,a0,12208
     32c:	24020030 	li	v0,48
     330:	00602821 	move	a1,v1
     334:	a0822fb0 	sb	v0,12208(a0)
     338:	08000103 	j	40c <fixetoa+0x1f0>
     33c:	a0600001 	sb	zero,1(v1)
     340:	24020030 	li	v0,48
     344:	080000e0 	j	380 <fixetoa+0x164>
     348:	a0e20000 	sb	v0,0(a3)
     34c:	3c026666 	lui	v0,0x6666
     350:	34426667 	ori	v0,v0,0x6667
     354:	00a20018 	mult	a1,v0
     358:	00001010 	mfhi	v0
     35c:	00021083 	sra	v0,v0,0x2
     360:	00431023 	subu	v0,v0,v1
     364:	00021840 	sll	v1,v0,0x1
     368:	000220c0 	sll	a0,v0,0x3
     36c:	00641821 	addu	v1,v1,a0
     370:	00a31823 	subu	v1,a1,v1
     374:	24630030 	addiu	v1,v1,48
     378:	00402821 	move	a1,v0
     37c:	a0e30000 	sb	v1,0(a3)
     380:	24c60001 	addiu	a2,a2,1
     384:	2402000c 	li	v0,12
     388:	10c20006 	beq	a2,v0,3a4 <fixetoa+0x188>
     38c:	24e70001 	addiu	a3,a3,1
     390:	00051fc3 	sra	v1,a1,0x1f
     394:	14a0ffed 	bnez	a1,34c <fixetoa+0x130>
     398:	28c20005 	slti	v0,a2,5
     39c:	1440ffe8 	bnez	v0,340 <fixetoa+0x124>
     3a0:	00000000 	nop
     3a4:	3c030005 	lui	v1,0x5
     3a8:	24632fa0 	addiu	v1,v1,12192
     3ac:	3c020005 	lui	v0,0x5
     3b0:	00c02021 	move	a0,a2
     3b4:	00604021 	move	t0,v1
     3b8:	24472fb0 	addiu	a3,v0,12208
     3bc:	00c31821 	addu	v1,a2,v1
     3c0:	00002821 	move	a1,zero
     3c4:	24090004 	li	t1,4
     3c8:	2406002e 	li	a2,46
     3cc:	080000ff 	j	3fc <fixetoa+0x1e0>
     3d0:	a0600001 	sb	zero,1(v1)
     3d4:	14a90003 	bne	a1,t1,3e4 <fixetoa+0x1c8>
     3d8:	00000000 	nop
     3dc:	a0460000 	sb	a2,0(v0)
     3e0:	2484ffff 	addiu	a0,a0,-1
     3e4:	90e30000 	lbu	v1,0(a3)
     3e8:	00881021 	addu	v0,a0,t0
     3ec:	24a50001 	addiu	a1,a1,1
     3f0:	a0430000 	sb	v1,0(v0)
     3f4:	2484ffff 	addiu	a0,a0,-1
     3f8:	24e70001 	addiu	a3,a3,1
     3fc:	0481fff5 	bgez	a0,3d4 <fixetoa+0x1b8>
     400:	00881021 	addu	v0,a0,t0
     404:	3c020005 	lui	v0,0x5
     408:	24452fa0 	addiu	a1,v0,12192
     40c:	03e00008 	jr	ra
     410:	00a01021 	move	v0,a1

00000414 <strcpy>:
     414:	00801821 	move	v1,a0
     418:	80a20000 	lb	v0,0(a1)
     41c:	24a50001 	addiu	a1,a1,1
     420:	a0620000 	sb	v0,0(v1)
     424:	1440fffc 	bnez	v0,418 <strcpy+0x4>
     428:	24630001 	addiu	v1,v1,1
     42c:	03e00008 	jr	ra
     430:	00801021 	move	v0,a0

00000434 <strlen>:
     434:	00801821 	move	v1,a0
     438:	80620000 	lb	v0,0(v1)
     43c:	00000000 	nop
     440:	1440fffd 	bnez	v0,438 <strlen+0x4>
     444:	24630001 	addiu	v1,v1,1
     448:	00641023 	subu	v0,v1,a0
     44c:	03e00008 	jr	ra
     450:	2442ffff 	addiu	v0,v0,-1

00000454 <get_service_header_slot>:
     454:	3c020007 	lui	v0,0x7
     458:	244448b8 	addiu	a0,v0,18616
     45c:	8c83003c 	lw	v1,60(a0)
     460:	3c020007 	lui	v0,0x7
     464:	00803821 	move	a3,a0
     468:	10600005 	beqz	v1,480 <get_service_header_slot+0x2c>
     46c:	244646e8 	addiu	a2,v0,18152
     470:	24020001 	li	v0,1
     474:	acc2003c 	sw	v0,60(a2)
     478:	08000124 	j	490 <get_service_header_slot+0x3c>
     47c:	ac80003c 	sw	zero,60(a0)
     480:	24020001 	li	v0,1
     484:	ac82003c 	sw	v0,60(a0)
     488:	acc0003c 	sw	zero,60(a2)
     48c:	00c03821 	move	a3,a2
     490:	03e00008 	jr	ra
     494:	00e01021 	move	v0,a3

00000498 <init_service_header_slots>:
     498:	24020001 	li	v0,1
     49c:	3c030007 	lui	v1,0x7
     4a0:	ac624724 	sw	v0,18212(v1)
     4a4:	3c030007 	lui	v1,0x7
     4a8:	03e00008 	jr	ra
     4ac:	ac6248f4 	sw	v0,18676(v1)

000004b0 <DMA_read_data>:
     4b0:	3c022000 	lui	v0,0x2000
     4b4:	24090001 	li	t1,1
     4b8:	34430200 	ori	v1,v0,0x200
     4bc:	34460220 	ori	a2,v0,0x220
     4c0:	34470210 	ori	a3,v0,0x210
     4c4:	34480230 	ori	t0,v0,0x230
     4c8:	ac650000 	sw	a1,0(v1)
     4cc:	acc90000 	sw	t1,0(a2)
     4d0:	34430260 	ori	v1,v0,0x260
     4d4:	ace40000 	sw	a0,0(a3)
     4d8:	ad090000 	sw	t1,0(t0)
     4dc:	8c620000 	lw	v0,0(v1)
     4e0:	00000000 	nop
     4e4:	1440fffd 	bnez	v0,4dc <DMA_read_data+0x2c>
     4e8:	00000000 	nop
     4ec:	03e00008 	jr	ra
     4f0:	00000000 	nop

000004f4 <DMA_send_data>:
     4f4:	3c062000 	lui	a2,0x2000
     4f8:	00804021 	move	t0,a0
     4fc:	00a03821 	move	a3,a1
     500:	34c30250 	ori	v1,a2,0x250
     504:	8c620000 	lw	v0,0(v1)
     508:	00000000 	nop
     50c:	1440fffd 	bnez	v0,504 <DMA_send_data+0x10>
     510:	34c20200 	ori	v0,a2,0x200
     514:	ac470000 	sw	a3,0(v0)
     518:	34c50230 	ori	a1,a2,0x230
     51c:	34c30220 	ori	v1,a2,0x220
     520:	34c40210 	ori	a0,a2,0x210
     524:	24020001 	li	v0,1
     528:	ac600000 	sw	zero,0(v1)
     52c:	ac880000 	sw	t0,0(a0)
     530:	aca20000 	sw	v0,0(a1)
     534:	03e00008 	jr	ra
     538:	00000000 	nop

0000053c <send_packet>:
     53c:	24c2000d 	addiu	v0,a2,13
     540:	ac820004 	sw	v0,4(a0)
     544:	3c022000 	lui	v0,0x2000
     548:	ac80001c 	sw	zero,28(a0)
     54c:	34420140 	ori	v0,v0,0x140
     550:	8c420000 	lw	v0,0(v0)
     554:	3c072000 	lui	a3,0x2000
     558:	00804021 	move	t0,a0
     55c:	ac820014 	sw	v0,20(a0)
     560:	34e30250 	ori	v1,a3,0x250
     564:	8c620000 	lw	v0,0(v1)
     568:	00000000 	nop
     56c:	1440fffd 	bnez	v0,564 <send_packet+0x28>
     570:	34e20300 	ori	v0,a3,0x300
     574:	8c420000 	lw	v0,0(v0)
     578:	34e30200 	ori	v1,a3,0x200
     57c:	ad020018 	sw	v0,24(t0)
     580:	34e40210 	ori	a0,a3,0x210
     584:	2402000f 	li	v0,15
     588:	ac620000 	sw	v0,0(v1)
     58c:	ac880000 	sw	t0,0(a0)
     590:	10c00004 	beqz	a2,5a4 <send_packet+0x68>
     594:	34e20205 	ori	v0,a3,0x205
     598:	34e30215 	ori	v1,a3,0x215
     59c:	ac460000 	sw	a2,0(v0)
     5a0:	ac650000 	sw	a1,0(v1)
     5a4:	34e30220 	ori	v1,a3,0x220
     5a8:	ac600000 	sw	zero,0(v1)
     5ac:	34e20230 	ori	v0,a3,0x230
     5b0:	24030001 	li	v1,1
     5b4:	ac430000 	sw	v1,0(v0)
     5b8:	03e00008 	jr	ra
     5bc:	00000000 	nop

000005c0 <read_packet>:
     5c0:	3c032000 	lui	v1,0x2000
     5c4:	24090001 	li	t1,1
     5c8:	34650200 	ori	a1,v1,0x200
     5cc:	34660220 	ori	a2,v1,0x220
     5d0:	34670210 	ori	a3,v1,0x210
     5d4:	34680230 	ori	t0,v1,0x230
     5d8:	2402000f 	li	v0,15
     5dc:	aca20000 	sw	v0,0(a1)
     5e0:	34630260 	ori	v1,v1,0x260
     5e4:	acc90000 	sw	t1,0(a2)
     5e8:	ace40000 	sw	a0,0(a3)
     5ec:	ad090000 	sw	t1,0(t0)
     5f0:	8c620000 	lw	v0,0(v1)
     5f4:	00000000 	nop
     5f8:	1440fffd 	bnez	v0,5f0 <read_packet+0x30>
     5fc:	00000000 	nop
     600:	03e00008 	jr	ra
     604:	00000000 	nop

00000608 <init_new_task_list>:
     608:	3c020007 	lui	v0,0x7
     60c:	244357f8 	addiu	v1,v0,22520
     610:	3c020008 	lui	v0,0x8
     614:	24428c78 	addiu	v0,v0,-29576
     618:	2404ffff 	li	a0,-1
     61c:	ac640000 	sw	a0,0(v1)
     620:	2463001c 	addiu	v1,v1,28
     624:	1462fffd 	bne	v1,v0,61c <init_new_task_list+0x14>
     628:	00000000 	nop
     62c:	03e00008 	jr	ra
     630:	00000000 	nop

00000634 <add_new_task>:
     634:	3c060005 	lui	a2,0x5
     638:	8cc518f4 	lw	a1,6388(a2)
     63c:	00804021 	move	t0,a0
     640:	00051080 	sll	v0,a1,0x2
     644:	00051940 	sll	v1,a1,0x5
     648:	00621823 	subu	v1,v1,v0
     64c:	3c020007 	lui	v0,0x7
     650:	244257f8 	addiu	v0,v0,22520
     654:	00624821 	addu	t1,v1,v0
     658:	240201df 	li	v0,479
     65c:	14a20003 	bne	a1,v0,66c <add_new_task+0x38>
     660:	24a70001 	addiu	a3,a1,1
     664:	0800019c 	j	670 <add_new_task+0x3c>
     668:	acc018f4 	sw	zero,6388(a2)
     66c:	acc718f4 	sw	a3,6388(a2)
     670:	8d020018 	lw	v0,24(t0)
     674:	8d030000 	lw	v1,0(t0)
     678:	8d040004 	lw	a0,4(t0)
     67c:	8d050008 	lw	a1,8(t0)
     680:	8d06000c 	lw	a2,12(t0)
     684:	8d070010 	lw	a3,16(t0)
     688:	8d080014 	lw	t0,20(t0)
     68c:	ad220018 	sw	v0,24(t1)
     690:	ad230000 	sw	v1,0(t1)
     694:	ad240004 	sw	a0,4(t1)
     698:	ad250008 	sw	a1,8(t1)
     69c:	ad26000c 	sw	a2,12(t1)
     6a0:	ad270010 	sw	a3,16(t1)
     6a4:	03e00008 	jr	ra
     6a8:	ad280014 	sw	t0,20(t1)

000006ac <get_next_new_task>:
     6ac:	3c070005 	lui	a3,0x5
     6b0:	3c020005 	lui	v0,0x5
     6b4:	8ce518f0 	lw	a1,6384(a3)
     6b8:	8c4418f4 	lw	a0,6388(v0)
     6bc:	00051880 	sll	v1,a1,0x2
     6c0:	00051140 	sll	v0,a1,0x5
     6c4:	00433023 	subu	a2,v0,v1
     6c8:	10a4000a 	beq	a1,a0,6f4 <get_next_new_task+0x48>
     6cc:	00004021 	move	t0,zero
     6d0:	3c020007 	lui	v0,0x7
     6d4:	244257f8 	addiu	v0,v0,22520
     6d8:	00c24021 	addu	t0,a2,v0
     6dc:	240201df 	li	v0,479
     6e0:	14a20003 	bne	a1,v0,6f0 <get_next_new_task+0x44>
     6e4:	24a30001 	addiu	v1,a1,1
     6e8:	080001bd 	j	6f4 <get_next_new_task+0x48>
     6ec:	ace018f0 	sw	zero,6384(a3)
     6f0:	ace318f0 	sw	v1,6384(a3)
     6f4:	03e00008 	jr	ra
     6f8:	01001021 	move	v0,t0

000006fc <init_task_req_list>:
     6fc:	3c020007 	lui	v0,0x7
     700:	244348f8 	addiu	v1,v0,18680
     704:	3c020007 	lui	v0,0x7
     708:	244257f8 	addiu	v0,v0,22520
     70c:	2404ffff 	li	a0,-1
     710:	ac640000 	sw	a0,0(v1)
     714:	24630008 	addiu	v1,v1,8
     718:	1462fffd 	bne	v1,v0,710 <init_task_req_list+0x14>
     71c:	00000000 	nop
     720:	03e00008 	jr	ra
     724:	00000000 	nop

00000728 <add_task_request>:
     728:	3c070005 	lui	a3,0x5
     72c:	8ce318fc 	lw	v1,6396(a3)
     730:	3c020007 	lui	v0,0x7
     734:	244248f8 	addiu	v0,v0,18680
     738:	000330c0 	sll	a2,v1,0x3
     73c:	00c23021 	addu	a2,a2,v0
     740:	240201df 	li	v0,479
     744:	14620003 	bne	v1,v0,754 <add_task_request+0x2c>
     748:	24680001 	addiu	t0,v1,1
     74c:	080001d6 	j	758 <add_task_request+0x30>
     750:	ace018fc 	sw	zero,6396(a3)
     754:	ace818fc 	sw	t0,6396(a3)
     758:	acc50004 	sw	a1,4(a2)
     75c:	03e00008 	jr	ra
     760:	acc40000 	sw	a0,0(a2)

00000764 <get_next_task_request>:
     764:	3c060005 	lui	a2,0x5
     768:	3c020005 	lui	v0,0x5
     76c:	8cc318f8 	lw	v1,6392(a2)
     770:	8c4218fc 	lw	v0,6396(v0)
     774:	000328c0 	sll	a1,v1,0x3
     778:	1062000a 	beq	v1,v0,7a4 <get_next_task_request+0x40>
     77c:	00003821 	move	a3,zero
     780:	3c020007 	lui	v0,0x7
     784:	244248f8 	addiu	v0,v0,18680
     788:	00a23821 	addu	a3,a1,v0
     78c:	240201df 	li	v0,479
     790:	14620003 	bne	v1,v0,7a0 <get_next_task_request+0x3c>
     794:	24640001 	addiu	a0,v1,1
     798:	080001e9 	j	7a4 <get_next_task_request+0x40>
     79c:	acc018f8 	sw	zero,6392(a2)
     7a0:	acc418f8 	sw	a0,6392(a2)
     7a4:	03e00008 	jr	ra
     7a8:	00e01021 	move	v0,a3

000007ac <InitialMapping>:
     7ac:	27bdffb8 	addiu	sp,sp,-72
     7b0:	afb60038 	sw	s6,56(sp)
     7b4:	afb10024 	sw	s1,36(sp)
     7b8:	afbe0040 	sw	s8,64(sp)
     7bc:	afb7003c 	sw	s7,60(sp)
     7c0:	afb50034 	sw	s5,52(sp)
     7c4:	afb40030 	sw	s4,48(sp)
     7c8:	afb3002c 	sw	s3,44(sp)
     7cc:	afb20028 	sw	s2,40(sp)
     7d0:	afb00020 	sw	s0,32(sp)
     7d4:	3c020005 	lui	v0,0x5
     7d8:	8c551438 	lw	s5,5176(v0)
     7dc:	3c020005 	lui	v0,0x5
     7e0:	8c501448 	lw	s0,5192(v0)
     7e4:	3c020005 	lui	v0,0x5
     7e8:	8c5e1440 	lw	s8,5184(v0)
     7ec:	3c020005 	lui	v0,0x5
     7f0:	00151900 	sll	v1,s5,0x4
     7f4:	8c571450 	lw	s7,5200(v0)
     7f8:	00151200 	sll	v0,s5,0x8
     7fc:	00508821 	addu	s1,v0,s0
     800:	0070b021 	addu	s6,v1,s0
     804:	24020001 	li	v0,1
     808:	2403ffff 	li	v1,-1
     80c:	02a06821 	move	t5,s5
     810:	afa40048 	sw	a0,72(sp)
     814:	afa00018 	sw	zero,24(sp)
     818:	afa20014 	sw	v0,20(sp)
     81c:	afa30010 	sw	v1,16(sp)
     820:	afa3000c 	sw	v1,12(sp)
     824:	afa30008 	sw	v1,8(sp)
     828:	afa30004 	sw	v1,4(sp)
     82c:	08000279 	j	9e4 <InitialMapping+0x238>
     830:	afa30000 	sw	v1,0(sp)
     834:	2484988c 	addiu	a0,a0,-26484
     838:	02c4a021 	addu	s4,s6,a0
     83c:	0200c821 	move	t9,s0
     840:	02209821 	move	s3,s1
     844:	08000273 	j	9cc <InitialMapping+0x220>
     848:	02209021 	move	s2,s1
     84c:	82820000 	lb	v0,0(s4)
     850:	00000000 	nop
     854:	18400059 	blez	v0,9bc <InitialMapping+0x210>
     858:	25a3fffe 	addiu	v1,t5,-2
     85c:	02a3102a 	slt	v0,s5,v1
     860:	25a70002 	addiu	a3,t5,2
     864:	2726fffe 	addiu	a2,t9,-2
     868:	27280002 	addiu	t0,t9,2
     86c:	10400002 	beqz	v0,878 <InitialMapping+0xcc>
     870:	02a07821 	move	t7,s5
     874:	00607821 	move	t7,v1
     878:	0206102a 	slt	v0,s0,a2
     87c:	10400002 	beqz	v0,888 <InitialMapping+0xdc>
     880:	02006021 	move	t4,s0
     884:	00c06021 	move	t4,a2
     888:	00fe102a 	slt	v0,a3,s8
     88c:	10400002 	beqz	v0,898 <InitialMapping+0xec>
     890:	03c0c021 	move	t8,s8
     894:	00e0c021 	move	t8,a3
     898:	0117102a 	slt	v0,t0,s7
     89c:	10400002 	beqz	v0,8a8 <InitialMapping+0xfc>
     8a0:	02e07021 	move	t6,s7
     8a4:	01007021 	move	t6,t0
     8a8:	01af5023 	subu	t2,t5,t7
     8ac:	01e05821 	move	t3,t7
     8b0:	00002821 	move	a1,zero
     8b4:	08000248 	j	920 <InitialMapping+0x174>
     8b8:	00002021 	move	a0,zero
     8bc:	01403021 	move	a2,t2
     8c0:	05410002 	bgez	t2,8cc <InitialMapping+0x120>
     8c4:	00e01021 	move	v0,a3
     8c8:	000a3023 	negu	a2,t2
     8cc:	04e10003 	bgez	a3,8dc <InitialMapping+0x130>
     8d0:	00c21021 	addu	v0,a2,v0
     8d4:	00071023 	negu	v0,a3
     8d8:	00c21021 	addu	v0,a2,v0
     8dc:	28420003 	slti	v0,v0,3
     8e0:	10400008 	beqz	v0,904 <InitialMapping+0x158>
     8e4:	24e7ffff 	addiu	a3,a3,-1
     8e8:	81260000 	lb	a2,0(t1)
     8ec:	00000000 	nop
     8f0:	18c00004 	blez	a2,904 <InitialMapping+0x158>
     8f4:	00000000 	nop
     8f8:	8c620000 	lw	v0,0(v1)
     8fc:	00a62821 	addu	a1,a1,a2
     900:	00822021 	addu	a0,a0,v0
     904:	25290001 	addiu	t1,t1,1
     908:	24630004 	addiu	v1,v1,4
     90c:	01c8102a 	slt	v0,t6,t0
     910:	1040ffea 	beqz	v0,8bc <InitialMapping+0x110>
     914:	25080001 	addiu	t0,t0,1
     918:	256b0001 	addiu	t3,t3,1
     91c:	254affff 	addiu	t2,t2,-1
     920:	030b102a 	slt	v0,t8,t3
     924:	1440000c 	bnez	v0,958 <InitialMapping+0x1ac>
     928:	000b1100 	sll	v0,t3,0x4
     92c:	01821021 	addu	v0,t4,v0
     930:	3c060005 	lui	a2,0x5
     934:	24c633e4 	addiu	a2,a2,13284
     938:	00021880 	sll	v1,v0,0x2
     93c:	00661821 	addu	v1,v1,a2
     940:	3c060005 	lui	a2,0x5
     944:	24c6988c 	addiu	a2,a2,-26484
     948:	032c3823 	subu	a3,t9,t4
     94c:	00464821 	addu	t1,v0,a2
     950:	08000243 	j	90c <InitialMapping+0x160>
     954:	01804021 	move	t0,t4
     958:	14a00002 	bnez	a1,964 <InitialMapping+0x1b8>
     95c:	0085001a 	div	zero,a0,a1
     960:	0007000d 	break	0x7
     964:	8fa40018 	lw	a0,24(sp)
     968:	00001812 	mflo	v1
     96c:	0064102a 	slt	v0,v1,a0
     970:	10400007 	beqz	v0,990 <InitialMapping+0x1e4>
     974:	00000000 	nop
     978:	afb20000 	sw	s2,0(sp)
     97c:	afa30018 	sw	v1,24(sp)
     980:	afae0010 	sw	t6,16(sp)
     984:	afac000c 	sw	t4,12(sp)
     988:	afb80008 	sw	t8,8(sp)
     98c:	afaf0004 	sw	t7,4(sp)
     990:	8fa60014 	lw	a2,20(sp)
     994:	24020001 	li	v0,1
     998:	14c20008 	bne	a2,v0,9bc <InitialMapping+0x210>
     99c:	00000000 	nop
     9a0:	afa30018 	sw	v1,24(sp)
     9a4:	afae0010 	sw	t6,16(sp)
     9a8:	afac000c 	sw	t4,12(sp)
     9ac:	afb80008 	sw	t8,8(sp)
     9b0:	afaf0004 	sw	t7,4(sp)
     9b4:	afb30000 	sw	s3,0(sp)
     9b8:	afa00014 	sw	zero,20(sp)
     9bc:	27390001 	addiu	t9,t9,1
     9c0:	26730001 	addiu	s3,s3,1
     9c4:	26940001 	addiu	s4,s4,1
     9c8:	26520001 	addiu	s2,s2,1
     9cc:	02f9102a 	slt	v0,s7,t9
     9d0:	1040ff9e 	beqz	v0,84c <InitialMapping+0xa0>
     9d4:	00000000 	nop
     9d8:	25ad0001 	addiu	t5,t5,1
     9dc:	26d60010 	addiu	s6,s6,16
     9e0:	26310100 	addiu	s1,s1,256
     9e4:	03cd102a 	slt	v0,s8,t5
     9e8:	1040ff92 	beqz	v0,834 <InitialMapping+0x88>
     9ec:	3c040005 	lui	a0,0x5
     9f0:	8fa30048 	lw	v1,72(sp)
     9f4:	8fa40010 	lw	a0,16(sp)
     9f8:	8fa6000c 	lw	a2,12(sp)
     9fc:	ac640010 	sw	a0,16(v1)
     a00:	ac66000c 	sw	a2,12(v1)
     a04:	8fa20008 	lw	v0,8(sp)
     a08:	8fa40004 	lw	a0,4(sp)
     a0c:	8fa60000 	lw	a2,0(sp)
     a10:	ac620008 	sw	v0,8(v1)
     a14:	ac640004 	sw	a0,4(v1)
     a18:	ac660000 	sw	a2,0(v1)
     a1c:	8fbe0040 	lw	s8,64(sp)
     a20:	8fb7003c 	lw	s7,60(sp)
     a24:	8fb60038 	lw	s6,56(sp)
     a28:	8fb50034 	lw	s5,52(sp)
     a2c:	8fb40030 	lw	s4,48(sp)
     a30:	8fb3002c 	lw	s3,44(sp)
     a34:	8fb20028 	lw	s2,40(sp)
     a38:	8fb10024 	lw	s1,36(sp)
     a3c:	8fb00020 	lw	s0,32(sp)
     a40:	00601021 	move	v0,v1
     a44:	03e00008 	jr	ra
     a48:	27bd0048 	addiu	sp,sp,72

00000a4c <InitialMapping2>:
     a4c:	27bdffd8 	addiu	sp,sp,-40
     a50:	afbe0020 	sw	s8,32(sp)
     a54:	afb7001c 	sw	s7,28(sp)
     a58:	afb60018 	sw	s6,24(sp)
     a5c:	afb50014 	sw	s5,20(sp)
     a60:	afb40010 	sw	s4,16(sp)
     a64:	afb3000c 	sw	s3,12(sp)
     a68:	afb20008 	sw	s2,8(sp)
     a6c:	afb10004 	sw	s1,4(sp)
     a70:	afb00000 	sw	s0,0(sp)
     a74:	3c020004 	lui	v0,0x4
     a78:	8c427308 	lw	v0,29448(v0)
     a7c:	afa40028 	sw	a0,40(sp)
     a80:	afa5002c 	sw	a1,44(sp)
     a84:	afa60030 	sw	a2,48(sp)
     a88:	afa70034 	sw	a3,52(sp)
     a8c:	8fa30038 	lw	v1,56(sp)
     a90:	14400003 	bnez	v0,aa0 <InitialMapping2+0x54>
     a94:	3c020005 	lui	v0,0x5
     a98:	080002fd 	j	bf4 <InitialMapping2+0x1a8>
     a9c:	2403ffff 	li	v1,-1
     aa0:	8c531438 	lw	s3,5176(v0)
     aa4:	3c020005 	lui	v0,0x5
     aa8:	8c521448 	lw	s2,5192(v0)
     aac:	3c020005 	lui	v0,0x5
     ab0:	8c511440 	lw	s1,5184(v0)
     ab4:	3c020005 	lui	v0,0x5
     ab8:	8c501450 	lw	s0,5200(v0)
     abc:	3c020005 	lui	v0,0x5
     ac0:	00607821 	move	t7,v1
     ac4:	245e33e4 	addiu	s8,v0,13284
     ac8:	2418ffff 	li	t8,-1
     acc:	0000c821 	move	t9,zero
     ad0:	24150001 	li	s5,1
     ad4:	24170001 	li	s7,1
     ad8:	2414ffff 	li	s4,-1
     adc:	24160004 	li	s6,4
     ae0:	00051200 	sll	v0,a1,0x8
     ae4:	00476821 	addu	t5,v0,a3
     ae8:	080002d4 	j	b50 <InitialMapping2+0x104>
     aec:	00a06021 	move	t4,a1
     af0:	81620000 	lb	v0,0(t3)
     af4:	00000000 	nop
     af8:	1840000d 	blez	v0,b30 <InitialMapping2+0xe4>
     afc:	256b0001 	addiu	t3,t3,1
     b00:	8c640000 	lw	a0,0(v1)
     b04:	00000000 	nop
     b08:	0099102b 	sltu	v0,a0,t9
     b0c:	10400003 	beqz	v0,b1c <InitialMapping2+0xd0>
     b10:	00000000 	nop
     b14:	0100c021 	move	t8,t0
     b18:	0080c821 	move	t9,a0
     b1c:	16b70004 	bne	s5,s7,b30 <InitialMapping2+0xe4>
     b20:	00000000 	nop
     b24:	0080c821 	move	t9,a0
     b28:	0000a821 	move	s5,zero
     b2c:	0120c021 	move	t8,t1
     b30:	25290001 	addiu	t1,t1,1
     b34:	25080001 	addiu	t0,t0,1
     b38:	24630004 	addiu	v1,v1,4
     b3c:	01ea102a 	slt	v0,t7,t2
     b40:	1040ffeb 	beqz	v0,af0 <InitialMapping2+0xa4>
     b44:	254a0001 	addiu	t2,t2,1
     b48:	258c0001 	addiu	t4,t4,1
     b4c:	25ad0100 	addiu	t5,t5,256
     b50:	00cc102a 	slt	v0,a2,t4
     b54:	1440000b 	bnez	v0,b84 <InitialMapping2+0x138>
     b58:	000c1100 	sll	v0,t4,0x4
     b5c:	00e21021 	addu	v0,a3,v0
     b60:	3c040005 	lui	a0,0x5
     b64:	00021880 	sll	v1,v0,0x2
     b68:	2484988c 	addiu	a0,a0,-26484
     b6c:	007e1821 	addu	v1,v1,s8
     b70:	00445821 	addu	t3,v0,a0
     b74:	00e05021 	move	t2,a3
     b78:	01a04821 	move	t1,t5
     b7c:	080002cf 	j	b3c <InitialMapping2+0xf0>
     b80:	01a04021 	move	t0,t5
     b84:	17140012 	bne	t8,s4,bd0 <InitialMapping2+0x184>
     b88:	0265102a 	slt	v0,s3,a1
     b8c:	10400003 	beqz	v0,b9c <InitialMapping2+0x150>
     b90:	00007021 	move	t6,zero
     b94:	24a5ffff 	addiu	a1,a1,-1
     b98:	240e0001 	li	t6,1
     b9c:	0247102a 	slt	v0,s2,a3
     ba0:	10400003 	beqz	v0,bb0 <InitialMapping2+0x164>
     ba4:	00d1102a 	slt	v0,a2,s1
     ba8:	24e7ffff 	addiu	a3,a3,-1
     bac:	25ce0001 	addiu	t6,t6,1
     bb0:	10400003 	beqz	v0,bc0 <InitialMapping2+0x174>
     bb4:	01f0102a 	slt	v0,t7,s0
     bb8:	24c60001 	addiu	a2,a2,1
     bbc:	25ce0001 	addiu	t6,t6,1
     bc0:	10400003 	beqz	v0,bd0 <InitialMapping2+0x184>
     bc4:	00000000 	nop
     bc8:	25ef0001 	addiu	t7,t7,1
     bcc:	25ce0001 	addiu	t6,t6,1
     bd0:	11d60005 	beq	t6,s6,be8 <InitialMapping2+0x19c>
     bd4:	2402ffff 	li	v0,-1
     bd8:	17140005 	bne	t8,s4,bf0 <InitialMapping2+0x1a4>
     bdc:	00051200 	sll	v0,a1,0x8
     be0:	080002ba 	j	ae8 <InitialMapping2+0x9c>
     be4:	00476821 	addu	t5,v0,a3
     be8:	13020002 	beq	t8,v0,bf4 <InitialMapping2+0x1a8>
     bec:	03001821 	move	v1,t8
     bf0:	03001821 	move	v1,t8
     bf4:	8fbe0020 	lw	s8,32(sp)
     bf8:	8fb7001c 	lw	s7,28(sp)
     bfc:	8fb60018 	lw	s6,24(sp)
     c00:	8fb50014 	lw	s5,20(sp)
     c04:	8fb40010 	lw	s4,16(sp)
     c08:	8fb3000c 	lw	s3,12(sp)
     c0c:	8fb20008 	lw	s2,8(sp)
     c10:	8fb10004 	lw	s1,4(sp)
     c14:	8fb00000 	lw	s0,0(sp)
     c18:	00601021 	move	v0,v1
     c1c:	03e00008 	jr	ra
     c20:	27bd0028 	addiu	sp,sp,40

00000c24 <SearchCluster>:
     c24:	3c020005 	lui	v0,0x5
     c28:	8c429cdc 	lw	v0,-25380(v0)
     c2c:	00000000 	nop
     c30:	0044102a 	slt	v0,v0,a0
     c34:	10400003 	beqz	v0,c44 <SearchCluster+0x20>
     c38:	2408ffff 	li	t0,-1
     c3c:	0800033f 	j	cfc <SearchCluster+0xd8>
     c40:	2409ffff 	li	t1,-1
     c44:	3c020005 	lui	v0,0x5
     c48:	24479b34 	addiu	a3,v0,-25804
     c4c:	3c020007 	lui	v0,0x7
     c50:	24464674 	addiu	a2,v0,18036
     c54:	2409ffff 	li	t1,-1
     c58:	240bffff 	li	t3,-1
     c5c:	240affff 	li	t2,-1
     c60:	00002821 	move	a1,zero
     c64:	240c0010 	li	t4,16
     c68:	8ce20000 	lw	v0,0(a3)
     c6c:	00000000 	nop
     c70:	0044102a 	slt	v0,v0,a0
     c74:	14400008 	bnez	v0,c98 <SearchCluster+0x74>
     c78:	24e7001c 	addiu	a3,a3,28
     c7c:	8cc30000 	lw	v1,0(a2)
     c80:	00000000 	nop
     c84:	0163102b 	sltu	v0,t3,v1
     c88:	14400006 	bnez	v0,ca4 <SearchCluster+0x80>
     c8c:	0143102b 	sltu	v0,t2,v1
     c90:	00605821 	move	t3,v1
     c94:	00a04821 	move	t1,a1
     c98:	8cc30000 	lw	v1,0(a2)
     c9c:	00000000 	nop
     ca0:	0143102b 	sltu	v0,t2,v1
     ca4:	14400003 	bnez	v0,cb4 <SearchCluster+0x90>
     ca8:	24c60004 	addiu	a2,a2,4
     cac:	00605021 	move	t2,v1
     cb0:	00a04021 	move	t0,a1
     cb4:	24a50001 	addiu	a1,a1,1
     cb8:	14acffeb 	bne	a1,t4,c68 <SearchCluster+0x44>
     cbc:	2402ffff 	li	v0,-1
     cc0:	11220007 	beq	t1,v0,ce0 <SearchCluster+0xbc>
     cc4:	3c030007 	lui	v1,0x7
     cc8:	24624674 	addiu	v0,v1,18036
     ccc:	00091880 	sll	v1,t1,0x2
     cd0:	00621821 	addu	v1,v1,v0
     cd4:	8c620000 	lw	v0,0(v1)
     cd8:	0800033e 	j	cf8 <SearchCluster+0xd4>
     cdc:	24420001 	addiu	v0,v0,1
     ce0:	24624674 	addiu	v0,v1,18036
     ce4:	00081880 	sll	v1,t0,0x2
     ce8:	00621821 	addu	v1,v1,v0
     cec:	8c620000 	lw	v0,0(v1)
     cf0:	01004821 	move	t1,t0
     cf4:	24420001 	addiu	v0,v0,1
     cf8:	ac620000 	sw	v0,0(v1)
     cfc:	03e00008 	jr	ra
     d00:	01201021 	move	v0,t1

00000d04 <loan_mapping>:
     d04:	3c020005 	lui	v0,0x5
     d08:	8c461438 	lw	a2,5176(v0)
     d0c:	3c020005 	lui	v0,0x5
     d10:	8c491448 	lw	t1,5192(v0)
     d14:	3c020005 	lui	v0,0x5
     d18:	8c4b1440 	lw	t3,5184(v0)
     d1c:	3c020005 	lui	v0,0x5
     d20:	8c4a1450 	lw	t2,5200(v0)
     d24:	00061900 	sll	v1,a2,0x4
     d28:	3c020005 	lui	v0,0x5
     d2c:	244c988c 	addiu	t4,v0,-26484
     d30:	0800035c 	j	d70 <loan_mapping+0x6c>
     d34:	00691821 	addu	v1,v1,t1
     d38:	006c2821 	addu	a1,v1,t4
     d3c:	01202021 	move	a0,t1
     d40:	08000356 	j	d58 <loan_mapping+0x54>
     d44:	00064200 	sll	t0,a2,0x8
     d48:	80a20000 	lb	v0,0(a1)
     d4c:	00000000 	nop
     d50:	1c40000a 	bgtz	v0,d7c <loan_mapping+0x78>
     d54:	24a50001 	addiu	a1,a1,1
     d58:	0144102a 	slt	v0,t2,a0
     d5c:	01043825 	or	a3,t0,a0
     d60:	1040fff9 	beqz	v0,d48 <loan_mapping+0x44>
     d64:	24840001 	addiu	a0,a0,1
     d68:	24c60001 	addiu	a2,a2,1
     d6c:	24630010 	addiu	v1,v1,16
     d70:	0166102a 	slt	v0,t3,a2
     d74:	1040fff0 	beqz	v0,d38 <loan_mapping+0x34>
     d78:	2407ffff 	li	a3,-1
     d7c:	03e00008 	jr	ra
     d80:	00e01021 	move	v0,a3

00000d84 <puts>:
     d84:	8c830000 	lw	v1,0(a0)
     d88:	3c022000 	lui	v0,0x2000
     d8c:	3c052000 	lui	a1,0x2000
     d90:	ac430000 	sw	v1,0(v0)
     d94:	0800036a 	j	da8 <puts+0x24>
     d98:	00000000 	nop
     d9c:	8c820000 	lw	v0,0(a0)
     da0:	00000000 	nop
     da4:	aca20000 	sw	v0,0(a1)
     da8:	80820000 	lb	v0,0(a0)
     dac:	00000000 	nop
     db0:	1040000d 	beqz	v0,de8 <puts+0x64>
     db4:	00000000 	nop
     db8:	80820001 	lb	v0,1(a0)
     dbc:	00000000 	nop
     dc0:	10400009 	beqz	v0,de8 <puts+0x64>
     dc4:	00000000 	nop
     dc8:	80820002 	lb	v0,2(a0)
     dcc:	00000000 	nop
     dd0:	10400005 	beqz	v0,de8 <puts+0x64>
     dd4:	00000000 	nop
     dd8:	80820003 	lb	v0,3(a0)
     ddc:	00000000 	nop
     de0:	1440ffee 	bnez	v0,d9c <puts+0x18>
     de4:	24840004 	addiu	a0,a0,4
     de8:	03e00008 	jr	ra
     dec:	00000000 	nop

00000df0 <putsv>:
     df0:	27bdffe8 	addiu	sp,sp,-24
     df4:	afb00010 	sw	s0,16(sp)
     df8:	afbf0014 	sw	ra,20(sp)
     dfc:	0c000361 	jal	d84 <puts>
     e00:	00a08021 	move	s0,a1
     e04:	0c00000b 	jal	2c <itoa>
     e08:	02002021 	move	a0,s0
     e0c:	0c000361 	jal	d84 <puts>
     e10:	00402021 	move	a0,v0
     e14:	3c040000 	lui	a0,0x0
     e18:	8fbf0014 	lw	ra,20(sp)
     e1c:	8fb00010 	lw	s0,16(sp)
     e20:	2484670c 	addiu	a0,a0,26380
     e24:	08000361 	j	d84 <puts>
     e28:	27bd0018 	addiu	sp,sp,24

00000e2c <search_cluster_ID>:
     e2c:	27bdffe8 	addiu	sp,sp,-24
     e30:	3c020005 	lui	v0,0x5
     e34:	afbf0010 	sw	ra,16(sp)
     e38:	24469b1c 	addiu	a2,v0,-25828
     e3c:	00001821 	move	v1,zero
     e40:	24070010 	li	a3,16
     e44:	8cc20000 	lw	v0,0(a2)
     e48:	00000000 	nop
     e4c:	14440005 	bne	v0,a0,e64 <search_cluster_ID+0x38>
     e50:	00000000 	nop
     e54:	8cc20004 	lw	v0,4(a2)
     e58:	00000000 	nop
     e5c:	10450008 	beq	v0,a1,e80 <search_cluster_ID+0x54>
     e60:	00000000 	nop
     e64:	24630001 	addiu	v1,v1,1
     e68:	1467fff6 	bne	v1,a3,e44 <search_cluster_ID+0x18>
     e6c:	24c6001c 	addiu	a2,a2,28
     e70:	3c040000 	lui	a0,0x0
     e74:	0c000361 	jal	d84 <puts>
     e78:	24846650 	addiu	a0,a0,26192
     e7c:	2403ffff 	li	v1,-1
     e80:	8fbf0010 	lw	ra,16(sp)
     e84:	00601021 	move	v0,v1
     e88:	03e00008 	jr	ra
     e8c:	27bd0018 	addiu	sp,sp,24

00000e90 <page_released>:
     e90:	00043203 	sra	a2,a0,0x8
     e94:	3c020005 	lui	v0,0x5
     e98:	2442988c 	addiu	v0,v0,-26484
     e9c:	00062900 	sll	a1,a2,0x4
     ea0:	00a22821 	addu	a1,a1,v0
     ea4:	308400ff 	andi	a0,a0,0xff
     ea8:	00a42821 	addu	a1,a1,a0
     eac:	3c020005 	lui	v0,0x5
     eb0:	8c431438 	lw	v1,5176(v0)
     eb4:	90a20000 	lbu	v0,0(a1)
     eb8:	00c3182a 	slt	v1,a2,v1
     ebc:	24420001 	addiu	v0,v0,1
     ec0:	14600015 	bnez	v1,f18 <page_released+0x88>
     ec4:	a0a20000 	sb	v0,0(a1)
     ec8:	3c020005 	lui	v0,0x5
     ecc:	8c421440 	lw	v0,5184(v0)
     ed0:	00000000 	nop
     ed4:	0046102a 	slt	v0,v0,a2
     ed8:	1440000f 	bnez	v0,f18 <page_released+0x88>
     edc:	3c020005 	lui	v0,0x5
     ee0:	8c421448 	lw	v0,5192(v0)
     ee4:	00000000 	nop
     ee8:	0082102a 	slt	v0,a0,v0
     eec:	1440000a 	bnez	v0,f18 <page_released+0x88>
     ef0:	3c020005 	lui	v0,0x5
     ef4:	8c421450 	lw	v0,5200(v0)
     ef8:	00000000 	nop
     efc:	0044102a 	slt	v0,v0,a0
     f00:	14400005 	bnez	v0,f18 <page_released+0x88>
     f04:	3c030004 	lui	v1,0x4
     f08:	8c627308 	lw	v0,29448(v1)
     f0c:	00000000 	nop
     f10:	24420001 	addiu	v0,v0,1
     f14:	ac627308 	sw	v0,29448(v1)
     f18:	03e00008 	jr	ra
     f1c:	00000000 	nop

00000f20 <page_used>:
     f20:	00043203 	sra	a2,a0,0x8
     f24:	3c020005 	lui	v0,0x5
     f28:	2442988c 	addiu	v0,v0,-26484
     f2c:	00062900 	sll	a1,a2,0x4
     f30:	00a22821 	addu	a1,a1,v0
     f34:	308400ff 	andi	a0,a0,0xff
     f38:	00a42821 	addu	a1,a1,a0
     f3c:	3c020005 	lui	v0,0x5
     f40:	8c431438 	lw	v1,5176(v0)
     f44:	90a20000 	lbu	v0,0(a1)
     f48:	00c3182a 	slt	v1,a2,v1
     f4c:	2442ffff 	addiu	v0,v0,-1
     f50:	14600015 	bnez	v1,fa8 <page_used+0x88>
     f54:	a0a20000 	sb	v0,0(a1)
     f58:	3c020005 	lui	v0,0x5
     f5c:	8c421440 	lw	v0,5184(v0)
     f60:	00000000 	nop
     f64:	0046102a 	slt	v0,v0,a2
     f68:	1440000f 	bnez	v0,fa8 <page_used+0x88>
     f6c:	3c020005 	lui	v0,0x5
     f70:	8c421448 	lw	v0,5192(v0)
     f74:	00000000 	nop
     f78:	0082102a 	slt	v0,a0,v0
     f7c:	1440000a 	bnez	v0,fa8 <page_used+0x88>
     f80:	3c020005 	lui	v0,0x5
     f84:	8c421450 	lw	v0,5200(v0)
     f88:	00000000 	nop
     f8c:	0044102a 	slt	v0,v0,a0
     f90:	14400005 	bnez	v0,fa8 <page_used+0x88>
     f94:	3c030004 	lui	v1,0x4
     f98:	8c627308 	lw	v0,29448(v1)
     f9c:	00000000 	nop
     fa0:	2442ffff 	addiu	v0,v0,-1
     fa4:	ac627308 	sw	v0,29448(v1)
     fa8:	03e00008 	jr	ra
     fac:	00000000 	nop

00000fb0 <insert_task_loc>:
     fb0:	00044900 	sll	t1,a0,0x4
     fb4:	00041180 	sll	v0,a0,0x6
     fb8:	00491023 	subu	v0,v0,t1
     fbc:	000218c0 	sll	v1,v0,0x3
     fc0:	00621823 	subu	v1,v1,v0
     fc4:	00641821 	addu	v1,v1,a0
     fc8:	00051100 	sll	v0,a1,0x4
     fcc:	000541c0 	sll	t0,a1,0x7
     fd0:	01024023 	subu	t0,t0,v0
     fd4:	00031880 	sll	v1,v1,0x2
     fd8:	00063a03 	sra	a3,a2,0x8
     fdc:	3c020005 	lui	v0,0x5
     fe0:	01034021 	addu	t0,t0,v1
     fe4:	244237e4 	addiu	v0,v0,14308
     fe8:	30ca00ff 	andi	t2,a2,0xff
     fec:	00073900 	sll	a3,a3,0x4
     ff0:	01024021 	addu	t0,t0,v0
     ff4:	00ea3821 	addu	a3,a3,t2
     ff8:	3c020005 	lui	v0,0x5
     ffc:	00042080 	sll	a0,a0,0x2
    1000:	24421454 	addiu	v0,v0,5204
    1004:	00073880 	sll	a3,a3,0x2
    1008:	00e23821 	addu	a3,a3,v0
    100c:	01244823 	subu	t1,t1,a0
    1010:	8ce30000 	lw	v1,0(a3)
    1014:	8d04001c 	lw	a0,28(t0)
    1018:	01254821 	addu	t1,t1,a1
    101c:	3c020004 	lui	v0,0x4
    1020:	00094880 	sll	t1,t1,0x2
    1024:	2442730c 	addiu	v0,v0,29452
    1028:	01224821 	addu	t1,t1,v0
    102c:	00641821 	addu	v1,v1,a0
    1030:	ace30000 	sw	v1,0(a3)
    1034:	ad260000 	sw	a2,0(t1)
    1038:	03e00008 	jr	ra
    103c:	ad060018 	sw	a2,24(t0)

00001040 <search_physical_master_address>:
    1040:	3c020005 	lui	v0,0x5
    1044:	24439b24 	addiu	v1,v0,-25820
    1048:	3c020005 	lui	v0,0x5
    104c:	308700ff 	andi	a3,a0,0xff
    1050:	24459b1c 	addiu	a1,v0,-25828
    1054:	00042203 	sra	a0,a0,0x8
    1058:	00003021 	move	a2,zero
    105c:	24080010 	li	t0,16
    1060:	8c620000 	lw	v0,0(v1)
    1064:	00000000 	nop
    1068:	0082102a 	slt	v0,a0,v0
    106c:	14400016 	bnez	v0,10c8 <search_physical_master_address+0x88>
    1070:	24c60001 	addiu	a2,a2,1
    1074:	8c620008 	lw	v0,8(v1)
    1078:	00000000 	nop
    107c:	0044102a 	slt	v0,v0,a0
    1080:	14400011 	bnez	v0,10c8 <search_physical_master_address+0x88>
    1084:	00000000 	nop
    1088:	8c620004 	lw	v0,4(v1)
    108c:	00000000 	nop
    1090:	00e2102a 	slt	v0,a3,v0
    1094:	1440000c 	bnez	v0,10c8 <search_physical_master_address+0x88>
    1098:	00000000 	nop
    109c:	8c62000c 	lw	v0,12(v1)
    10a0:	00000000 	nop
    10a4:	0047102a 	slt	v0,v0,a3
    10a8:	14400008 	bnez	v0,10cc <search_physical_master_address+0x8c>
    10ac:	24a5001c 	addiu	a1,a1,28
    10b0:	24a5ffe4 	addiu	a1,a1,-28
    10b4:	8ca20000 	lw	v0,0(a1)
    10b8:	8ca30004 	lw	v1,4(a1)
    10bc:	00021200 	sll	v0,v0,0x8
    10c0:	03e00008 	jr	ra
    10c4:	00431025 	or	v0,v0,v1
    10c8:	24a5001c 	addiu	a1,a1,28
    10cc:	14c8ffe4 	bne	a2,t0,1060 <search_physical_master_address+0x20>
    10d0:	2463001c 	addiu	v1,v1,28
    10d4:	03e00008 	jr	ra
    10d8:	2402ffff 	li	v0,-1

000010dc <send_loan_proc_request>:
    10dc:	27bdffe0 	addiu	sp,sp,-32
    10e0:	afbf0018 	sw	ra,24(sp)
    10e4:	afb10014 	sw	s1,20(sp)
    10e8:	afb00010 	sw	s0,16(sp)
    10ec:	00a08821 	move	s1,a1
    10f0:	0c000115 	jal	454 <get_service_header_slot>
    10f4:	00808021 	move	s0,a0
    10f8:	3c030005 	lui	v1,0x5
    10fc:	8c641434 	lw	a0,5172(v1)
    1100:	24030190 	li	v1,400
    1104:	ac440020 	sw	a0,32(v0)
    1108:	ac500000 	sw	s0,0(v0)
    110c:	ac430008 	sw	v1,8(v0)
    1110:	ac51000c 	sw	s1,12(v0)
    1114:	8fbf0018 	lw	ra,24(sp)
    1118:	8fb10014 	lw	s1,20(sp)
    111c:	8fb00010 	lw	s0,16(sp)
    1120:	00402021 	move	a0,v0
    1124:	00002821 	move	a1,zero
    1128:	00003021 	move	a2,zero
    112c:	0800014f 	j	53c <send_packet>
    1130:	27bd0020 	addiu	sp,sp,32

00001134 <send_task_migration>:
    1134:	27bdffe0 	addiu	sp,sp,-32
    1138:	afb00010 	sw	s0,16(sp)
    113c:	00808021 	move	s0,a0
    1140:	afbf0018 	sw	ra,24(sp)
    1144:	afb10014 	sw	s1,20(sp)
    1148:	0c000115 	jal	454 <get_service_header_slot>
    114c:	00a08821 	move	s1,a1
    1150:	00101a03 	sra	v1,s0,0x8
    1154:	00032100 	sll	a0,v1,0x4
    1158:	00031880 	sll	v1,v1,0x2
    115c:	00832023 	subu	a0,a0,v1
    1160:	320300ff 	andi	v1,s0,0xff
    1164:	00832021 	addu	a0,a0,v1
    1168:	3c030004 	lui	v1,0x4
    116c:	2463730c 	addiu	v1,v1,29452
    1170:	00042080 	sll	a0,a0,0x2
    1174:	00832021 	addu	a0,a0,v1
    1178:	8c830000 	lw	v1,0(a0)
    117c:	00002821 	move	a1,zero
    1180:	ac430000 	sw	v1,0(v0)
    1184:	24030210 	li	v1,528
    1188:	ac50000c 	sw	s0,12(v0)
    118c:	ac510020 	sw	s1,32(v0)
    1190:	00402021 	move	a0,v0
    1194:	ac430008 	sw	v1,8(v0)
    1198:	0c00014f 	jal	53c <send_packet>
    119c:	00003021 	move	a2,zero
    11a0:	02202021 	move	a0,s1
    11a4:	8fbf0018 	lw	ra,24(sp)
    11a8:	8fb10014 	lw	s1,20(sp)
    11ac:	8fb00010 	lw	s0,16(sp)
    11b0:	080003c8 	j	f20 <page_used>
    11b4:	27bd0020 	addiu	sp,sp,32

000011b8 <send_energy_cluster>:
    11b8:	27bdffe8 	addiu	sp,sp,-24
    11bc:	afbf0014 	sw	ra,20(sp)
    11c0:	0c000115 	jal	454 <get_service_header_slot>
    11c4:	afb00010 	sw	s0,16(sp)
    11c8:	3c030005 	lui	v1,0x5
    11cc:	9064143c 	lbu	a0,5180(v1)
    11d0:	3c100005 	lui	s0,0x5
    11d4:	3c030005 	lui	v1,0x5
    11d8:	8c66144c 	lw	a2,5196(v1)
    11dc:	8e051444 	lw	a1,5188(s0)
    11e0:	24030250 	li	v1,592
    11e4:	ac440000 	sw	a0,0(v0)
    11e8:	ac450038 	sw	a1,56(v0)
    11ec:	ac460034 	sw	a2,52(v0)
    11f0:	ac430008 	sw	v1,8(v0)
    11f4:	00402021 	move	a0,v0
    11f8:	00002821 	move	a1,zero
    11fc:	0c00014f 	jal	53c <send_packet>
    1200:	00003021 	move	a2,zero
    1204:	ae001444 	sw	zero,5188(s0)
    1208:	8fbf0014 	lw	ra,20(sp)
    120c:	8fb00010 	lw	s0,16(sp)
    1210:	03e00008 	jr	ra
    1214:	27bd0018 	addiu	sp,sp,24

00001218 <fires_reclustering_protocol>:
    1218:	27bdffc8 	addiu	sp,sp,-56
    121c:	afbe0030 	sw	s8,48(sp)
    1220:	afb60028 	sw	s6,40(sp)
    1224:	afb40020 	sw	s4,32(sp)
    1228:	afb3001c 	sw	s3,28(sp)
    122c:	afb20018 	sw	s2,24(sp)
    1230:	afb10014 	sw	s1,20(sp)
    1234:	afbf0034 	sw	ra,52(sp)
    1238:	afb7002c 	sw	s7,44(sp)
    123c:	afb50024 	sw	s5,36(sp)
    1240:	afb00010 	sw	s0,16(sp)
    1244:	3c020005 	lui	v0,0x5
    1248:	8c471440 	lw	a3,5184(v0)
    124c:	3c020005 	lui	v0,0x5
    1250:	8c431438 	lw	v1,5176(v0)
    1254:	3c020005 	lui	v0,0x5
    1258:	8c451450 	lw	a1,5200(v0)
    125c:	3c020005 	lui	v0,0x5
    1260:	8c421448 	lw	v0,5192(v0)
    1264:	3c060007 	lui	a2,0x7
    1268:	24c646b4 	addiu	a2,a2,18100
    126c:	8cc80018 	lw	t0,24(a2)
    1270:	00a22823 	subu	a1,a1,v0
    1274:	24a50001 	addiu	a1,a1,1
    1278:	00a80018 	mult	a1,t0
    127c:	2509ffff 	addiu	t1,t0,-1
    1280:	00e33823 	subu	a3,a3,v1
    1284:	24e70001 	addiu	a3,a3,1
    1288:	3c020005 	lui	v0,0x5
    128c:	8c42144c 	lw	v0,5196(v0)
    1290:	3c040005 	lui	a0,0x5
    1294:	00021940 	sll	v1,v0,0x5
    1298:	00021080 	sll	v0,v0,0x2
    129c:	00621823 	subu	v1,v1,v0
    12a0:	24849b1c 	addiu	a0,a0,-25828
    12a4:	3c0200ff 	lui	v0,0xff
    12a8:	0000f012 	mflo	s8
    12ac:	00641821 	addu	v1,v1,a0
    12b0:	3442ffff 	ori	v0,v0,0xffff
    12b4:	00a90018 	mult	a1,t1
    12b8:	2405ffff 	li	a1,-1
    12bc:	8c770004 	lw	s7,4(v1)
    12c0:	8c750000 	lw	s5,0(v1)
    12c4:	00809021 	move	s2,a0
    12c8:	acc50014 	sw	a1,20(a2)
    12cc:	acc2000c 	sw	v0,12(a2)
    12d0:	acc00008 	sw	zero,8(a2)
    12d4:	acc50010 	sw	a1,16(a2)
    12d8:	00008821 	move	s1,zero
    12dc:	0000b012 	mflo	s6
	...
    12e8:	00e80018 	mult	a3,t0
    12ec:	0000a012 	mflo	s4
	...
    12f8:	00e90018 	mult	a3,t1
    12fc:	00009812 	mflo	s3
    1300:	3c020005 	lui	v0,0x5
    1304:	8c42144c 	lw	v0,5196(v0)
    1308:	8e440000 	lw	a0,0(s2)
    130c:	8e460004 	lw	a2,4(s2)
    1310:	10510019 	beq	v0,s1,1378 <fires_reclustering_protocol+0x160>
    1314:	02a42823 	subu	a1,s5,a0
    1318:	04a10002 	bgez	a1,1324 <fires_reclustering_protocol+0x10c>
    131c:	02e61823 	subu	v1,s7,a2
    1320:	00052823 	negu	a1,a1
    1324:	04610002 	bgez	v1,1330 <fires_reclustering_protocol+0x118>
    1328:	0265102a 	slt	v0,s3,a1
    132c:	00031823 	negu	v1,v1
    1330:	14400004 	bnez	v0,1344 <fires_reclustering_protocol+0x12c>
    1334:	0285102a 	slt	v0,s4,a1
    1338:	02c3102a 	slt	v0,s6,v1
    133c:	1040000e 	beqz	v0,1378 <fires_reclustering_protocol+0x160>
    1340:	0285102a 	slt	v0,s4,a1
    1344:	1440000c 	bnez	v0,1378 <fires_reclustering_protocol+0x160>
    1348:	03c3102a 	slt	v0,s8,v1
    134c:	1440000a 	bnez	v0,1378 <fires_reclustering_protocol+0x160>
    1350:	3c100007 	lui	s0,0x7
    1354:	8e0546b4 	lw	a1,18100(s0)
    1358:	00042200 	sll	a0,a0,0x8
    135c:	261046b4 	addiu	s0,s0,18100
    1360:	0c000437 	jal	10dc <send_loan_proc_request>
    1364:	00862025 	or	a0,a0,a2
    1368:	8e020008 	lw	v0,8(s0)
    136c:	00000000 	nop
    1370:	24420001 	addiu	v0,v0,1
    1374:	ae020008 	sw	v0,8(s0)
    1378:	26310001 	addiu	s1,s1,1
    137c:	24020010 	li	v0,16
    1380:	1622ffdf 	bne	s1,v0,1300 <fires_reclustering_protocol+0xe8>
    1384:	2652001c 	addiu	s2,s2,28
    1388:	8fbf0034 	lw	ra,52(sp)
    138c:	8fbe0030 	lw	s8,48(sp)
    1390:	8fb7002c 	lw	s7,44(sp)
    1394:	8fb60028 	lw	s6,40(sp)
    1398:	8fb50024 	lw	s5,36(sp)
    139c:	8fb40020 	lw	s4,32(sp)
    13a0:	8fb3001c 	lw	s3,28(sp)
    13a4:	8fb20018 	lw	s2,24(sp)
    13a8:	8fb10014 	lw	s1,20(sp)
    13ac:	8fb00010 	lw	s0,16(sp)
    13b0:	03e00008 	jr	ra
    13b4:	27bd0038 	addiu	sp,sp,56

000013b8 <reclustering_task>:
    13b8:	3c020007 	lui	v0,0x7
    13bc:	244346b4 	addiu	v1,v0,18100
    13c0:	ac4446b4 	sw	a0,18100(v0)
    13c4:	24020001 	li	v0,1
    13c8:	ac650004 	sw	a1,4(v1)
    13cc:	ac620018 	sw	v0,24(v1)
    13d0:	08000486 	j	1218 <fires_reclustering_protocol>
    13d4:	ac60001c 	sw	zero,28(v1)

000013d8 <reserve_cluster_resources>:
    13d8:	00801021 	move	v0,a0
    13dc:	00021940 	sll	v1,v0,0x5
    13e0:	00021080 	sll	v0,v0,0x2
    13e4:	00621823 	subu	v1,v1,v0
    13e8:	3c020005 	lui	v0,0x5
    13ec:	27bdffe8 	addiu	sp,sp,-24
    13f0:	24429b1c 	addiu	v0,v0,-25828
    13f4:	afb00010 	sw	s0,16(sp)
    13f8:	afbf0014 	sw	ra,20(sp)
    13fc:	00628021 	addu	s0,v1,v0
    1400:	8e020018 	lw	v0,24(s0)
    1404:	3c040000 	lui	a0,0x0
    1408:	00451823 	subu	v1,v0,a1
    140c:	0045102a 	slt	v0,v0,a1
    1410:	10400006 	beqz	v0,142c <reserve_cluster_resources+0x54>
    1414:	24846670 	addiu	a0,a0,26224
    1418:	ae000018 	sw	zero,24(s0)
    141c:	8fbf0014 	lw	ra,20(sp)
    1420:	8fb00010 	lw	s0,16(sp)
    1424:	03e00008 	jr	ra
    1428:	27bd0018 	addiu	sp,sp,24
    142c:	0c000361 	jal	d84 <puts>
    1430:	ae030018 	sw	v1,24(s0)
    1434:	8e040018 	lw	a0,24(s0)
    1438:	0c00000b 	jal	2c <itoa>
    143c:	00000000 	nop
    1440:	0c000361 	jal	d84 <puts>
    1444:	00402021 	move	a0,v0
    1448:	3c040000 	lui	a0,0x0
    144c:	8fbf0014 	lw	ra,20(sp)
    1450:	8fb00010 	lw	s0,16(sp)
    1454:	2484670c 	addiu	a0,a0,26380
    1458:	08000361 	j	d84 <puts>
    145c:	27bd0018 	addiu	sp,sp,24

00001460 <decrement_cluster_resources>:
    1460:	27bdffe8 	addiu	sp,sp,-24
    1464:	308500ff 	andi	a1,a0,0xff
    1468:	00042203 	sra	a0,a0,0x8
    146c:	afbf0014 	sw	ra,20(sp)
    1470:	0c00038b 	jal	e2c <search_cluster_ID>
    1474:	afb00010 	sw	s0,16(sp)
    1478:	00028140 	sll	s0,v0,0x5
    147c:	00021080 	sll	v0,v0,0x2
    1480:	02028023 	subu	s0,s0,v0
    1484:	3c020005 	lui	v0,0x5
    1488:	24429b1c 	addiu	v0,v0,-25828
    148c:	02028021 	addu	s0,s0,v0
    1490:	8e020018 	lw	v0,24(s0)
    1494:	3c040000 	lui	a0,0x0
    1498:	2442ffff 	addiu	v0,v0,-1
    149c:	ae020018 	sw	v0,24(s0)
    14a0:	0c000361 	jal	d84 <puts>
    14a4:	24846688 	addiu	a0,a0,26248
    14a8:	8e040018 	lw	a0,24(s0)
    14ac:	0c00000b 	jal	2c <itoa>
    14b0:	00000000 	nop
    14b4:	0c000361 	jal	d84 <puts>
    14b8:	00402021 	move	a0,v0
    14bc:	3c040000 	lui	a0,0x0
    14c0:	8fbf0014 	lw	ra,20(sp)
    14c4:	8fb00010 	lw	s0,16(sp)
    14c8:	2484670c 	addiu	a0,a0,26380
    14cc:	08000361 	j	d84 <puts>
    14d0:	27bd0018 	addiu	sp,sp,24

000014d4 <send_task_allocation>:
    14d4:	27bdffe8 	addiu	sp,sp,-24
    14d8:	afb00010 	sw	s0,16(sp)
    14dc:	afbf0014 	sw	ra,20(sp)
    14e0:	0c000115 	jal	454 <get_service_header_slot>
    14e4:	00808021 	move	s0,a0
    14e8:	8e030008 	lw	v1,8(s0)
    14ec:	00402021 	move	a0,v0
    14f0:	ac430000 	sw	v1,0(v0)
    14f4:	24030040 	li	v1,64
    14f8:	ac430008 	sw	v1,8(v0)
    14fc:	8e030004 	lw	v1,4(s0)
    1500:	3c051000 	lui	a1,0x1000
    1504:	ac430010 	sw	v1,16(v0)
    1508:	8e030000 	lw	v1,0(s0)
    150c:	00000000 	nop
    1510:	ac43000c 	sw	v1,12(v0)
    1514:	8e060010 	lw	a2,16(s0)
    1518:	00000000 	nop
    151c:	ac460028 	sw	a2,40(v0)
    1520:	8e030014 	lw	v1,20(s0)
    1524:	00000000 	nop
    1528:	ac430024 	sw	v1,36(v0)
    152c:	8e030018 	lw	v1,24(s0)
    1530:	00000000 	nop
    1534:	ac43002c 	sw	v1,44(v0)
    1538:	8e02000c 	lw	v0,12(s0)
    153c:	8fbf0014 	lw	ra,20(sp)
    1540:	8fb00010 	lw	s0,16(sp)
    1544:	00452825 	or	a1,v0,a1
    1548:	0800014f 	j	53c <send_packet>
    154c:	27bd0018 	addiu	sp,sp,24

00001550 <send_app_terminated>:
    1550:	27bdffe8 	addiu	sp,sp,-24
    1554:	afb00010 	sw	s0,16(sp)
    1558:	afbf0014 	sw	ra,20(sp)
    155c:	0c000115 	jal	454 <get_service_header_slot>
    1560:	00808021 	move	s0,a0
    1564:	00101900 	sll	v1,s0,0x4
    1568:	00103980 	sll	a3,s0,0x6
    156c:	00e33823 	subu	a3,a3,v1
    1570:	3c030005 	lui	v1,0x5
    1574:	9063143c 	lbu	v1,5180(v1)
    1578:	000720c0 	sll	a0,a3,0x3
    157c:	ac430000 	sw	v1,0(v0)
    1580:	00872023 	subu	a0,a0,a3
    1584:	24030140 	li	v1,320
    1588:	ac430008 	sw	v1,8(v0)
    158c:	00902021 	addu	a0,a0,s0
    1590:	3c030005 	lui	v1,0x5
    1594:	246337e4 	addiu	v1,v1,14308
    1598:	00042080 	sll	a0,a0,0x2
    159c:	00832021 	addu	a0,a0,v1
    15a0:	ac50000c 	sw	s0,12(v0)
    15a4:	3c030005 	lui	v1,0x5
    15a8:	3c100005 	lui	s0,0x5
    15ac:	8c860000 	lw	a2,0(a0)
    15b0:	3c050005 	lui	a1,0x5
    15b4:	8c64144c 	lw	a0,5196(v1)
    15b8:	8e031444 	lw	v1,5188(s0)
    15bc:	24a585cc 	addiu	a1,a1,-31284
    15c0:	ac440034 	sw	a0,52(v0)
    15c4:	ac430038 	sw	v1,56(v0)
    15c8:	00e52821 	addu	a1,a3,a1
    15cc:	ac460020 	sw	a2,32(v0)
    15d0:	0c00014f 	jal	53c <send_packet>
    15d4:	00402021 	move	a0,v0
    15d8:	ae001444 	sw	zero,5188(s0)
    15dc:	8fbf0014 	lw	ra,20(sp)
    15e0:	8fb00010 	lw	s0,16(sp)
    15e4:	03e00008 	jr	ra
    15e8:	27bd0018 	addiu	sp,sp,24

000015ec <send_task_allocated>:
    15ec:	27bdffe0 	addiu	sp,sp,-32
    15f0:	afb00010 	sw	s0,16(sp)
    15f4:	00808021 	move	s0,a0
    15f8:	afbf001c 	sw	ra,28(sp)
    15fc:	afb20018 	sw	s2,24(sp)
    1600:	afb10014 	sw	s1,20(sp)
    1604:	00c09021 	move	s2,a2
    1608:	0c000115 	jal	454 <get_service_header_slot>
    160c:	00a08821 	move	s1,a1
    1610:	00101a03 	sra	v1,s0,0x8
    1614:	00032100 	sll	a0,v1,0x4
    1618:	00031880 	sll	v1,v1,0x2
    161c:	00832023 	subu	a0,a0,v1
    1620:	321000ff 	andi	s0,s0,0xff
    1624:	00902021 	addu	a0,a0,s0
    1628:	3c030004 	lui	v1,0x4
    162c:	2463730c 	addiu	v1,v1,29452
    1630:	00042080 	sll	a0,a0,0x2
    1634:	00832021 	addu	a0,a0,v1
    1638:	8c830000 	lw	v1,0(a0)
    163c:	ac51000c 	sw	s1,12(v0)
    1640:	ac430000 	sw	v1,0(v0)
    1644:	24030050 	li	v1,80
    1648:	ac430008 	sw	v1,8(v0)
    164c:	ac520020 	sw	s2,32(v0)
    1650:	8fbf001c 	lw	ra,28(sp)
    1654:	8fb20018 	lw	s2,24(sp)
    1658:	8fb10014 	lw	s1,20(sp)
    165c:	8fb00010 	lw	s0,16(sp)
    1660:	00402021 	move	a0,v0
    1664:	00002821 	move	a1,zero
    1668:	00003021 	move	a2,zero
    166c:	0800014f 	j	53c <send_packet>
    1670:	27bd0020 	addiu	sp,sp,32

00001674 <send_new_task>:
    1674:	27bdffd8 	addiu	sp,sp,-40
    1678:	afbf0024 	sw	ra,36(sp)
    167c:	afb40020 	sw	s4,32(sp)
    1680:	afb3001c 	sw	s3,28(sp)
    1684:	00e0a021 	move	s4,a3
    1688:	afb20018 	sw	s2,24(sp)
    168c:	afb10014 	sw	s1,20(sp)
    1690:	00809021 	move	s2,a0
    1694:	00c08821 	move	s1,a2
    1698:	afb00010 	sw	s0,16(sp)
    169c:	0c000115 	jal	454 <get_service_header_slot>
    16a0:	00a08021 	move	s0,a1
    16a4:	3c030005 	lui	v1,0x5
    16a8:	9064143c 	lbu	a0,5180(v1)
    16ac:	3c030005 	lui	v1,0x5
    16b0:	8c66144c 	lw	a2,5196(v1)
    16b4:	3c130005 	lui	s3,0x5
    16b8:	24030130 	li	v1,304
    16bc:	8e651444 	lw	a1,5188(s3)
    16c0:	ac440000 	sw	a0,0(v0)
    16c4:	ac500010 	sw	s0,16(v0)
    16c8:	ac52000c 	sw	s2,12(v0)
    16cc:	ac510020 	sw	s1,32(v0)
    16d0:	ac430008 	sw	v1,8(v0)
    16d4:	8fa30038 	lw	v1,56(sp)
    16d8:	00402021 	move	a0,v0
    16dc:	ac430028 	sw	v1,40(v0)
    16e0:	8fa3003c 	lw	v1,60(sp)
    16e4:	00000000 	nop
    16e8:	ac430024 	sw	v1,36(v0)
    16ec:	8fa30040 	lw	v1,64(sp)
    16f0:	ac540030 	sw	s4,48(v0)
    16f4:	ac450038 	sw	a1,56(v0)
    16f8:	ac460034 	sw	a2,52(v0)
    16fc:	ac43002c 	sw	v1,44(v0)
    1700:	00002821 	move	a1,zero
    1704:	0c00014f 	jal	53c <send_packet>
    1708:	00003021 	move	a2,zero
    170c:	ae601444 	sw	zero,5188(s3)
    1710:	8fbf0024 	lw	ra,36(sp)
    1714:	8fb40020 	lw	s4,32(sp)
    1718:	8fb3001c 	lw	s3,28(sp)
    171c:	8fb20018 	lw	s2,24(sp)
    1720:	8fb10014 	lw	s1,20(sp)
    1724:	8fb00010 	lw	s0,16(sp)
    1728:	03e00008 	jr	ra
    172c:	27bd0028 	addiu	sp,sp,40

00001730 <handle_app_terminated>:
    1730:	27bdffd0 	addiu	sp,sp,-48
    1734:	afb3001c 	sw	s3,28(sp)
    1738:	00a09821 	move	s3,a1
    173c:	afb50024 	sw	s5,36(sp)
    1740:	30a500ff 	andi	a1,a1,0xff
    1744:	0080a821 	move	s5,a0
    1748:	00132202 	srl	a0,s3,0x8
    174c:	afb40020 	sw	s4,32(sp)
    1750:	afb20018 	sw	s2,24(sp)
    1754:	afb10014 	sw	s1,20(sp)
    1758:	afb00010 	sw	s0,16(sp)
    175c:	afbf0028 	sw	ra,40(sp)
    1760:	0c00038b 	jal	e2c <search_cluster_ID>
    1764:	00c08021 	move	s0,a2
    1768:	0040a021 	move	s4,v0
    176c:	02008821 	move	s1,s0
    1770:	08000605 	j	1814 <handle_app_terminated+0xe4>
    1774:	00009021 	move	s2,zero
    1778:	8e230000 	lw	v1,0(s1)
    177c:	3c100005 	lui	s0,0x5
    1780:	26029b1c 	addiu	v0,s0,-25828
    1784:	00823021 	addu	a2,a0,v0
    1788:	306500ff 	andi	a1,v1,0xff
    178c:	1073000d 	beq	v1,s3,17c4 <handle_app_terminated+0x94>
    1790:	00032202 	srl	a0,v1,0x8
    1794:	0c00038b 	jal	e2c <search_cluster_ID>
    1798:	00000000 	nop
    179c:	00021940 	sll	v1,v0,0x5
    17a0:	00021080 	sll	v0,v0,0x2
    17a4:	00621823 	subu	v1,v1,v0
    17a8:	26029b1c 	addiu	v0,s0,-25828
    17ac:	00621821 	addu	v1,v1,v0
    17b0:	8c620018 	lw	v0,24(v1)
    17b4:	00000000 	nop
    17b8:	24420001 	addiu	v0,v0,1
    17bc:	080005f5 	j	17d4 <handle_app_terminated+0xa4>
    17c0:	ac620018 	sw	v0,24(v1)
    17c4:	8cc20018 	lw	v0,24(a2)
    17c8:	00000000 	nop
    17cc:	24420001 	addiu	v0,v0,1
    17d0:	acc20018 	sw	v0,24(a2)
    17d4:	3c040000 	lui	a0,0x0
    17d8:	3c100005 	lui	s0,0x5
    17dc:	0c000361 	jal	d84 <puts>
    17e0:	248466a0 	addiu	a0,a0,26272
    17e4:	8e049cdc 	lw	a0,-25380(s0)
    17e8:	0c00000b 	jal	2c <itoa>
    17ec:	26520001 	addiu	s2,s2,1
    17f0:	0c000361 	jal	d84 <puts>
    17f4:	00402021 	move	a0,v0
    17f8:	3c040000 	lui	a0,0x0
    17fc:	0c000361 	jal	d84 <puts>
    1800:	2484670c 	addiu	a0,a0,26380
    1804:	8e029cdc 	lw	v0,-25380(s0)
    1808:	26310004 	addiu	s1,s1,4
    180c:	24420001 	addiu	v0,v0,1
    1810:	ae029cdc 	sw	v0,-25380(s0)
    1814:	00141880 	sll	v1,s4,0x2
    1818:	00141140 	sll	v0,s4,0x5
    181c:	1655ffd6 	bne	s2,s5,1778 <handle_app_terminated+0x48>
    1820:	00432023 	subu	a0,v0,v1
    1824:	3c020005 	lui	v0,0x5
    1828:	8c432f88 	lw	v1,12168(v0)
    182c:	00000000 	nop
    1830:	24630001 	addiu	v1,v1,1
    1834:	ac432f88 	sw	v1,12168(v0)
    1838:	24020064 	li	v0,100
    183c:	14620010 	bne	v1,v0,1880 <handle_app_terminated+0x150>
    1840:	00000000 	nop
    1844:	3c040000 	lui	a0,0x0
    1848:	248466b8 	addiu	a0,a0,26296
    184c:	0c000361 	jal	d84 <puts>
    1850:	3c102000 	lui	s0,0x2000
    1854:	36020300 	ori	v0,s0,0x300
    1858:	8c440000 	lw	a0,0(v0)
    185c:	0c00000b 	jal	2c <itoa>
    1860:	36100080 	ori	s0,s0,0x80
    1864:	0c000361 	jal	d84 <puts>
    1868:	00402021 	move	a0,v0
    186c:	3c040000 	lui	a0,0x0
    1870:	0c000361 	jal	d84 <puts>
    1874:	2484670c 	addiu	a0,a0,26380
    1878:	24020001 	li	v0,1
    187c:	ae020000 	sw	v0,0(s0)
    1880:	8fbf0028 	lw	ra,40(sp)
    1884:	8fb50024 	lw	s5,36(sp)
    1888:	8fb40020 	lw	s4,32(sp)
    188c:	8fb3001c 	lw	s3,28(sp)
    1890:	8fb20018 	lw	s2,24(sp)
    1894:	8fb10014 	lw	s1,20(sp)
    1898:	8fb00010 	lw	s0,16(sp)
    189c:	03e00008 	jr	ra
    18a0:	27bd0030 	addiu	sp,sp,48

000018a4 <send_loan_proc_delivery>:
    18a4:	27bdffd8 	addiu	sp,sp,-40
    18a8:	afbf0020 	sw	ra,32(sp)
    18ac:	afb3001c 	sw	s3,28(sp)
    18b0:	afb20018 	sw	s2,24(sp)
    18b4:	00c09821 	move	s3,a2
    18b8:	00a09021 	move	s2,a1
    18bc:	afb10014 	sw	s1,20(sp)
    18c0:	afb00010 	sw	s0,16(sp)
    18c4:	00e08821 	move	s1,a3
    18c8:	0c000115 	jal	454 <get_service_header_slot>
    18cc:	00808021 	move	s0,a0
    18d0:	24030200 	li	v1,512
    18d4:	ac500000 	sw	s0,0(v0)
    18d8:	ac430008 	sw	v1,8(v0)
    18dc:	ac52000c 	sw	s2,12(v0)
    18e0:	ac510010 	sw	s1,16(v0)
    18e4:	ac530020 	sw	s3,32(v0)
    18e8:	8fbf0020 	lw	ra,32(sp)
    18ec:	8fb3001c 	lw	s3,28(sp)
    18f0:	8fb20018 	lw	s2,24(sp)
    18f4:	8fb10014 	lw	s1,20(sp)
    18f8:	8fb00010 	lw	s0,16(sp)
    18fc:	00402021 	move	a0,v0
    1900:	00002821 	move	a1,zero
    1904:	00003021 	move	a2,zero
    1908:	0800014f 	j	53c <send_packet>
    190c:	27bd0028 	addiu	sp,sp,40

00001910 <send_loan_proc_release>:
    1910:	27bdffe0 	addiu	sp,sp,-32
    1914:	afbf0018 	sw	ra,24(sp)
    1918:	afb10014 	sw	s1,20(sp)
    191c:	afb00010 	sw	s0,16(sp)
    1920:	00a08821 	move	s1,a1
    1924:	0c000115 	jal	454 <get_service_header_slot>
    1928:	00808021 	move	s0,a0
    192c:	24030090 	li	v1,144
    1930:	ac500000 	sw	s0,0(v0)
    1934:	ac430008 	sw	v1,8(v0)
    1938:	ac510020 	sw	s1,32(v0)
    193c:	8fbf0018 	lw	ra,24(sp)
    1940:	8fb10014 	lw	s1,20(sp)
    1944:	8fb00010 	lw	s0,16(sp)
    1948:	00402021 	move	a0,v0
    194c:	00002821 	move	a1,zero
    1950:	00003021 	move	a2,zero
    1954:	0800014f 	j	53c <send_packet>
    1958:	27bd0020 	addiu	sp,sp,32

0000195c <handle_new_task>:
    195c:	27bdffe8 	addiu	sp,sp,-24
    1960:	afbf0014 	sw	ra,20(sp)
    1964:	afb00010 	sw	s0,16(sp)
    1968:	0c000535 	jal	14d4 <send_task_allocation>
    196c:	00808021 	move	s0,a0
    1970:	2402ffff 	li	v0,-1
    1974:	ae020000 	sw	v0,0(s0)
    1978:	8fbf0014 	lw	ra,20(sp)
    197c:	8fb00010 	lw	s0,16(sp)
    1980:	03e00008 	jr	ra
    1984:	27bd0018 	addiu	sp,sp,24

00001988 <initialize_clusters>:
    1988:	27bdffd8 	addiu	sp,sp,-40
    198c:	3c020005 	lui	v0,0x5
    1990:	afb20018 	sw	s2,24(sp)
    1994:	afb00010 	sw	s0,16(sp)
    1998:	afbf0020 	sw	ra,32(sp)
    199c:	afb3001c 	sw	s3,28(sp)
    19a0:	afb10014 	sw	s1,20(sp)
    19a4:	24509b1c 	addiu	s0,v0,-25828
    19a8:	00009021 	move	s2,zero
    19ac:	8e020000 	lw	v0,0(s0)
    19b0:	8e040004 	lw	a0,4(s0)
    19b4:	3c130005 	lui	s3,0x5
    19b8:	00021200 	sll	v0,v0,0x8
    19bc:	9263143c 	lbu	v1,5180(s3)
    19c0:	00448825 	or	s1,v0,a0
    19c4:	1223000f 	beq	s1,v1,1a04 <initialize_clusters+0x7c>
    19c8:	3c020005 	lui	v0,0x5
    19cc:	0c000115 	jal	454 <get_service_header_slot>
    19d0:	00000000 	nop
    19d4:	9264143c 	lbu	a0,5180(s3)
    19d8:	24030160 	li	v1,352
    19dc:	ac440014 	sw	a0,20(v0)
    19e0:	ac510000 	sw	s1,0(v0)
    19e4:	ac430008 	sw	v1,8(v0)
    19e8:	ac520034 	sw	s2,52(v0)
    19ec:	00402021 	move	a0,v0
    19f0:	00002821 	move	a1,zero
    19f4:	0c00014f 	jal	53c <send_packet>
    19f8:	00003021 	move	a2,zero
    19fc:	08000699 	j	1a64 <initialize_clusters+0xdc>
    1a00:	26520001 	addiu	s2,s2,1
    1a04:	8c441434 	lw	a0,5172(v0)
    1a08:	3c020005 	lui	v0,0x5
    1a0c:	00041a02 	srl	v1,a0,0x8
    1a10:	2442988c 	addiu	v0,v0,-26484
    1a14:	00031900 	sll	v1,v1,0x4
    1a18:	8e080008 	lw	t0,8(s0)
    1a1c:	00621821 	addu	v1,v1,v0
    1a20:	3c020005 	lui	v0,0x5
    1a24:	8e05000c 	lw	a1,12(s0)
    1a28:	8e060010 	lw	a2,16(s0)
    1a2c:	8e070014 	lw	a3,20(s0)
    1a30:	ac52144c 	sw	s2,5196(v0)
    1a34:	3c020005 	lui	v0,0x5
    1a38:	ac481438 	sw	t0,5176(v0)
    1a3c:	3c020005 	lui	v0,0x5
    1a40:	308400ff 	andi	a0,a0,0xff
    1a44:	ac451448 	sw	a1,5192(v0)
    1a48:	3c020005 	lui	v0,0x5
    1a4c:	00641821 	addu	v1,v1,a0
    1a50:	ac461440 	sw	a2,5184(v0)
    1a54:	3c020005 	lui	v0,0x5
    1a58:	a0600000 	sb	zero,0(v1)
    1a5c:	ac471450 	sw	a3,5200(v0)
    1a60:	26520001 	addiu	s2,s2,1
    1a64:	24020010 	li	v0,16
    1a68:	1642ffd0 	bne	s2,v0,19ac <initialize_clusters+0x24>
    1a6c:	2610001c 	addiu	s0,s0,28
    1a70:	8fbf0020 	lw	ra,32(sp)
    1a74:	8fb3001c 	lw	s3,28(sp)
    1a78:	8fb20018 	lw	s2,24(sp)
    1a7c:	8fb10014 	lw	s1,20(sp)
    1a80:	8fb00010 	lw	s0,16(sp)
    1a84:	03e00008 	jr	ra
    1a88:	27bd0028 	addiu	sp,sp,40

00001a8c <initialize_slaves>:
    1a8c:	27bdffd8 	addiu	sp,sp,-40
    1a90:	afb3001c 	sw	s3,28(sp)
    1a94:	afbf0020 	sw	ra,32(sp)
    1a98:	afb20018 	sw	s2,24(sp)
    1a9c:	afb10014 	sw	s1,20(sp)
    1aa0:	afb00010 	sw	s0,16(sp)
    1aa4:	3c020005 	lui	v0,0x5
    1aa8:	8c521438 	lw	s2,5176(v0)
    1aac:	080006c8 	j	1b20 <initialize_slaves+0x94>
    1ab0:	00129a00 	sll	s3,s2,0x8
    1ab4:	3c020005 	lui	v0,0x5
    1ab8:	8c511448 	lw	s1,5192(v0)
    1abc:	080006c0 	j	1b00 <initialize_slaves+0x74>
    1ac0:	02718021 	addu	s0,s3,s1
    1ac4:	3c020005 	lui	v0,0x5
    1ac8:	8c421434 	lw	v0,5172(v0)
    1acc:	00000000 	nop
    1ad0:	1202000a 	beq	s0,v0,1afc <initialize_slaves+0x70>
    1ad4:	00000000 	nop
    1ad8:	0c000115 	jal	454 <get_service_header_slot>
    1adc:	00000000 	nop
    1ae0:	24030170 	li	v1,368
    1ae4:	ac430008 	sw	v1,8(v0)
    1ae8:	ac500000 	sw	s0,0(v0)
    1aec:	00402021 	move	a0,v0
    1af0:	00002821 	move	a1,zero
    1af4:	0c00014f 	jal	53c <send_packet>
    1af8:	00003021 	move	a2,zero
    1afc:	26100001 	addiu	s0,s0,1
    1b00:	3c020005 	lui	v0,0x5
    1b04:	8c421450 	lw	v0,5200(v0)
    1b08:	00000000 	nop
    1b0c:	0051102a 	slt	v0,v0,s1
    1b10:	1040ffec 	beqz	v0,1ac4 <initialize_slaves+0x38>
    1b14:	26310001 	addiu	s1,s1,1
    1b18:	26520001 	addiu	s2,s2,1
    1b1c:	26730100 	addiu	s3,s3,256
    1b20:	3c020005 	lui	v0,0x5
    1b24:	8c421440 	lw	v0,5184(v0)
    1b28:	00000000 	nop
    1b2c:	0052102a 	slt	v0,v0,s2
    1b30:	1040ffe0 	beqz	v0,1ab4 <initialize_slaves+0x28>
    1b34:	00000000 	nop
    1b38:	8fbf0020 	lw	ra,32(sp)
    1b3c:	8fb3001c 	lw	s3,28(sp)
    1b40:	8fb20018 	lw	s2,24(sp)
    1b44:	8fb10014 	lw	s1,20(sp)
    1b48:	8fb00010 	lw	s0,16(sp)
    1b4c:	03e00008 	jr	ra
    1b50:	27bd0028 	addiu	sp,sp,40

00001b54 <update_clusters_load>:
    1b54:	00051900 	sll	v1,a1,0x4
    1b58:	00051180 	sll	v0,a1,0x6
    1b5c:	00431023 	subu	v0,v0,v1
    1b60:	000218c0 	sll	v1,v0,0x3
    1b64:	00621823 	subu	v1,v1,v0
    1b68:	00073880 	sll	a3,a3,0x2
    1b6c:	27bdffe0 	addiu	sp,sp,-32
    1b70:	00651821 	addu	v1,v1,a1
    1b74:	00a05821 	move	t3,a1
    1b78:	24e7000e 	addiu	a3,a3,14
    1b7c:	3c050005 	lui	a1,0x5
    1b80:	afbe001c 	sw	s8,28(sp)
    1b84:	afb00018 	sw	s0,24(sp)
    1b88:	00031880 	sll	v1,v1,0x2
    1b8c:	24a537e4 	addiu	a1,a1,14308
    1b90:	000738c2 	srl	a3,a3,0x3
    1b94:	3c020005 	lui	v0,0x5
    1b98:	00654021 	addu	t0,v1,a1
    1b9c:	8cc90000 	lw	t1,0(a2)
    1ba0:	000738c0 	sll	a3,a3,0x3
    1ba4:	00042080 	sll	a0,a0,0x2
    1ba8:	24421854 	addiu	v0,v0,6228
    1bac:	03a0f021 	move	s8,sp
    1bb0:	03a07821 	move	t7,sp
    1bb4:	00826821 	addu	t5,a0,v0
    1bb8:	24c60094 	addiu	a2,a2,148
    1bbc:	0060c021 	move	t8,v1
    1bc0:	00a08021 	move	s0,a1
    1bc4:	01007021 	move	t6,t0
    1bc8:	03a7e823 	subu	sp,sp,a3
    1bcc:	00005021 	move	t2,zero
    1bd0:	2419ffff 	li	t9,-1
    1bd4:	08000727 	j	1c9c <update_clusters_load+0x148>
    1bd8:	ad090000 	sw	t1,0(t0)
    1bdc:	8cc2ff98 	lw	v0,-104(a2)
    1be0:	8cc5ff9c 	lw	a1,-100(a2)
    1be4:	afc20000 	sw	v0,0(s8)
    1be8:	8fc20000 	lw	v0,0(s8)
    1bec:	8da40000 	lw	a0,0(t5)
    1bf0:	304200ff 	andi	v0,v0,0xff
    1bf4:	afc20000 	sw	v0,0(s8)
    1bf8:	8fc30000 	lw	v1,0(s8)
    1bfc:	24c8ffb0 	addiu	t0,a2,-80
    1c00:	000311c0 	sll	v0,v1,0x7
    1c04:	00031900 	sll	v1,v1,0x4
    1c08:	00431023 	subu	v0,v0,v1
    1c0c:	00581021 	addu	v0,v0,t8
    1c10:	00501021 	addu	v0,v0,s0
    1c14:	24470004 	addiu	a3,v0,4
    1c18:	ace50004 	sw	a1,4(a3)
    1c1c:	8cc2ffa0 	lw	v0,-96(a2)
    1c20:	00e02821 	move	a1,a3
    1c24:	ace20008 	sw	v0,8(a3)
    1c28:	8cc2ffa4 	lw	v0,-92(a2)
    1c2c:	000b4a00 	sll	t1,t3,0x8
    1c30:	ace2000c 	sw	v0,12(a3)
    1c34:	8cc2ffa8 	lw	v0,-88(a2)
    1c38:	acf90014 	sw	t9,20(a3)
    1c3c:	ace20010 	sw	v0,16(a3)
    1c40:	ace0001c 	sw	zero,28(a3)
    1c44:	8cc2ffac 	lw	v0,-84(a2)
    1c48:	240cffff 	li	t4,-1
    1c4c:	00822021 	addu	a0,a0,v0
    1c50:	ada40000 	sw	a0,0(t5)
    1c54:	ace20018 	sw	v0,24(a3)
    1c58:	8d020000 	lw	v0,0(t0)
    1c5c:	00000000 	nop
    1c60:	01221025 	or	v0,t1,v0
    1c64:	aca20020 	sw	v0,32(a1)
    1c68:	8d030004 	lw	v1,4(t0)
    1c6c:	25080008 	addiu	t0,t0,8
    1c70:	aca30024 	sw	v1,36(a1)
    1c74:	104c0005 	beq	v0,t4,1c8c <update_clusters_load+0x138>
    1c78:	24a50008 	addiu	a1,a1,8
    1c7c:	8ce2001c 	lw	v0,28(a3)
    1c80:	00000000 	nop
    1c84:	24420001 	addiu	v0,v0,1
    1c88:	ace2001c 	sw	v0,28(a3)
    1c8c:	1506fff2 	bne	t0,a2,1c58 <update_clusters_load+0x104>
    1c90:	00000000 	nop
    1c94:	254a0001 	addiu	t2,t2,1
    1c98:	24c60068 	addiu	a2,a2,104
    1c9c:	8dc20000 	lw	v0,0(t6)
    1ca0:	00000000 	nop
    1ca4:	0142102a 	slt	v0,t2,v0
    1ca8:	1440ffcc 	bnez	v0,1bdc <update_clusters_load+0x88>
    1cac:	00000000 	nop
    1cb0:	01e0e821 	move	sp,t7
    1cb4:	03c0e821 	move	sp,s8
    1cb8:	8fbe001c 	lw	s8,28(sp)
    1cbc:	8fb00018 	lw	s0,24(sp)
    1cc0:	03e00008 	jr	ra
    1cc4:	27bd0020 	addiu	sp,sp,32

00001cc8 <MapTask>:
    1cc8:	00041900 	sll	v1,a0,0x4
    1ccc:	00041180 	sll	v0,a0,0x6
    1cd0:	00431023 	subu	v0,v0,v1
    1cd4:	000218c0 	sll	v1,v0,0x3
    1cd8:	00621823 	subu	v1,v1,v0
    1cdc:	00641821 	addu	v1,v1,a0
    1ce0:	000521c0 	sll	a0,a1,0x7
    1ce4:	00052900 	sll	a1,a1,0x4
    1ce8:	00852023 	subu	a0,a0,a1
    1cec:	00033080 	sll	a2,v1,0x2
    1cf0:	3c020005 	lui	v0,0x5
    1cf4:	27bdffb0 	addiu	sp,sp,-80
    1cf8:	244537e4 	addiu	a1,v0,14308
    1cfc:	00862021 	addu	a0,a0,a2
    1d00:	afbe0048 	sw	s8,72(sp)
    1d04:	afb70044 	sw	s7,68(sp)
    1d08:	afb60040 	sw	s6,64(sp)
    1d0c:	afb5003c 	sw	s5,60(sp)
    1d10:	afb40038 	sw	s4,56(sp)
    1d14:	afb30034 	sw	s3,52(sp)
    1d18:	afb20030 	sw	s2,48(sp)
    1d1c:	afb1002c 	sw	s1,44(sp)
    1d20:	afb00028 	sw	s0,40(sp)
    1d24:	00851021 	addu	v0,a0,a1
    1d28:	8c4a0020 	lw	t2,32(v0)
    1d2c:	3c020004 	lui	v0,0x4
    1d30:	000a18c0 	sll	v1,t2,0x3
    1d34:	03a0f021 	move	s8,sp
    1d38:	24630008 	addiu	v1,v1,8
    1d3c:	8c427308 	lw	v0,29448(v0)
    1d40:	afdd0004 	sw	sp,4(s8)
    1d44:	03a3e823 	subu	sp,sp,v1
    1d48:	14400003 	bnez	v0,1d58 <MapTask+0x90>
    1d4c:	03a03821 	move	a3,sp
    1d50:	0800089b 	j	226c <MapTask+0x5a4>
    1d54:	2412ffff 	li	s2,-1
    1d58:	00851021 	addu	v0,a0,a1
    1d5c:	00a06821 	move	t5,a1
    1d60:	00c05821 	move	t3,a2
    1d64:	24440028 	addiu	a0,v0,40
    1d68:	00004821 	move	t1,zero
    1d6c:	00007021 	move	t6,zero
    1d70:	240cffff 	li	t4,-1
    1d74:	03a03021 	move	a2,sp
    1d78:	08000770 	j	1dc0 <MapTask+0xf8>
    1d7c:	03a02821 	move	a1,sp
    1d80:	acc00000 	sw	zero,0(a2)
    1d84:	9083ffff 	lbu	v1,-1(a0)
    1d88:	8c880000 	lw	t0,0(a0)
    1d8c:	000311c0 	sll	v0,v1,0x7
    1d90:	00031900 	sll	v1,v1,0x4
    1d94:	00431023 	subu	v0,v0,v1
    1d98:	004b1021 	addu	v0,v0,t3
    1d9c:	004d1021 	addu	v0,v0,t5
    1da0:	8c420018 	lw	v0,24(v0)
    1da4:	24c60008 	addiu	a2,a2,8
    1da8:	104c0005 	beq	v0,t4,1dc0 <MapTask+0xf8>
    1dac:	24840008 	addiu	a0,a0,8
    1db0:	aca20000 	sw	v0,0(a1)
    1db4:	aca80004 	sw	t0,4(a1)
    1db8:	25ce0001 	addiu	t6,t6,1
    1dbc:	24a50008 	addiu	a1,a1,8
    1dc0:	012a102a 	slt	v0,t1,t2
    1dc4:	1440ffee 	bnez	v0,1d80 <MapTask+0xb8>
    1dc8:	25290001 	addiu	t1,t1,1
    1dcc:	24020001 	li	v0,1
    1dd0:	8ce30000 	lw	v1,0(a3)
    1dd4:	15c20071 	bne	t6,v0,1f9c <MapTask+0x2d4>
    1dd8:	00e04021 	move	t0,a3
    1ddc:	3c020005 	lui	v0,0x5
    1de0:	8c4e1438 	lw	t6,5176(v0)
    1de4:	00031203 	sra	v0,v1,0x8
    1de8:	2445ffff 	addiu	a1,v0,-1
    1dec:	306300ff 	andi	v1,v1,0xff
    1df0:	01c5202a 	slt	a0,t6,a1
    1df4:	24670001 	addiu	a3,v1,1
    1df8:	24460001 	addiu	a2,v0,1
    1dfc:	2463ffff 	addiu	v1,v1,-1
    1e00:	10800002 	beqz	a0,1e0c <MapTask+0x144>
    1e04:	01c0c021 	move	t8,t6
    1e08:	00a07021 	move	t6,a1
    1e0c:	3c020005 	lui	v0,0x5
    1e10:	8c481448 	lw	t0,5192(v0)
    1e14:	00000000 	nop
    1e18:	0103102a 	slt	v0,t0,v1
    1e1c:	10400002 	beqz	v0,1e28 <MapTask+0x160>
    1e20:	0100a021 	move	s4,t0
    1e24:	00604021 	move	t0,v1
    1e28:	3c020005 	lui	v0,0x5
    1e2c:	8c4b1440 	lw	t3,5184(v0)
    1e30:	00000000 	nop
    1e34:	00cb102a 	slt	v0,a2,t3
    1e38:	10400002 	beqz	v0,1e44 <MapTask+0x17c>
    1e3c:	01609821 	move	s3,t3
    1e40:	00c05821 	move	t3,a2
    1e44:	3c020005 	lui	v0,0x5
    1e48:	8c4a1450 	lw	t2,5200(v0)
    1e4c:	00000000 	nop
    1e50:	00ea102a 	slt	v0,a3,t2
    1e54:	10400002 	beqz	v0,1e60 <MapTask+0x198>
    1e58:	01408821 	move	s1,t2
    1e5c:	00e05021 	move	t2,a3
    1e60:	3c020005 	lui	v0,0x5
    1e64:	245733e4 	addiu	s7,v0,13284
    1e68:	2412ffff 	li	s2,-1
    1e6c:	24100001 	li	s0,1
    1e70:	00007821 	move	t7,zero
    1e74:	24150001 	li	s5,1
    1e78:	24160001 	li	s6,1
    1e7c:	2419ffff 	li	t9,-1
    1e80:	000e1200 	sll	v0,t6,0x8
    1e84:	00486821 	addu	t5,v0,t0
    1e88:	080007bc 	j	1ef0 <MapTask+0x228>
    1e8c:	01c06021 	move	t4,t6
    1e90:	81220000 	lb	v0,0(t1)
    1e94:	00000000 	nop
    1e98:	1840000d 	blez	v0,1ed0 <MapTask+0x208>
    1e9c:	25290001 	addiu	t1,t1,1
    1ea0:	8c640000 	lw	a0,0(v1)
    1ea4:	00000000 	nop
    1ea8:	008f102b 	sltu	v0,a0,t7
    1eac:	10400003 	beqz	v0,1ebc <MapTask+0x1f4>
    1eb0:	00000000 	nop
    1eb4:	00a09021 	move	s2,a1
    1eb8:	00807821 	move	t7,a0
    1ebc:	16b60004 	bne	s5,s6,1ed0 <MapTask+0x208>
    1ec0:	00000000 	nop
    1ec4:	00807821 	move	t7,a0
    1ec8:	0000a821 	move	s5,zero
    1ecc:	00c09021 	move	s2,a2
    1ed0:	24c60001 	addiu	a2,a2,1
    1ed4:	24a50001 	addiu	a1,a1,1
    1ed8:	24630004 	addiu	v1,v1,4
    1edc:	0147102a 	slt	v0,t2,a3
    1ee0:	1040ffeb 	beqz	v0,1e90 <MapTask+0x1c8>
    1ee4:	24e70001 	addiu	a3,a3,1
    1ee8:	258c0001 	addiu	t4,t4,1
    1eec:	25ad0100 	addiu	t5,t5,256
    1ef0:	016c102a 	slt	v0,t3,t4
    1ef4:	1440000b 	bnez	v0,1f24 <MapTask+0x25c>
    1ef8:	000c1100 	sll	v0,t4,0x4
    1efc:	01021021 	addu	v0,t0,v0
    1f00:	3c040005 	lui	a0,0x5
    1f04:	00021880 	sll	v1,v0,0x2
    1f08:	2484988c 	addiu	a0,a0,-26484
    1f0c:	00771821 	addu	v1,v1,s7
    1f10:	00444821 	addu	t1,v0,a0
    1f14:	01003821 	move	a3,t0
    1f18:	01a03021 	move	a2,t5
    1f1c:	080007b7 	j	1edc <MapTask+0x214>
    1f20:	01a02821 	move	a1,t5
    1f24:	1659000f 	bne	s2,t9,1f64 <MapTask+0x29c>
    1f28:	02781823 	subu	v1,s3,t8
    1f2c:	030e102a 	slt	v0,t8,t6
    1f30:	10400002 	beqz	v0,1f3c <MapTask+0x274>
    1f34:	26100001 	addiu	s0,s0,1
    1f38:	25ceffff 	addiu	t6,t6,-1
    1f3c:	0288102a 	slt	v0,s4,t0
    1f40:	10400002 	beqz	v0,1f4c <MapTask+0x284>
    1f44:	0173102a 	slt	v0,t3,s3
    1f48:	2508ffff 	addiu	t0,t0,-1
    1f4c:	10400002 	beqz	v0,1f58 <MapTask+0x290>
    1f50:	0151102a 	slt	v0,t2,s1
    1f54:	256b0001 	addiu	t3,t3,1
    1f58:	10400002 	beqz	v0,1f64 <MapTask+0x29c>
    1f5c:	02781823 	subu	v1,s3,t8
    1f60:	254a0001 	addiu	t2,t2,1
    1f64:	04610002 	bgez	v1,1f70 <MapTask+0x2a8>
    1f68:	02341023 	subu	v0,s1,s4
    1f6c:	00031823 	negu	v1,v1
    1f70:	04410002 	bgez	v0,1f7c <MapTask+0x2b4>
    1f74:	00000000 	nop
    1f78:	00021023 	negu	v0,v0
    1f7c:	00621021 	addu	v0,v1,v0
    1f80:	0050102b 	sltu	v0,v0,s0
    1f84:	144000b9 	bnez	v0,226c <MapTask+0x5a4>
    1f88:	00000000 	nop
    1f8c:	1259ffbd 	beq	s2,t9,1e84 <MapTask+0x1bc>
    1f90:	000e1200 	sll	v0,t6,0x8
    1f94:	0800089b 	j	226c <MapTask+0x5a4>
    1f98:	00000000 	nop
    1f9c:	306900ff 	andi	t1,v1,0xff
    1fa0:	00031a03 	sra	v1,v1,0x8
    1fa4:	00605021 	move	t2,v1
    1fa8:	01205821 	move	t3,t1
    1fac:	08000800 	j	2000 <MapTask+0x338>
    1fb0:	240c0001 	li	t4,1
    1fb4:	8d020000 	lw	v0,0(t0)
    1fb8:	00000000 	nop
    1fbc:	00022203 	sra	a0,v0,0x8
    1fc0:	304500ff 	andi	a1,v0,0xff
    1fc4:	0083102a 	slt	v0,a0,v1
    1fc8:	0165682a 	slt	t5,t3,a1
    1fcc:	0144302a 	slt	a2,t2,a0
    1fd0:	10400002 	beqz	v0,1fdc <MapTask+0x314>
    1fd4:	00a9382a 	slt	a3,a1,t1
    1fd8:	00801821 	move	v1,a0
    1fdc:	10c00002 	beqz	a2,1fe8 <MapTask+0x320>
    1fe0:	00000000 	nop
    1fe4:	00805021 	move	t2,a0
    1fe8:	10e00002 	beqz	a3,1ff4 <MapTask+0x32c>
    1fec:	00000000 	nop
    1ff0:	00a04821 	move	t1,a1
    1ff4:	11a00003 	beqz	t5,2004 <MapTask+0x33c>
    1ff8:	018e102a 	slt	v0,t4,t6
    1ffc:	00a05821 	move	t3,a1
    2000:	018e102a 	slt	v0,t4,t6
    2004:	25080008 	addiu	t0,t0,8
    2008:	1440ffea 	bnez	v0,1fb4 <MapTask+0x2ec>
    200c:	258c0001 	addiu	t4,t4,1
    2010:	3c020005 	lui	v0,0x5
    2014:	8c4d1438 	lw	t5,5176(v0)
    2018:	2463ffff 	addiu	v1,v1,-1
    201c:	01a3102a 	slt	v0,t5,v1
    2020:	25450001 	addiu	a1,t2,1
    2024:	2524ffff 	addiu	a0,t1,-1
    2028:	25660001 	addiu	a2,t3,1
    202c:	10400002 	beqz	v0,2038 <MapTask+0x370>
    2030:	afcd000c 	sw	t5,12(s8)
    2034:	00606821 	move	t5,v1
    2038:	3c020005 	lui	v0,0x5
    203c:	8c471448 	lw	a3,5192(v0)
    2040:	00000000 	nop
    2044:	00e4102a 	slt	v0,a3,a0
    2048:	10400002 	beqz	v0,2054 <MapTask+0x38c>
    204c:	afc70008 	sw	a3,8(s8)
    2050:	00803821 	move	a3,a0
    2054:	3c020005 	lui	v0,0x5
    2058:	8c4b1440 	lw	t3,5184(v0)
    205c:	00000000 	nop
    2060:	00ab102a 	slt	v0,a1,t3
    2064:	10400002 	beqz	v0,2070 <MapTask+0x3a8>
    2068:	0160b821 	move	s7,t3
    206c:	00a05821 	move	t3,a1
    2070:	3c020005 	lui	v0,0x5
    2074:	8c491450 	lw	t1,5200(v0)
    2078:	00000000 	nop
    207c:	00c9102a 	slt	v0,a2,t1
    2080:	10400002 	beqz	v0,208c <MapTask+0x3c4>
    2084:	afc90010 	sw	t1,16(s8)
    2088:	00c04821 	move	t1,a2
    208c:	24160001 	li	s6,1
    2090:	2412ffff 	li	s2,-1
    2094:	2415ffff 	li	s5,-1
    2098:	2411ffff 	li	s1,-1
    209c:	2419ffff 	li	t9,-1
    20a0:	2413ffff 	li	s3,-1
    20a4:	00007821 	move	t7,zero
    20a8:	0000c021 	move	t8,zero
    20ac:	0000a021 	move	s4,zero
    20b0:	afd60000 	sw	s6,0(s8)
    20b4:	2410ffff 	li	s0,-1
    20b8:	000d1200 	sll	v0,t5,0x8
    20bc:	00477021 	addu	t6,v0,a3
    20c0:	0800085e 	j	2178 <MapTask+0x4b0>
    20c4:	01a02821 	move	a1,t5
    20c8:	1300000f 	beqz	t8,2108 <MapTask+0x440>
    20cc:	24020001 	li	v0,1
    20d0:	1702001f 	bne	t8,v0,2150 <MapTask+0x488>
    20d4:	00000000 	nop
    20d8:	10b50003 	beq	a1,s5,20e8 <MapTask+0x420>
    20dc:	00000000 	nop
    20e0:	14b10003 	bne	a1,s1,20f0 <MapTask+0x428>
    20e4:	00000000 	nop
    20e8:	14d00007 	bne	a2,s0,2108 <MapTask+0x440>
    20ec:	00000000 	nop
    20f0:	10b00017 	beq	a1,s0,2150 <MapTask+0x488>
    20f4:	00000000 	nop
    20f8:	10d30003 	beq	a2,s3,2108 <MapTask+0x440>
    20fc:	00000000 	nop
    2100:	14d90013 	bne	a2,t9,2150 <MapTask+0x488>
    2104:	00000000 	nop
    2108:	81820000 	lb	v0,0(t4)
    210c:	00000000 	nop
    2110:	1840000f 	blez	v0,2150 <MapTask+0x488>
    2114:	00000000 	nop
    2118:	8c640000 	lw	a0,0(v1)
    211c:	00000000 	nop
    2120:	0094102b 	sltu	v0,a0,s4
    2124:	10400003 	beqz	v0,2134 <MapTask+0x46c>
    2128:	00000000 	nop
    212c:	01009021 	move	s2,t0
    2130:	0080a021 	move	s4,a0
    2134:	8fd60000 	lw	s6,0(s8)
    2138:	24020001 	li	v0,1
    213c:	16c20004 	bne	s6,v0,2150 <MapTask+0x488>
    2140:	00000000 	nop
    2144:	0080a021 	move	s4,a0
    2148:	01409021 	move	s2,t2
    214c:	afc00000 	sw	zero,0(s8)
    2150:	24c60001 	addiu	a2,a2,1
    2154:	254a0001 	addiu	t2,t2,1
    2158:	258c0001 	addiu	t4,t4,1
    215c:	25080001 	addiu	t0,t0,1
    2160:	24630004 	addiu	v1,v1,4
    2164:	0126102a 	slt	v0,t1,a2
    2168:	1040ffd7 	beqz	v0,20c8 <MapTask+0x400>
    216c:	00000000 	nop
    2170:	24a50001 	addiu	a1,a1,1
    2174:	25ce0100 	addiu	t6,t6,256
    2178:	0165102a 	slt	v0,t3,a1
    217c:	1440000d 	bnez	v0,21b4 <MapTask+0x4ec>
    2180:	00051100 	sll	v0,a1,0x4
    2184:	00e21021 	addu	v0,a3,v0
    2188:	3c040005 	lui	a0,0x5
    218c:	3c160005 	lui	s6,0x5
    2190:	00021880 	sll	v1,v0,0x2
    2194:	248433e4 	addiu	a0,a0,13284
    2198:	26d6988c 	addiu	s6,s6,-26484
    219c:	00641821 	addu	v1,v1,a0
    21a0:	00566021 	addu	t4,v0,s6
    21a4:	00e03021 	move	a2,a3
    21a8:	01c05021 	move	t2,t6
    21ac:	08000859 	j	2164 <MapTask+0x49c>
    21b0:	01c04021 	move	t0,t6
    21b4:	16500029 	bne	s2,s0,225c <MapTask+0x594>
    21b8:	24020004 	li	v0,4
    21bc:	8fc3000c 	lw	v1,12(s8)
    21c0:	00000000 	nop
    21c4:	006d102a 	slt	v0,v1,t5
    21c8:	14400003 	bnez	v0,21d8 <MapTask+0x510>
    21cc:	2415ffff 	li	s5,-1
    21d0:	08000879 	j	21e4 <MapTask+0x51c>
    21d4:	240f0001 	li	t7,1
    21d8:	25adffff 	addiu	t5,t5,-1
    21dc:	01a0a821 	move	s5,t5
    21e0:	00007821 	move	t7,zero
    21e4:	8fc40008 	lw	a0,8(s8)
    21e8:	00000000 	nop
    21ec:	0087102a 	slt	v0,a0,a3
    21f0:	10400004 	beqz	v0,2204 <MapTask+0x53c>
    21f4:	00000000 	nop
    21f8:	24e7ffff 	addiu	a3,a3,-1
    21fc:	08000883 	j	220c <MapTask+0x544>
    2200:	00e09821 	move	s3,a3
    2204:	25ef0001 	addiu	t7,t7,1
    2208:	2413ffff 	li	s3,-1
    220c:	0177102a 	slt	v0,t3,s7
    2210:	10400004 	beqz	v0,2224 <MapTask+0x55c>
    2214:	00000000 	nop
    2218:	256b0001 	addiu	t3,t3,1
    221c:	0800088b 	j	222c <MapTask+0x564>
    2220:	01608821 	move	s1,t3
    2224:	25ef0001 	addiu	t7,t7,1
    2228:	2411ffff 	li	s1,-1
    222c:	8fd60010 	lw	s6,16(s8)
    2230:	00000000 	nop
    2234:	0136102a 	slt	v0,t1,s6
    2238:	10400004 	beqz	v0,224c <MapTask+0x584>
    223c:	00000000 	nop
    2240:	25290001 	addiu	t1,t1,1
    2244:	08000895 	j	2254 <MapTask+0x58c>
    2248:	0120c821 	move	t9,t1
    224c:	25ef0001 	addiu	t7,t7,1
    2250:	2419ffff 	li	t9,-1
    2254:	24180001 	li	t8,1
    2258:	24020004 	li	v0,4
    225c:	11e20003 	beq	t7,v0,226c <MapTask+0x5a4>
    2260:	00000000 	nop
    2264:	1250ff95 	beq	s2,s0,20bc <MapTask+0x3f4>
    2268:	000d1200 	sll	v0,t5,0x8
    226c:	8fdd0004 	lw	sp,4(s8)
    2270:	03c0e821 	move	sp,s8
    2274:	02401021 	move	v0,s2
    2278:	8fbe0048 	lw	s8,72(sp)
    227c:	8fb70044 	lw	s7,68(sp)
    2280:	8fb60040 	lw	s6,64(sp)
    2284:	8fb5003c 	lw	s5,60(sp)
    2288:	8fb40038 	lw	s4,56(sp)
    228c:	8fb30034 	lw	s3,52(sp)
    2290:	8fb20030 	lw	s2,48(sp)
    2294:	8fb1002c 	lw	s1,44(sp)
    2298:	8fb00028 	lw	s0,40(sp)
    229c:	03e00008 	jr	ra
    22a0:	27bd0050 	addiu	sp,sp,80

000022a4 <allocate_new_task>:
    22a4:	27bdffa0 	addiu	sp,sp,-96
    22a8:	afb00040 	sw	s0,64(sp)
    22ac:	2410ffff 	li	s0,-1
    22b0:	afb50054 	sw	s5,84(sp)
    22b4:	afb3004c 	sw	s3,76(sp)
    22b8:	afb20048 	sw	s2,72(sp)
    22bc:	afbf0058 	sw	ra,88(sp)
    22c0:	afb40050 	sw	s4,80(sp)
    22c4:	afb10044 	sw	s1,68(sp)
    22c8:	00c09021 	move	s2,a2
    22cc:	00809821 	move	s3,a0
    22d0:	14d0001c 	bne	a2,s0,2344 <allocate_new_task+0xa0>
    22d4:	00a0a821 	move	s5,a1
    22d8:	3c020004 	lui	v0,0x4
    22dc:	8c427308 	lw	v0,29448(v0)
    22e0:	00000000 	nop
    22e4:	1c40000d 	bgtz	v0,231c <allocate_new_task+0x78>
    22e8:	3c020007 	lui	v0,0x7
    22ec:	8c4246b4 	lw	v0,18100(v0)
    22f0:	00000000 	nop
    22f4:	10460005 	beq	v0,a2,230c <allocate_new_task+0x68>
    22f8:	00000000 	nop
    22fc:	0c0001ca 	jal	728 <add_task_request>
    2300:	00000000 	nop
    2304:	08000936 	j	24d8 <allocate_new_task+0x234>
    2308:	00000000 	nop
    230c:	0c0004ee 	jal	13b8 <reclustering_task>
    2310:	00000000 	nop
    2314:	08000936 	j	24d8 <allocate_new_task+0x234>
    2318:	00000000 	nop
    231c:	00042203 	sra	a0,a0,0x8
    2320:	0c000732 	jal	1cc8 <MapTask>
    2324:	326500ff 	andi	a1,s3,0xff
    2328:	14500006 	bne	v0,s0,2344 <allocate_new_task+0xa0>
    232c:	00409021 	move	s2,v0
    2330:	3c040000 	lui	a0,0x0
    2334:	0c000361 	jal	d84 <puts>
    2338:	248466c0 	addiu	a0,a0,26304
    233c:	080008cf 	j	233c <allocate_new_task+0x98>
    2340:	00000000 	nop
    2344:	1a400003 	blez	s2,2354 <allocate_new_task+0xb0>
    2348:	2402ffff 	li	v0,-1
    234c:	16620005 	bne	s3,v0,2364 <allocate_new_task+0xc0>
    2350:	0013a203 	sra	s4,s3,0x8
    2354:	3c040000 	lui	a0,0x0
    2358:	0c000361 	jal	d84 <puts>
    235c:	248466dc 	addiu	a0,a0,26332
    2360:	0013a203 	sra	s4,s3,0x8
    2364:	00141900 	sll	v1,s4,0x4
    2368:	00141180 	sll	v0,s4,0x6
    236c:	00431023 	subu	v0,v0,v1
    2370:	000218c0 	sll	v1,v0,0x3
    2374:	00621823 	subu	v1,v1,v0
    2378:	326200ff 	andi	v0,s3,0xff
    237c:	000221c0 	sll	a0,v0,0x7
    2380:	00741821 	addu	v1,v1,s4
    2384:	00021100 	sll	v0,v0,0x4
    2388:	00822023 	subu	a0,a0,v0
    238c:	00031880 	sll	v1,v1,0x2
    2390:	3c020005 	lui	v0,0x5
    2394:	00832021 	addu	a0,a0,v1
    2398:	244237e4 	addiu	v0,v0,14308
    239c:	00822021 	addu	a0,a0,v0
    23a0:	3c020005 	lui	v0,0x5
    23a4:	90421430 	lbu	v0,5168(v0)
    23a8:	24840004 	addiu	a0,a0,4
    23ac:	8c870010 	lw	a3,16(a0)
    23b0:	8c8a000c 	lw	t2,12(a0)
    23b4:	8c880004 	lw	t0,4(a0)
    23b8:	8c890008 	lw	t1,8(a0)
    23bc:	10400033 	beqz	v0,248c <allocate_new_task+0x1e8>
    23c0:	3c030005 	lui	v1,0x5
    23c4:	8c621434 	lw	v0,5172(v1)
    23c8:	3c110005 	lui	s1,0x5
    23cc:	27a40020 	addiu	a0,sp,32
    23d0:	afaa0038 	sw	t2,56(sp)
    23d4:	afa80030 	sw	t0,48(sp)
    23d8:	afa90034 	sw	t1,52(sp)
    23dc:	afa7002c 	sw	a3,44(sp)
    23e0:	afa20024 	sw	v0,36(sp)
    23e4:	afb20028 	sw	s2,40(sp)
    23e8:	0c00018d 	jal	634 <add_new_task>
    23ec:	afb30020 	sw	s3,32(sp)
    23f0:	8e22144c 	lw	v0,5196(s1)
    23f4:	3c100005 	lui	s0,0x5
    23f8:	00021940 	sll	v1,v0,0x5
    23fc:	00021080 	sll	v0,v0,0x2
    2400:	00621823 	subu	v1,v1,v0
    2404:	26109b1c 	addiu	s0,s0,-25828
    2408:	00701821 	addu	v1,v1,s0
    240c:	8c620018 	lw	v0,24(v1)
    2410:	3c040000 	lui	a0,0x0
    2414:	2442ffff 	addiu	v0,v0,-1
    2418:	ac620018 	sw	v0,24(v1)
    241c:	0c000361 	jal	d84 <puts>
    2420:	24846710 	addiu	a0,a0,26384
    2424:	8e22144c 	lw	v0,5196(s1)
    2428:	00000000 	nop
    242c:	00021940 	sll	v1,v0,0x5
    2430:	00021080 	sll	v0,v0,0x2
    2434:	00621823 	subu	v1,v1,v0
    2438:	00701821 	addu	v1,v1,s0
    243c:	8c640018 	lw	a0,24(v1)
    2440:	0c00000b 	jal	2c <itoa>
    2444:	00000000 	nop
    2448:	0c000361 	jal	d84 <puts>
    244c:	00402021 	move	a0,v0
    2450:	3c040000 	lui	a0,0x0
    2454:	0c000361 	jal	d84 <puts>
    2458:	2484670c 	addiu	a0,a0,26380
    245c:	8e23144c 	lw	v1,5196(s1)
    2460:	3c020007 	lui	v0,0x7
    2464:	24424674 	addiu	v0,v0,18036
    2468:	00031880 	sll	v1,v1,0x2
    246c:	00621821 	addu	v1,v1,v0
    2470:	3c040005 	lui	a0,0x5
    2474:	8c620000 	lw	v0,0(v1)
    2478:	8c851444 	lw	a1,5188(a0)
    247c:	ac801444 	sw	zero,5188(a0)
    2480:	00451021 	addu	v0,v0,a1
    2484:	0800092a 	j	24a8 <allocate_new_task+0x204>
    2488:	ac620000 	sw	v0,0(v1)
    248c:	8c651434 	lw	a1,5172(v1)
    2490:	02602021 	move	a0,s3
    2494:	02403021 	move	a2,s2
    2498:	afa80010 	sw	t0,16(sp)
    249c:	afa90014 	sw	t1,20(sp)
    24a0:	0c00059d 	jal	1674 <send_new_task>
    24a4:	afaa0018 	sw	t2,24(sp)
    24a8:	0c0003c8 	jal	f20 <page_used>
    24ac:	02402021 	move	a0,s2
    24b0:	02802021 	move	a0,s4
    24b4:	326500ff 	andi	a1,s3,0xff
    24b8:	0c0003ec 	jal	fb0 <insert_task_loc>
    24bc:	02403021 	move	a2,s2
    24c0:	2402ffff 	li	v0,-1
    24c4:	12a20004 	beq	s5,v0,24d8 <allocate_new_task+0x234>
    24c8:	02a02021 	move	a0,s5
    24cc:	02602821 	move	a1,s3
    24d0:	0c00057b 	jal	15ec <send_task_allocated>
    24d4:	02403021 	move	a2,s2
    24d8:	8fbf0058 	lw	ra,88(sp)
    24dc:	8fb50054 	lw	s5,84(sp)
    24e0:	8fb40050 	lw	s4,80(sp)
    24e4:	8fb3004c 	lw	s3,76(sp)
    24e8:	8fb20048 	lw	s2,72(sp)
    24ec:	8fb10044 	lw	s1,68(sp)
    24f0:	8fb00040 	lw	s0,64(sp)
    24f4:	03e00008 	jr	ra
    24f8:	27bd0060 	addiu	sp,sp,96

000024fc <handle_end_of_reclustering_round>:
    24fc:	27bdffe0 	addiu	sp,sp,-32
    2500:	afb10014 	sw	s1,20(sp)
    2504:	3c110007 	lui	s1,0x7
    2508:	afb20018 	sw	s2,24(sp)
    250c:	afb00010 	sw	s0,16(sp)
    2510:	afbf001c 	sw	ra,28(sp)
    2514:	263046b4 	addiu	s0,s1,18100
    2518:	8e02001c 	lw	v0,28(s0)
    251c:	00000000 	nop
    2520:	10400008 	beqz	v0,2544 <handle_end_of_reclustering_round+0x48>
    2524:	2412ffff 	li	s2,-1
    2528:	8e050004 	lw	a1,4(s0)
    252c:	8e2446b4 	lw	a0,18100(s1)
    2530:	0c0001ca 	jal	728 <add_task_request>
    2534:	00000000 	nop
    2538:	2402ffff 	li	v0,-1
    253c:	08000978 	j	25e0 <handle_end_of_reclustering_round+0xe4>
    2540:	ae2246b4 	sw	v0,18100(s1)
    2544:	8e020010 	lw	v0,16(s0)
    2548:	00000000 	nop
    254c:	1052000f 	beq	v0,s2,258c <handle_end_of_reclustering_round+0x90>
    2550:	00403021 	move	a2,v0
    2554:	8e2446b4 	lw	a0,18100(s1)
    2558:	8e050004 	lw	a1,4(s0)
    255c:	0c0008a9 	jal	22a4 <allocate_new_task>
    2560:	00000000 	nop
    2564:	3c020005 	lui	v0,0x5
    2568:	90421430 	lbu	v0,5168(v0)
    256c:	00000000 	nop
    2570:	10400004 	beqz	v0,2584 <handle_end_of_reclustering_round+0x88>
    2574:	00000000 	nop
    2578:	8e040014 	lw	a0,20(s0)
    257c:	0c000518 	jal	1460 <decrement_cluster_resources>
    2580:	00000000 	nop
    2584:	08000978 	j	25e0 <handle_end_of_reclustering_round+0xe4>
    2588:	ae3246b4 	sw	s2,18100(s1)
    258c:	8e030018 	lw	v1,24(s0)
    2590:	3c020005 	lui	v0,0x5
    2594:	8c422f8c 	lw	v0,12172(v0)
    2598:	24630001 	addiu	v1,v1,1
    259c:	3c040000 	lui	a0,0x0
    25a0:	0043102a 	slt	v0,v0,v1
    25a4:	24846728 	addiu	a0,a0,26408
    25a8:	10400007 	beqz	v0,25c8 <handle_end_of_reclustering_round+0xcc>
    25ac:	ae030018 	sw	v1,24(s0)
    25b0:	8fbf001c 	lw	ra,28(sp)
    25b4:	8fb20018 	lw	s2,24(sp)
    25b8:	8fb10014 	lw	s1,20(sp)
    25bc:	8fb00010 	lw	s0,16(sp)
    25c0:	08000361 	j	d84 <puts>
    25c4:	27bd0020 	addiu	sp,sp,32
    25c8:	8fbf001c 	lw	ra,28(sp)
    25cc:	8fb20018 	lw	s2,24(sp)
    25d0:	8fb10014 	lw	s1,20(sp)
    25d4:	8fb00010 	lw	s0,16(sp)
    25d8:	08000486 	j	1218 <fires_reclustering_protocol>
    25dc:	27bd0020 	addiu	sp,sp,32
    25e0:	8fbf001c 	lw	ra,28(sp)
    25e4:	8fb20018 	lw	s2,24(sp)
    25e8:	8fb10014 	lw	s1,20(sp)
    25ec:	8fb00010 	lw	s0,16(sp)
    25f0:	03e00008 	jr	ra
    25f4:	27bd0020 	addiu	sp,sp,32

000025f8 <handle_task_request>:
    25f8:	27bdffe8 	addiu	sp,sp,-24
    25fc:	afb00010 	sw	s0,16(sp)
    2600:	afbf0014 	sw	ra,20(sp)
    2604:	8c850000 	lw	a1,0(a0)
    2608:	00808021 	move	s0,a0
    260c:	00051203 	sra	v0,a1,0x8
    2610:	00021900 	sll	v1,v0,0x4
    2614:	00021080 	sll	v0,v0,0x2
    2618:	00621823 	subu	v1,v1,v0
    261c:	30a200ff 	andi	v0,a1,0xff
    2620:	00621821 	addu	v1,v1,v0
    2624:	3c020004 	lui	v0,0x4
    2628:	2442730c 	addiu	v0,v0,29452
    262c:	00031880 	sll	v1,v1,0x2
    2630:	00621821 	addu	v1,v1,v0
    2634:	8c630000 	lw	v1,0(v1)
    2638:	2407ffff 	li	a3,-1
    263c:	00a02021 	move	a0,a1
    2640:	8e020004 	lw	v0,4(s0)
    2644:	14670005 	bne	v1,a3,265c <handle_task_request+0x64>
    2648:	2406ffff 	li	a2,-1
    264c:	0c0008a9 	jal	22a4 <allocate_new_task>
    2650:	00402821 	move	a1,v0
    2654:	0800099d 	j	2674 <handle_task_request+0x7c>
    2658:	2402ffff 	li	v0,-1
    265c:	00402021 	move	a0,v0
    2660:	10470003 	beq	v0,a3,2670 <handle_task_request+0x78>
    2664:	00603021 	move	a2,v1
    2668:	0c00057b 	jal	15ec <send_task_allocated>
    266c:	00000000 	nop
    2670:	2402ffff 	li	v0,-1
    2674:	ae020000 	sw	v0,0(s0)
    2678:	8fbf0014 	lw	ra,20(sp)
    267c:	8fb00010 	lw	s0,16(sp)
    2680:	03e00008 	jr	ra
    2684:	27bd0018 	addiu	sp,sp,24

00002688 <allocate_initial_task>:
    2688:	27bdffa0 	addiu	sp,sp,-96
    268c:	afb40058 	sw	s4,88(sp)
    2690:	afb30054 	sw	s3,84(sp)
    2694:	afbf005c 	sw	ra,92(sp)
    2698:	afb20050 	sw	s2,80(sp)
    269c:	afb1004c 	sw	s1,76(sp)
    26a0:	afb00048 	sw	s0,72(sp)
    26a4:	00809821 	move	s3,a0
    26a8:	0000a021 	move	s4,zero
    26ac:	8e710000 	lw	s1,0(s3)
    26b0:	2402ffff 	li	v0,-1
    26b4:	12220033 	beq	s1,v0,2784 <allocate_initial_task+0xfc>
    26b8:	27a40018 	addiu	a0,sp,24
    26bc:	00112a03 	sra	a1,s1,0x8
    26c0:	322600ff 	andi	a2,s1,0xff
    26c4:	16800010 	bnez	s4,2708 <allocate_initial_task+0x80>
    26c8:	3c120007 	lui	s2,0x7
    26cc:	0c0001eb 	jal	7ac <InitialMapping>
    26d0:	00000000 	nop
    26d4:	8fa20028 	lw	v0,40(sp)
    26d8:	264346d4 	addiu	v1,s2,18132
    26dc:	8fa40018 	lw	a0,24(sp)
    26e0:	ac620010 	sw	v0,16(v1)
    26e4:	8fa2001c 	lw	v0,28(sp)
    26e8:	00803021 	move	a2,a0
    26ec:	ac620004 	sw	v0,4(v1)
    26f0:	8fa20020 	lw	v0,32(sp)
    26f4:	ae4446d4 	sw	a0,18132(s2)
    26f8:	ac620008 	sw	v0,8(v1)
    26fc:	8fa20024 	lw	v0,36(sp)
    2700:	080009de 	j	2778 <allocate_initial_task+0xf0>
    2704:	ac62000c 	sw	v0,12(v1)
    2708:	8e4346d4 	lw	v1,18132(s2)
    270c:	27a40030 	addiu	a0,sp,48
    2710:	00112a03 	sra	a1,s1,0x8
    2714:	322600ff 	andi	a2,s1,0xff
    2718:	1462000f 	bne	v1,v0,2758 <allocate_initial_task+0xd0>
    271c:	265046d4 	addiu	s0,s2,18132
    2720:	0c0001eb 	jal	7ac <InitialMapping>
    2724:	00000000 	nop
    2728:	8fa20040 	lw	v0,64(sp)
    272c:	8fa30030 	lw	v1,48(sp)
    2730:	ae020010 	sw	v0,16(s0)
    2734:	8fa20034 	lw	v0,52(sp)
    2738:	00603021 	move	a2,v1
    273c:	ae020004 	sw	v0,4(s0)
    2740:	8fa20038 	lw	v0,56(sp)
    2744:	ae4346d4 	sw	v1,18132(s2)
    2748:	ae020008 	sw	v0,8(s0)
    274c:	8fa2003c 	lw	v0,60(sp)
    2750:	080009de 	j	2778 <allocate_initial_task+0xf0>
    2754:	ae02000c 	sw	v0,12(s0)
    2758:	8e020010 	lw	v0,16(s0)
    275c:	8e060008 	lw	a2,8(s0)
    2760:	8e07000c 	lw	a3,12(s0)
    2764:	8e050004 	lw	a1,4(s0)
    2768:	00602021 	move	a0,v1
    276c:	0c000293 	jal	a4c <InitialMapping2>
    2770:	afa20010 	sw	v0,16(sp)
    2774:	00403021 	move	a2,v0
    2778:	02202021 	move	a0,s1
    277c:	0c0008a9 	jal	22a4 <allocate_new_task>
    2780:	2405ffff 	li	a1,-1
    2784:	26940001 	addiu	s4,s4,1
    2788:	2402000a 	li	v0,10
    278c:	1682ffc7 	bne	s4,v0,26ac <allocate_initial_task+0x24>
    2790:	26730004 	addiu	s3,s3,4
    2794:	8fbf005c 	lw	ra,92(sp)
    2798:	8fb40058 	lw	s4,88(sp)
    279c:	8fb30054 	lw	s3,84(sp)
    27a0:	8fb20050 	lw	s2,80(sp)
    27a4:	8fb1004c 	lw	s1,76(sp)
    27a8:	8fb00048 	lw	s0,72(sp)
    27ac:	03e00008 	jr	ra
    27b0:	27bd0060 	addiu	sp,sp,96

000027b4 <handle_new_app>:
    27b4:	00061080 	sll	v0,a2,0x2
    27b8:	27bdffa8 	addiu	sp,sp,-88
    27bc:	2442000e 	addiu	v0,v0,14
    27c0:	afbe004c 	sw	s8,76(sp)
    27c4:	afb20048 	sw	s2,72(sp)
    27c8:	afb10044 	sw	s1,68(sp)
    27cc:	afb00040 	sw	s0,64(sp)
    27d0:	afbf0050 	sw	ra,80(sp)
    27d4:	000210c2 	srl	v0,v0,0x3
    27d8:	3c030005 	lui	v1,0x5
    27dc:	000210c0 	sll	v0,v0,0x3
    27e0:	90631430 	lbu	v1,5168(v1)
    27e4:	03a0f021 	move	s8,sp
    27e8:	03a09021 	move	s2,sp
    27ec:	03a2e823 	subu	sp,sp,v0
    27f0:	00808821 	move	s1,a0
    27f4:	00a03821 	move	a3,a1
    27f8:	14600005 	bnez	v1,2810 <handle_new_app+0x5c>
    27fc:	27b00010 	addiu	s0,sp,16
    2800:	00c02821 	move	a1,a2
    2804:	0c00012c 	jal	4b0 <DMA_read_data>
    2808:	02002021 	move	a0,s0
    280c:	02003821 	move	a3,s0
    2810:	00111900 	sll	v1,s1,0x4
    2814:	00111180 	sll	v0,s1,0x6
    2818:	00431023 	subu	v0,v0,v1
    281c:	000218c0 	sll	v1,v0,0x3
    2820:	00621823 	subu	v1,v1,v0
    2824:	00711821 	addu	v1,v1,s1
    2828:	3c020005 	lui	v0,0x5
    282c:	244237e4 	addiu	v0,v0,14308
    2830:	00031880 	sll	v1,v1,0x2
    2834:	00621821 	addu	v1,v1,v0
    2838:	3c020007 	lui	v0,0x7
    283c:	8ce50000 	lw	a1,0(a3)
    2840:	00112080 	sll	a0,s1,0x2
    2844:	24424728 	addiu	v0,v0,18216
    2848:	00822021 	addu	a0,a0,v0
    284c:	ac850000 	sw	a1,0(a0)
    2850:	00116a00 	sll	t5,s1,0x8
    2854:	ac650000 	sw	a1,0(v1)
    2858:	27c40014 	addiu	a0,s8,20
    285c:	24e30004 	addiu	v1,a3,4
    2860:	27c5003c 	addiu	a1,s8,60
    2864:	8c620000 	lw	v0,0(v1)
    2868:	00000000 	nop
    286c:	01a21025 	or	v0,t5,v0
    2870:	ac820000 	sw	v0,0(a0)
    2874:	24840004 	addiu	a0,a0,4
    2878:	1485fffa 	bne	a0,a1,2864 <handle_new_app+0xb0>
    287c:	24630004 	addiu	v1,v1,4
    2880:	00111900 	sll	v1,s1,0x4
    2884:	00111180 	sll	v0,s1,0x6
    2888:	00431023 	subu	v0,v0,v1
    288c:	000218c0 	sll	v1,v0,0x3
    2890:	00621823 	subu	v1,v1,v0
    2894:	3c020005 	lui	v0,0x5
    2898:	8c44144c 	lw	a0,5196(v0)
    289c:	00711821 	addu	v1,v1,s1
    28a0:	3c020005 	lui	v0,0x5
    28a4:	3c110005 	lui	s1,0x5
    28a8:	244f37e4 	addiu	t7,v0,14308
    28ac:	00035880 	sll	t3,v1,0x2
    28b0:	00042080 	sll	a0,a0,0x2
    28b4:	26221854 	addiu	v0,s1,6228
    28b8:	00825021 	addu	t2,a0,v0
    28bc:	24e70094 	addiu	a3,a3,148
    28c0:	00004821 	move	t1,zero
    28c4:	016f7021 	addu	t6,t3,t7
    28c8:	08000a64 	j	2990 <handle_new_app+0x1dc>
    28cc:	2410ffff 	li	s0,-1
    28d0:	8ce2ff98 	lw	v0,-104(a3)
    28d4:	8d440000 	lw	a0,0(t2)
    28d8:	afc20010 	sw	v0,16(s8)
    28dc:	8fc20010 	lw	v0,16(s8)
    28e0:	24e8ffb0 	addiu	t0,a3,-80
    28e4:	304200ff 	andi	v0,v0,0xff
    28e8:	afc20010 	sw	v0,16(s8)
    28ec:	8fc30010 	lw	v1,16(s8)
    28f0:	8ce5ff9c 	lw	a1,-100(a3)
    28f4:	000311c0 	sll	v0,v1,0x7
    28f8:	00031900 	sll	v1,v1,0x4
    28fc:	00431023 	subu	v0,v0,v1
    2900:	004b1021 	addu	v0,v0,t3
    2904:	004f1021 	addu	v0,v0,t7
    2908:	24460004 	addiu	a2,v0,4
    290c:	acc50004 	sw	a1,4(a2)
    2910:	8ce2ffa0 	lw	v0,-96(a3)
    2914:	00c02821 	move	a1,a2
    2918:	acc20008 	sw	v0,8(a2)
    291c:	8ce2ffa4 	lw	v0,-92(a3)
    2920:	240cffff 	li	t4,-1
    2924:	acc2000c 	sw	v0,12(a2)
    2928:	8ce2ffa8 	lw	v0,-88(a3)
    292c:	acd00014 	sw	s0,20(a2)
    2930:	acc20010 	sw	v0,16(a2)
    2934:	acc0001c 	sw	zero,28(a2)
    2938:	8ce2ffac 	lw	v0,-84(a3)
    293c:	00000000 	nop
    2940:	00822021 	addu	a0,a0,v0
    2944:	ad440000 	sw	a0,0(t2)
    2948:	acc20018 	sw	v0,24(a2)
    294c:	8d020000 	lw	v0,0(t0)
    2950:	00000000 	nop
    2954:	01a21025 	or	v0,t5,v0
    2958:	aca20020 	sw	v0,32(a1)
    295c:	8d030004 	lw	v1,4(t0)
    2960:	25080008 	addiu	t0,t0,8
    2964:	aca30024 	sw	v1,36(a1)
    2968:	104c0005 	beq	v0,t4,2980 <handle_new_app+0x1cc>
    296c:	24a50008 	addiu	a1,a1,8
    2970:	8cc2001c 	lw	v0,28(a2)
    2974:	00000000 	nop
    2978:	24420001 	addiu	v0,v0,1
    297c:	acc2001c 	sw	v0,28(a2)
    2980:	1507fff2 	bne	t0,a3,294c <handle_new_app+0x198>
    2984:	00000000 	nop
    2988:	25290001 	addiu	t1,t1,1
    298c:	24e70068 	addiu	a3,a3,104
    2990:	8dc20000 	lw	v0,0(t6)
    2994:	00000000 	nop
    2998:	0122102a 	slt	v0,t1,v0
    299c:	1440ffcc 	bnez	v0,28d0 <handle_new_app+0x11c>
    29a0:	3c040000 	lui	a0,0x0
    29a4:	3c100005 	lui	s0,0x5
    29a8:	0c000361 	jal	d84 <puts>
    29ac:	24846784 	addiu	a0,a0,26500
    29b0:	8e04144c 	lw	a0,5196(s0)
    29b4:	0c00000b 	jal	2c <itoa>
    29b8:	00000000 	nop
    29bc:	0c000361 	jal	d84 <puts>
    29c0:	00402021 	move	a0,v0
    29c4:	3c040000 	lui	a0,0x0
    29c8:	0c000361 	jal	d84 <puts>
    29cc:	24846794 	addiu	a0,a0,26516
    29d0:	8e02144c 	lw	v0,5196(s0)
    29d4:	26231854 	addiu	v1,s1,6228
    29d8:	00021080 	sll	v0,v0,0x2
    29dc:	00431021 	addu	v0,v0,v1
    29e0:	8c440000 	lw	a0,0(v0)
    29e4:	0c00000b 	jal	2c <itoa>
    29e8:	00000000 	nop
    29ec:	0c000361 	jal	d84 <puts>
    29f0:	00402021 	move	a0,v0
    29f4:	3c040000 	lui	a0,0x0
    29f8:	0c000361 	jal	d84 <puts>
    29fc:	2484670c 	addiu	a0,a0,26380
    2a00:	0c0009a2 	jal	2688 <allocate_initial_task>
    2a04:	27c40014 	addiu	a0,s8,20
    2a08:	0240e821 	move	sp,s2
    2a0c:	03c0e821 	move	sp,s8
    2a10:	8fbf0050 	lw	ra,80(sp)
    2a14:	8fbe004c 	lw	s8,76(sp)
    2a18:	8fb20048 	lw	s2,72(sp)
    2a1c:	8fb10044 	lw	s1,68(sp)
    2a20:	8fb00040 	lw	s0,64(sp)
    2a24:	03e00008 	jr	ra
    2a28:	27bd0058 	addiu	sp,sp,88

00002a2c <handle_packet>:
    2a2c:	27bdff60 	addiu	sp,sp,-160
    2a30:	27a4005c 	addiu	a0,sp,92
    2a34:	afbf009c 	sw	ra,156(sp)
    2a38:	0c000170 	jal	5c0 <read_packet>
    2a3c:	afb00098 	sw	s0,152(sp)
    2a40:	8fa30064 	lw	v1,100(sp)
    2a44:	24020160 	li	v0,352
    2a48:	1062002a 	beq	v1,v0,2af4 <handle_packet+0xc8>
    2a4c:	2c620161 	sltiu	v0,v1,353
    2a50:	10400015 	beqz	v0,2aa8 <handle_packet+0x7c>
    2a54:	24020200 	li	v0,512
    2a58:	24020090 	li	v0,144
    2a5c:	1062016c 	beq	v1,v0,3010 <handle_packet+0x5e4>
    2a60:	2c620091 	sltiu	v0,v1,145
    2a64:	10400008 	beqz	v0,2a88 <handle_packet+0x5c>
    2a68:	24020140 	li	v0,320
    2a6c:	24020060 	li	v0,96
    2a70:	10620107 	beq	v1,v0,2e90 <handle_packet+0x464>
    2a74:	24020070 	li	v0,112
    2a78:	1462025a 	bne	v1,v0,33e4 <handle_packet+0x9b8>
    2a7c:	3c040000 	lui	a0,0x0
    2a80:	08000b50 	j	2d40 <handle_packet+0x314>
    2a84:	00000000 	nop
    2a88:	10620097 	beq	v1,v0,2ce8 <handle_packet+0x2bc>
    2a8c:	24020150 	li	v0,336
    2a90:	10620045 	beq	v1,v0,2ba8 <handle_packet+0x17c>
    2a94:	24020130 	li	v0,304
    2a98:	14620252 	bne	v1,v0,33e4 <handle_packet+0x9b8>
    2a9c:	3c040000 	lui	a0,0x0
    2aa0:	08000af0 	j	2bc0 <handle_packet+0x194>
    2aa4:	00000000 	nop
    2aa8:	1062011f 	beq	v1,v0,2f28 <handle_packet+0x4fc>
    2aac:	2c620201 	sltiu	v0,v1,513
    2ab0:	10400008 	beqz	v0,2ad4 <handle_packet+0xa8>
    2ab4:	24020240 	li	v0,576
    2ab8:	24020180 	li	v0,384
    2abc:	106200e9 	beq	v1,v0,2e64 <handle_packet+0x438>
    2ac0:	24020190 	li	v0,400
    2ac4:	14620247 	bne	v1,v0,33e4 <handle_packet+0x9b8>
    2ac8:	3c040000 	lui	a0,0x0
    2acc:	08000baa 	j	2ea8 <handle_packet+0x47c>
    2ad0:	3c020004 	lui	v0,0x4
    2ad4:	10620153 	beq	v1,v0,3024 <handle_packet+0x5f8>
    2ad8:	24020250 	li	v0,592
    2adc:	10620221 	beq	v1,v0,3364 <handle_packet+0x938>
    2ae0:	24020235 	li	v0,565
    2ae4:	1462023e 	bne	v1,v0,33e0 <handle_packet+0x9b4>
    2ae8:	00000000 	nop
    2aec:	08000ce6 	j	3398 <handle_packet+0x96c>
    2af0:	00000000 	nop
    2af4:	8faa0070 	lw	t2,112(sp)
    2af8:	8fa60090 	lw	a2,144(sp)
    2afc:	3c020005 	lui	v0,0x5
    2b00:	8c441434 	lw	a0,5172(v0)
    2b04:	00061940 	sll	v1,a2,0x5
    2b08:	00061080 	sll	v0,a2,0x2
    2b0c:	00621823 	subu	v1,v1,v0
    2b10:	3c020005 	lui	v0,0x5
    2b14:	24429b1c 	addiu	v0,v0,-25828
    2b18:	00621821 	addu	v1,v1,v0
    2b1c:	00042a02 	srl	a1,a0,0x8
    2b20:	3c020005 	lui	v0,0x5
    2b24:	2442988c 	addiu	v0,v0,-26484
    2b28:	00052900 	sll	a1,a1,0x4
    2b2c:	8c670008 	lw	a3,8(v1)
    2b30:	00a22821 	addu	a1,a1,v0
    2b34:	3c020005 	lui	v0,0x5
    2b38:	8c690014 	lw	t1,20(v1)
    2b3c:	8c68000c 	lw	t0,12(v1)
    2b40:	8c630010 	lw	v1,16(v1)
    2b44:	a04a143c 	sb	t2,5180(v0)
    2b48:	3c020005 	lui	v0,0x5
    2b4c:	ac471438 	sw	a3,5176(v0)
    2b50:	308400ff 	andi	a0,a0,0xff
    2b54:	3c020005 	lui	v0,0x5
    2b58:	00a42821 	addu	a1,a1,a0
    2b5c:	ac481448 	sw	t0,5192(v0)
    2b60:	3c040000 	lui	a0,0x0
    2b64:	3c020005 	lui	v0,0x5
    2b68:	ac431440 	sw	v1,5184(v0)
    2b6c:	3c100005 	lui	s0,0x5
    2b70:	3c020005 	lui	v0,0x5
    2b74:	24846798 	addiu	a0,a0,26520
    2b78:	a0a00000 	sb	zero,0(a1)
    2b7c:	ac491450 	sw	t1,5200(v0)
    2b80:	0c000361 	jal	d84 <puts>
    2b84:	ae06144c 	sw	a2,5196(s0)
    2b88:	8e05144c 	lw	a1,5196(s0)
    2b8c:	3c040000 	lui	a0,0x0
    2b90:	0c00037c 	jal	df0 <putsv>
    2b94:	248467ac 	addiu	a0,a0,26540
    2b98:	0c0006a3 	jal	1a8c <initialize_slaves>
    2b9c:	00000000 	nop
    2ba0:	08000d09 	j	3424 <handle_packet+0x9f8>
    2ba4:	00000000 	nop
    2ba8:	8fa40068 	lw	a0,104(sp)
    2bac:	8fa6007c 	lw	a2,124(sp)
    2bb0:	0c0009ed 	jal	27b4 <handle_new_app>
    2bb4:	00002821 	move	a1,zero
    2bb8:	08000d09 	j	3424 <handle_packet+0x9f8>
    2bbc:	00000000 	nop
    2bc0:	8fa6007c 	lw	a2,124(sp)
    2bc4:	8fa70088 	lw	a3,136(sp)
    2bc8:	8fa80084 	lw	t0,132(sp)
    2bcc:	8fa90080 	lw	t1,128(sp)
    2bd0:	8faa008c 	lw	t2,140(sp)
    2bd4:	8fab006c 	lw	t3,108(sp)
    2bd8:	8fac0068 	lw	t4,104(sp)
    2bdc:	8fa50090 	lw	a1,144(sp)
    2be0:	8fa20090 	lw	v0,144(sp)
    2be4:	3c030007 	lui	v1,0x7
    2be8:	24634674 	addiu	v1,v1,18036
    2bec:	00021080 	sll	v0,v0,0x2
    2bf0:	00431021 	addu	v0,v0,v1
    2bf4:	8c420000 	lw	v0,0(v0)
    2bf8:	8fa40094 	lw	a0,148(sp)
    2bfc:	00052880 	sll	a1,a1,0x2
    2c00:	00441021 	addu	v0,v0,a0
    2c04:	00a32821 	addu	a1,a1,v1
    2c08:	27a40010 	addiu	a0,sp,16
    2c0c:	aca20000 	sw	v0,0(a1)
    2c10:	afa60018 	sw	a2,24(sp)
    2c14:	afa70028 	sw	a3,40(sp)
    2c18:	afa80020 	sw	t0,32(sp)
    2c1c:	afa90024 	sw	t1,36(sp)
    2c20:	afaa001c 	sw	t2,28(sp)
    2c24:	afab0014 	sw	t3,20(sp)
    2c28:	0c00018d 	jal	634 <add_new_task>
    2c2c:	afac0010 	sw	t4,16(sp)
    2c30:	8fa4007c 	lw	a0,124(sp)
    2c34:	0c000410 	jal	1040 <search_physical_master_address>
    2c38:	00000000 	nop
    2c3c:	00402021 	move	a0,v0
    2c40:	3c020005 	lui	v0,0x5
    2c44:	9042143c 	lbu	v0,5180(v0)
    2c48:	00000000 	nop
    2c4c:	10820009 	beq	a0,v0,2c74 <handle_packet+0x248>
    2c50:	00000000 	nop
    2c54:	8fa20070 	lw	v0,112(sp)
    2c58:	00000000 	nop
    2c5c:	10820005 	beq	a0,v0,2c74 <handle_packet+0x248>
    2c60:	00000000 	nop
    2c64:	0c000518 	jal	1460 <decrement_cluster_resources>
    2c68:	00000000 	nop
    2c6c:	08000d09 	j	3424 <handle_packet+0x9f8>
    2c70:	00000000 	nop
    2c74:	8fa20090 	lw	v0,144(sp)
    2c78:	3c100005 	lui	s0,0x5
    2c7c:	00021940 	sll	v1,v0,0x5
    2c80:	00021080 	sll	v0,v0,0x2
    2c84:	26109b1c 	addiu	s0,s0,-25828
    2c88:	00621823 	subu	v1,v1,v0
    2c8c:	00701821 	addu	v1,v1,s0
    2c90:	8c620018 	lw	v0,24(v1)
    2c94:	3c040000 	lui	a0,0x0
    2c98:	2442ffff 	addiu	v0,v0,-1
    2c9c:	ac620018 	sw	v0,24(v1)
    2ca0:	0c000361 	jal	d84 <puts>
    2ca4:	248467bc 	addiu	a0,a0,26556
    2ca8:	8fa20090 	lw	v0,144(sp)
    2cac:	00000000 	nop
    2cb0:	00021940 	sll	v1,v0,0x5
    2cb4:	00021080 	sll	v0,v0,0x2
    2cb8:	00621823 	subu	v1,v1,v0
    2cbc:	00701821 	addu	v1,v1,s0
    2cc0:	8c640018 	lw	a0,24(v1)
    2cc4:	0c00000b 	jal	2c <itoa>
    2cc8:	00000000 	nop
    2ccc:	0c000361 	jal	d84 <puts>
    2cd0:	00402021 	move	a0,v0
    2cd4:	3c040000 	lui	a0,0x0
    2cd8:	0c000361 	jal	d84 <puts>
    2cdc:	2484670c 	addiu	a0,a0,26380
    2ce0:	08000d09 	j	3424 <handle_packet+0x9f8>
    2ce4:	00000000 	nop
    2ce8:	8fa5007c 	lw	a1,124(sp)
    2cec:	27b0002c 	addiu	s0,sp,44
    2cf0:	0c00012c 	jal	4b0 <DMA_read_data>
    2cf4:	02002021 	move	a0,s0
    2cf8:	8fa70090 	lw	a3,144(sp)
    2cfc:	8fa20090 	lw	v0,144(sp)
    2d00:	3c030007 	lui	v1,0x7
    2d04:	24634674 	addiu	v1,v1,18036
    2d08:	00021080 	sll	v0,v0,0x2
    2d0c:	00431021 	addu	v0,v0,v1
    2d10:	8fa60094 	lw	a2,148(sp)
    2d14:	8c420000 	lw	v0,0(v0)
    2d18:	00073880 	sll	a3,a3,0x2
    2d1c:	00461021 	addu	v0,v0,a2
    2d20:	8fa4007c 	lw	a0,124(sp)
    2d24:	00e33821 	addu	a3,a3,v1
    2d28:	8fa50070 	lw	a1,112(sp)
    2d2c:	02003021 	move	a2,s0
    2d30:	0c0005cc 	jal	1730 <handle_app_terminated>
    2d34:	ace20000 	sw	v0,0(a3)
    2d38:	08000d09 	j	3424 <handle_packet+0x9f8>
    2d3c:	00000000 	nop
    2d40:	8fa40070 	lw	a0,112(sp)
    2d44:	0c0003a4 	jal	e90 <page_released>
    2d48:	00000000 	nop
    2d4c:	8fa20068 	lw	v0,104(sp)
    2d50:	3c050007 	lui	a1,0x7
    2d54:	00023202 	srl	a2,v0,0x8
    2d58:	8fa30068 	lw	v1,104(sp)
    2d5c:	00061080 	sll	v0,a2,0x2
    2d60:	00063900 	sll	a3,a2,0x4
    2d64:	24a54728 	addiu	a1,a1,18216
    2d68:	00452821 	addu	a1,v0,a1
    2d6c:	306300ff 	andi	v1,v1,0xff
    2d70:	00e21023 	subu	v0,a3,v0
    2d74:	00431021 	addu	v0,v0,v1
    2d78:	8ca40000 	lw	a0,0(a1)
    2d7c:	3c030005 	lui	v1,0x5
    2d80:	246885cc 	addiu	t0,v1,-31284
    2d84:	00021080 	sll	v0,v0,0x2
    2d88:	8fa3006c 	lw	v1,108(sp)
    2d8c:	2484ffff 	addiu	a0,a0,-1
    2d90:	00481021 	addu	v0,v0,t0
    2d94:	ac430000 	sw	v1,0(v0)
    2d98:	14800035 	bnez	a0,2e70 <handle_packet+0x444>
    2d9c:	aca40000 	sw	a0,0(a1)
    2da0:	3c020005 	lui	v0,0x5
    2da4:	90421430 	lbu	v0,5168(v0)
    2da8:	00000000 	nop
    2dac:	10400029 	beqz	v0,2e54 <handle_packet+0x428>
    2db0:	00061180 	sll	v0,a2,0x6
    2db4:	00471023 	subu	v0,v0,a3
    2db8:	000218c0 	sll	v1,v0,0x3
    2dbc:	00621823 	subu	v1,v1,v0
    2dc0:	00661821 	addu	v1,v1,a2
    2dc4:	3c040005 	lui	a0,0x5
    2dc8:	248437e4 	addiu	a0,a0,14308
    2dcc:	00031880 	sll	v1,v1,0x2
    2dd0:	00641821 	addu	v1,v1,a0
    2dd4:	8c660000 	lw	a2,0(v1)
    2dd8:	00002821 	move	a1,zero
    2ddc:	00481821 	addu	v1,v0,t0
    2de0:	08000b7d 	j	2df4 <handle_packet+0x3c8>
    2de4:	27a4002c 	addiu	a0,sp,44
    2de8:	8c62fffc 	lw	v0,-4(v1)
    2dec:	00000000 	nop
    2df0:	ac82fffc 	sw	v0,-4(a0)
    2df4:	00a6102a 	slt	v0,a1,a2
    2df8:	24630004 	addiu	v1,v1,4
    2dfc:	24a50001 	addiu	a1,a1,1
    2e00:	1440fff9 	bnez	v0,2de8 <handle_packet+0x3bc>
    2e04:	24840004 	addiu	a0,a0,4
    2e08:	3c020005 	lui	v0,0x5
    2e0c:	8c47144c 	lw	a3,5196(v0)
    2e10:	3c020007 	lui	v0,0x7
    2e14:	24424674 	addiu	v0,v0,18036
    2e18:	00073880 	sll	a3,a3,0x2
    2e1c:	00e23821 	addu	a3,a3,v0
    2e20:	3c080005 	lui	t0,0x5
    2e24:	8d041444 	lw	a0,5188(t0)
    2e28:	8ce30000 	lw	v1,0(a3)
    2e2c:	3c020005 	lui	v0,0x5
    2e30:	00641821 	addu	v1,v1,a0
    2e34:	8c451434 	lw	a1,5172(v0)
    2e38:	00c02021 	move	a0,a2
    2e3c:	ace30000 	sw	v1,0(a3)
    2e40:	27a6002c 	addiu	a2,sp,44
    2e44:	0c0005cc 	jal	1730 <handle_app_terminated>
    2e48:	ad001444 	sw	zero,5188(t0)
    2e4c:	08000b9d 	j	2e74 <handle_packet+0x448>
    2e50:	3c040007 	lui	a0,0x7
    2e54:	0c000554 	jal	1550 <send_app_terminated>
    2e58:	00c02021 	move	a0,a2
    2e5c:	08000b9d 	j	2e74 <handle_packet+0x448>
    2e60:	3c040007 	lui	a0,0x7
    2e64:	8fa40070 	lw	a0,112(sp)
    2e68:	0c0003a4 	jal	e90 <page_released>
    2e6c:	00000000 	nop
    2e70:	3c040007 	lui	a0,0x7
    2e74:	8c8346b4 	lw	v1,18100(a0)
    2e78:	2402ffff 	li	v0,-1
    2e7c:	10620169 	beq	v1,v0,3424 <handle_packet+0x9f8>
    2e80:	248346b4 	addiu	v1,a0,18100
    2e84:	24020001 	li	v0,1
    2e88:	08000d09 	j	3424 <handle_packet+0x9f8>
    2e8c:	ac62001c 	sw	v0,28(v1)
    2e90:	8fa40068 	lw	a0,104(sp)
    2e94:	8fa5007c 	lw	a1,124(sp)
    2e98:	0c0001ca 	jal	728 <add_task_request>
    2e9c:	00000000 	nop
    2ea0:	08000d09 	j	3424 <handle_packet+0x9f8>
    2ea4:	00000000 	nop
    2ea8:	8c427308 	lw	v0,29448(v0)
    2eac:	00000000 	nop
    2eb0:	1c400008 	bgtz	v0,2ed4 <handle_packet+0x4a8>
    2eb4:	00000000 	nop
    2eb8:	8fa40070 	lw	a0,112(sp)
    2ebc:	8fa50068 	lw	a1,104(sp)
    2ec0:	2406ffff 	li	a2,-1
    2ec4:	0c000629 	jal	18a4 <send_loan_proc_delivery>
    2ec8:	2407ffff 	li	a3,-1
    2ecc:	08000d09 	j	3424 <handle_packet+0x9f8>
    2ed0:	00000000 	nop
    2ed4:	8fa40068 	lw	a0,104(sp)
    2ed8:	0c000341 	jal	d04 <loan_mapping>
    2edc:	00000000 	nop
    2ee0:	00408021 	move	s0,v0
    2ee4:	8fa2007c 	lw	v0,124(sp)
    2ee8:	8fa7007c 	lw	a3,124(sp)
    2eec:	00103202 	srl	a2,s0,0x8
    2ef0:	320300ff 	andi	v1,s0,0xff
    2ef4:	00021202 	srl	v0,v0,0x8
    2ef8:	30e700ff 	andi	a3,a3,0xff
    2efc:	8fa40070 	lw	a0,112(sp)
    2f00:	00461021 	addu	v0,v0,a2
    2f04:	00e33821 	addu	a3,a3,v1
    2f08:	8fa50068 	lw	a1,104(sp)
    2f0c:	00473821 	addu	a3,v0,a3
    2f10:	0c000629 	jal	18a4 <send_loan_proc_delivery>
    2f14:	02003021 	move	a2,s0
    2f18:	0c0003c8 	jal	f20 <page_used>
    2f1c:	02002021 	move	a0,s0
    2f20:	08000d09 	j	3424 <handle_packet+0x9f8>
    2f24:	00000000 	nop
    2f28:	3c020007 	lui	v0,0x7
    2f2c:	245046b4 	addiu	s0,v0,18100
    2f30:	8e020008 	lw	v0,8(s0)
    2f34:	8e03001c 	lw	v1,28(s0)
    2f38:	2442ffff 	addiu	v0,v0,-1
    2f3c:	10600010 	beqz	v1,2f80 <handle_packet+0x554>
    2f40:	ae020008 	sw	v0,8(s0)
    2f44:	8fa40070 	lw	a0,112(sp)
    2f48:	8fa5007c 	lw	a1,124(sp)
    2f4c:	0c000644 	jal	1910 <send_loan_proc_release>
    2f50:	00000000 	nop
    2f54:	8e040014 	lw	a0,20(s0)
    2f58:	2402ffff 	li	v0,-1
    2f5c:	10820024 	beq	a0,v0,2ff0 <handle_packet+0x5c4>
    2f60:	3c020007 	lui	v0,0x7
    2f64:	8fa20070 	lw	v0,112(sp)
    2f68:	00000000 	nop
    2f6c:	10820020 	beq	a0,v0,2ff0 <handle_packet+0x5c4>
    2f70:	3c020007 	lui	v0,0x7
    2f74:	8e050010 	lw	a1,16(s0)
    2f78:	08000bf9 	j	2fe4 <handle_packet+0x5b8>
    2f7c:	00000000 	nop
    2f80:	8fa2007c 	lw	v0,124(sp)
    2f84:	2404ffff 	li	a0,-1
    2f88:	10440019 	beq	v0,a0,2ff0 <handle_packet+0x5c4>
    2f8c:	3c020007 	lui	v0,0x7
    2f90:	8fa2006c 	lw	v0,108(sp)
    2f94:	8e03000c 	lw	v1,12(s0)
    2f98:	00000000 	nop
    2f9c:	0043102b 	sltu	v0,v0,v1
    2fa0:	1040000e 	beqz	v0,2fdc <handle_packet+0x5b0>
    2fa4:	00000000 	nop
    2fa8:	8fa2006c 	lw	v0,108(sp)
    2fac:	8e050010 	lw	a1,16(s0)
    2fb0:	00000000 	nop
    2fb4:	10a40004 	beq	a1,a0,2fc8 <handle_packet+0x59c>
    2fb8:	ae02000c 	sw	v0,12(s0)
    2fbc:	8e040014 	lw	a0,20(s0)
    2fc0:	0c000644 	jal	1910 <send_loan_proc_release>
    2fc4:	00000000 	nop
    2fc8:	8fa2007c 	lw	v0,124(sp)
    2fcc:	8fa30070 	lw	v1,112(sp)
    2fd0:	ae020010 	sw	v0,16(s0)
    2fd4:	08000bfb 	j	2fec <handle_packet+0x5c0>
    2fd8:	ae030014 	sw	v1,20(s0)
    2fdc:	8fa40070 	lw	a0,112(sp)
    2fe0:	8fa5007c 	lw	a1,124(sp)
    2fe4:	0c000644 	jal	1910 <send_loan_proc_release>
    2fe8:	00000000 	nop
    2fec:	3c020007 	lui	v0,0x7
    2ff0:	8c4246bc 	lw	v0,18108(v0)
    2ff4:	00000000 	nop
    2ff8:	1440010a 	bnez	v0,3424 <handle_packet+0x9f8>
    2ffc:	00000000 	nop
    3000:	0c00093f 	jal	24fc <handle_end_of_reclustering_round>
    3004:	00000000 	nop
    3008:	08000d09 	j	3424 <handle_packet+0x9f8>
    300c:	00000000 	nop
    3010:	8fa4007c 	lw	a0,124(sp)
    3014:	0c0003a4 	jal	e90 <page_released>
    3018:	00000000 	nop
    301c:	08000d09 	j	3424 <handle_packet+0x9f8>
    3020:	00000000 	nop
    3024:	8fa30094 	lw	v1,148(sp)
    3028:	3c0200b2 	lui	v0,0xb2
    302c:	34428721 	ori	v0,v0,0x8721
    3030:	0062182b 	sltu	v1,v1,v0
    3034:	1460000d 	bnez	v1,306c <handle_packet+0x640>
    3038:	00000000 	nop
    303c:	8fa30070 	lw	v1,112(sp)
    3040:	8fa20070 	lw	v0,112(sp)
    3044:	00031a02 	srl	v1,v1,0x8
    3048:	304200ff 	andi	v0,v0,0xff
    304c:	00031900 	sll	v1,v1,0x4
    3050:	00621821 	addu	v1,v1,v0
    3054:	3c020005 	lui	v0,0x5
    3058:	24422fe4 	addiu	v0,v0,12260
    305c:	00031880 	sll	v1,v1,0x2
    3060:	00621821 	addu	v1,v1,v0
    3064:	08000c2c 	j	30b0 <handle_packet+0x684>
    3068:	2402000a 	li	v0,10
    306c:	8fa30094 	lw	v1,148(sp)
    3070:	3c02009e 	lui	v0,0x9e
    3074:	3442b101 	ori	v0,v0,0xb101
    3078:	0062182b 	sltu	v1,v1,v0
    307c:	1460000e 	bnez	v1,30b8 <handle_packet+0x68c>
    3080:	00000000 	nop
    3084:	8fa30070 	lw	v1,112(sp)
    3088:	8fa20070 	lw	v0,112(sp)
    308c:	00031a02 	srl	v1,v1,0x8
    3090:	304200ff 	andi	v0,v0,0xff
    3094:	00031900 	sll	v1,v1,0x4
    3098:	00621821 	addu	v1,v1,v0
    309c:	3c020005 	lui	v0,0x5
    30a0:	24422fe4 	addiu	v0,v0,12260
    30a4:	00031880 	sll	v1,v1,0x2
    30a8:	00621821 	addu	v1,v1,v0
    30ac:	24020009 	li	v0,9
    30b0:	08000cc8 	j	3320 <handle_packet+0x8f4>
    30b4:	ac620000 	sw	v0,0(v1)
    30b8:	8fa30094 	lw	v1,148(sp)
    30bc:	3c02008a 	lui	v0,0x8a
    30c0:	3442dae1 	ori	v0,v0,0xdae1
    30c4:	0062182b 	sltu	v1,v1,v0
    30c8:	1460000d 	bnez	v1,3100 <handle_packet+0x6d4>
    30cc:	00000000 	nop
    30d0:	8fa30070 	lw	v1,112(sp)
    30d4:	8fa20070 	lw	v0,112(sp)
    30d8:	00031a02 	srl	v1,v1,0x8
    30dc:	304200ff 	andi	v0,v0,0xff
    30e0:	00031900 	sll	v1,v1,0x4
    30e4:	00621821 	addu	v1,v1,v0
    30e8:	3c020005 	lui	v0,0x5
    30ec:	24422fe4 	addiu	v0,v0,12260
    30f0:	00031880 	sll	v1,v1,0x2
    30f4:	00621821 	addu	v1,v1,v0
    30f8:	08000c2c 	j	30b0 <handle_packet+0x684>
    30fc:	24020008 	li	v0,8
    3100:	8fa30094 	lw	v1,148(sp)
    3104:	3c020077 	lui	v0,0x77
    3108:	344204c1 	ori	v0,v0,0x4c1
    310c:	0062182b 	sltu	v1,v1,v0
    3110:	1460000d 	bnez	v1,3148 <handle_packet+0x71c>
    3114:	00000000 	nop
    3118:	8fa30070 	lw	v1,112(sp)
    311c:	8fa20070 	lw	v0,112(sp)
    3120:	00031a02 	srl	v1,v1,0x8
    3124:	304200ff 	andi	v0,v0,0xff
    3128:	00031900 	sll	v1,v1,0x4
    312c:	00621821 	addu	v1,v1,v0
    3130:	3c020005 	lui	v0,0x5
    3134:	24422fe4 	addiu	v0,v0,12260
    3138:	00031880 	sll	v1,v1,0x2
    313c:	00621821 	addu	v1,v1,v0
    3140:	08000c2c 	j	30b0 <handle_packet+0x684>
    3144:	24020007 	li	v0,7
    3148:	8fa30094 	lw	v1,148(sp)
    314c:	3c020063 	lui	v0,0x63
    3150:	34422ea1 	ori	v0,v0,0x2ea1
    3154:	0062182b 	sltu	v1,v1,v0
    3158:	1460000d 	bnez	v1,3190 <handle_packet+0x764>
    315c:	00000000 	nop
    3160:	8fa30070 	lw	v1,112(sp)
    3164:	8fa20070 	lw	v0,112(sp)
    3168:	00031a02 	srl	v1,v1,0x8
    316c:	304200ff 	andi	v0,v0,0xff
    3170:	00031900 	sll	v1,v1,0x4
    3174:	00621821 	addu	v1,v1,v0
    3178:	3c020005 	lui	v0,0x5
    317c:	24422fe4 	addiu	v0,v0,12260
    3180:	00031880 	sll	v1,v1,0x2
    3184:	00621821 	addu	v1,v1,v0
    3188:	08000c2c 	j	30b0 <handle_packet+0x684>
    318c:	24020006 	li	v0,6
    3190:	8fa30094 	lw	v1,148(sp)
    3194:	3c02004f 	lui	v0,0x4f
    3198:	34425881 	ori	v0,v0,0x5881
    319c:	0062182b 	sltu	v1,v1,v0
    31a0:	1460000d 	bnez	v1,31d8 <handle_packet+0x7ac>
    31a4:	00000000 	nop
    31a8:	8fa30070 	lw	v1,112(sp)
    31ac:	8fa20070 	lw	v0,112(sp)
    31b0:	00031a02 	srl	v1,v1,0x8
    31b4:	304200ff 	andi	v0,v0,0xff
    31b8:	00031900 	sll	v1,v1,0x4
    31bc:	00621821 	addu	v1,v1,v0
    31c0:	3c020005 	lui	v0,0x5
    31c4:	24422fe4 	addiu	v0,v0,12260
    31c8:	00031880 	sll	v1,v1,0x2
    31cc:	00621821 	addu	v1,v1,v0
    31d0:	08000c2c 	j	30b0 <handle_packet+0x684>
    31d4:	24020005 	li	v0,5
    31d8:	8fa30094 	lw	v1,148(sp)
    31dc:	3c02003b 	lui	v0,0x3b
    31e0:	34428261 	ori	v0,v0,0x8261
    31e4:	0062182b 	sltu	v1,v1,v0
    31e8:	1460000d 	bnez	v1,3220 <handle_packet+0x7f4>
    31ec:	00000000 	nop
    31f0:	8fa30070 	lw	v1,112(sp)
    31f4:	8fa20070 	lw	v0,112(sp)
    31f8:	00031a02 	srl	v1,v1,0x8
    31fc:	304200ff 	andi	v0,v0,0xff
    3200:	00031900 	sll	v1,v1,0x4
    3204:	00621821 	addu	v1,v1,v0
    3208:	3c020005 	lui	v0,0x5
    320c:	24422fe4 	addiu	v0,v0,12260
    3210:	00031880 	sll	v1,v1,0x2
    3214:	00621821 	addu	v1,v1,v0
    3218:	08000c2c 	j	30b0 <handle_packet+0x684>
    321c:	24020004 	li	v0,4
    3220:	8fa30094 	lw	v1,148(sp)
    3224:	3c020027 	lui	v0,0x27
    3228:	3442ac41 	ori	v0,v0,0xac41
    322c:	0062182b 	sltu	v1,v1,v0
    3230:	1460000d 	bnez	v1,3268 <handle_packet+0x83c>
    3234:	00000000 	nop
    3238:	8fa30070 	lw	v1,112(sp)
    323c:	8fa20070 	lw	v0,112(sp)
    3240:	00031a02 	srl	v1,v1,0x8
    3244:	304200ff 	andi	v0,v0,0xff
    3248:	00031900 	sll	v1,v1,0x4
    324c:	00621821 	addu	v1,v1,v0
    3250:	3c020005 	lui	v0,0x5
    3254:	24422fe4 	addiu	v0,v0,12260
    3258:	00031880 	sll	v1,v1,0x2
    325c:	00621821 	addu	v1,v1,v0
    3260:	08000c2c 	j	30b0 <handle_packet+0x684>
    3264:	24020003 	li	v0,3
    3268:	8fa30094 	lw	v1,148(sp)
    326c:	3c020013 	lui	v0,0x13
    3270:	3442d621 	ori	v0,v0,0xd621
    3274:	0062182b 	sltu	v1,v1,v0
    3278:	1460000d 	bnez	v1,32b0 <handle_packet+0x884>
    327c:	00000000 	nop
    3280:	8fa30070 	lw	v1,112(sp)
    3284:	8fa20070 	lw	v0,112(sp)
    3288:	00031a02 	srl	v1,v1,0x8
    328c:	304200ff 	andi	v0,v0,0xff
    3290:	00031900 	sll	v1,v1,0x4
    3294:	00621821 	addu	v1,v1,v0
    3298:	3c020005 	lui	v0,0x5
    329c:	24422fe4 	addiu	v0,v0,12260
    32a0:	00031880 	sll	v1,v1,0x2
    32a4:	00621821 	addu	v1,v1,v0
    32a8:	08000c2c 	j	30b0 <handle_packet+0x684>
    32ac:	24020002 	li	v0,2
    32b0:	8fa30094 	lw	v1,148(sp)
    32b4:	3c020009 	lui	v0,0x9
    32b8:	3442eb11 	ori	v0,v0,0xeb11
    32bc:	0062182b 	sltu	v1,v1,v0
    32c0:	1460000d 	bnez	v1,32f8 <handle_packet+0x8cc>
    32c4:	3c040005 	lui	a0,0x5
    32c8:	8fa20070 	lw	v0,112(sp)
    32cc:	8fa30070 	lw	v1,112(sp)
    32d0:	00021202 	srl	v0,v0,0x8
    32d4:	306300ff 	andi	v1,v1,0xff
    32d8:	00021100 	sll	v0,v0,0x4
    32dc:	00431021 	addu	v0,v0,v1
    32e0:	00021080 	sll	v0,v0,0x2
    32e4:	24832fe4 	addiu	v1,a0,12260
    32e8:	00431021 	addu	v0,v0,v1
    32ec:	24030001 	li	v1,1
    32f0:	08000cc8 	j	3320 <handle_packet+0x8f4>
    32f4:	ac430000 	sw	v1,0(v0)
    32f8:	8fa20070 	lw	v0,112(sp)
    32fc:	8fa30070 	lw	v1,112(sp)
    3300:	00021202 	srl	v0,v0,0x8
    3304:	306300ff 	andi	v1,v1,0xff
    3308:	00021100 	sll	v0,v0,0x4
    330c:	00431021 	addu	v0,v0,v1
    3310:	00021080 	sll	v0,v0,0x2
    3314:	24832fe4 	addiu	v1,a0,12260
    3318:	00431021 	addu	v0,v0,v1
    331c:	ac400000 	sw	zero,0(v0)
    3320:	8fa30070 	lw	v1,112(sp)
    3324:	8fa20070 	lw	v0,112(sp)
    3328:	00031a02 	srl	v1,v1,0x8
    332c:	304200ff 	andi	v0,v0,0xff
    3330:	3c060005 	lui	a2,0x5
    3334:	00031900 	sll	v1,v1,0x4
    3338:	00621821 	addu	v1,v1,v0
    333c:	8cc41444 	lw	a0,5188(a2)
    3340:	3c020005 	lui	v0,0x5
    3344:	00031880 	sll	v1,v1,0x2
    3348:	8fa50094 	lw	a1,148(sp)
    334c:	244233e4 	addiu	v0,v0,13284
    3350:	00621821 	addu	v1,v1,v0
    3354:	02042021 	addu	a0,s0,a0
    3358:	ac650000 	sw	a1,0(v1)
    335c:	08000d09 	j	3424 <handle_packet+0x9f8>
    3360:	acc41444 	sw	a0,5188(a2)
    3364:	8fa40090 	lw	a0,144(sp)
    3368:	8fa20090 	lw	v0,144(sp)
    336c:	3c030007 	lui	v1,0x7
    3370:	24634674 	addiu	v1,v1,18036
    3374:	00021080 	sll	v0,v0,0x2
    3378:	00431021 	addu	v0,v0,v1
    337c:	8c420000 	lw	v0,0(v0)
    3380:	8fa50094 	lw	a1,148(sp)
    3384:	00042080 	sll	a0,a0,0x2
    3388:	00451021 	addu	v0,v0,a1
    338c:	00832021 	addu	a0,a0,v1
    3390:	08000d09 	j	3424 <handle_packet+0x9f8>
    3394:	ac820000 	sw	v0,0(a0)
    3398:	8fa4007c 	lw	a0,124(sp)
    339c:	0c0003a4 	jal	e90 <page_released>
    33a0:	00000000 	nop
    33a4:	8fa20068 	lw	v0,104(sp)
    33a8:	8fa40068 	lw	a0,104(sp)
    33ac:	00021202 	srl	v0,v0,0x8
    33b0:	00021900 	sll	v1,v0,0x4
    33b4:	00021080 	sll	v0,v0,0x2
    33b8:	00621823 	subu	v1,v1,v0
    33bc:	308400ff 	andi	a0,a0,0xff
    33c0:	00641821 	addu	v1,v1,a0
    33c4:	3c020004 	lui	v0,0x4
    33c8:	00031880 	sll	v1,v1,0x2
    33cc:	8fa40070 	lw	a0,112(sp)
    33d0:	2442730c 	addiu	v0,v0,29452
    33d4:	00621821 	addu	v1,v1,v0
    33d8:	08000d09 	j	3424 <handle_packet+0x9f8>
    33dc:	ac640000 	sw	a0,0(v1)
    33e0:	3c040000 	lui	a0,0x0
    33e4:	0c000361 	jal	d84 <puts>
    33e8:	248467d0 	addiu	a0,a0,26576
    33ec:	8fa40064 	lw	a0,100(sp)
    33f0:	0c000046 	jal	118 <itoh>
    33f4:	00000000 	nop
    33f8:	0c000361 	jal	d84 <puts>
    33fc:	00402021 	move	a0,v0
    3400:	3c040000 	lui	a0,0x0
    3404:	0c000361 	jal	d84 <puts>
    3408:	2484670c 	addiu	a0,a0,26380
    340c:	3c022000 	lui	v0,0x2000
    3410:	34420300 	ori	v0,v0,0x300
    3414:	3c040000 	lui	a0,0x0
    3418:	8c450000 	lw	a1,0(v0)
    341c:	0c00037c 	jal	df0 <putsv>
    3420:	248467e8 	addiu	a0,a0,26600
    3424:	8fbf009c 	lw	ra,156(sp)
    3428:	8fb00098 	lw	s0,152(sp)
    342c:	03e00008 	jr	ra
    3430:	27bd00a0 	addiu	sp,sp,160

00003434 <handle_app_request>:
    3434:	27bdffc0 	addiu	sp,sp,-64
    3438:	3c022000 	lui	v0,0x2000
    343c:	afbe0038 	sw	s8,56(sp)
    3440:	afb70034 	sw	s7,52(sp)
    3444:	afb60030 	sw	s6,48(sp)
    3448:	afbf003c 	sw	ra,60(sp)
    344c:	afb5002c 	sw	s5,44(sp)
    3450:	afb40028 	sw	s4,40(sp)
    3454:	afb30024 	sw	s3,36(sp)
    3458:	afb20020 	sw	s2,32(sp)
    345c:	afb1001c 	sw	s1,28(sp)
    3460:	afb00018 	sw	s0,24(sp)
    3464:	34420350 	ori	v0,v0,0x350
    3468:	8c430000 	lw	v1,0(v0)
    346c:	3c027fff 	lui	v0,0x7fff
    3470:	3442ffff 	ori	v0,v0,0xffff
    3474:	0062f024 	and	s8,v1,v0
    3478:	3c020004 	lui	v0,0x4
    347c:	24427178 	addiu	v0,v0,29048
    3480:	001e1880 	sll	v1,s8,0x2
    3484:	00621821 	addu	v1,v1,v0
    3488:	8c640000 	lw	a0,0(v1)
    348c:	00000000 	nop
    3490:	000419c0 	sll	v1,a0,0x7
    3494:	00041140 	sll	v0,a0,0x5
    3498:	00431021 	addu	v0,v0,v1
    349c:	00441023 	subu	v0,v0,a0
    34a0:	00021080 	sll	v0,v0,0x2
    34a4:	00441021 	addu	v0,v0,a0
    34a8:	00021940 	sll	v1,v0,0x5
    34ac:	00621823 	subu	v1,v1,v0
    34b0:	00641821 	addu	v1,v1,a0
    34b4:	3c021000 	lui	v0,0x1000
    34b8:	0062b821 	addu	s7,v1,v0
    34bc:	8ef40000 	lw	s4,0(s7)
    34c0:	0c000309 	jal	c24 <SearchCluster>
    34c4:	02802021 	move	a0,s4
    34c8:	0040b021 	move	s6,v0
    34cc:	2402ffff 	li	v0,-1
    34d0:	12c2012a 	beq	s6,v0,397c <handle_app_request+0x548>
    34d4:	3c060005 	lui	a2,0x5
    34d8:	8cc72f90 	lw	a3,12176(a2)
    34dc:	00000000 	nop
    34e0:	14e00026 	bnez	a3,357c <handle_app_request+0x148>
    34e4:	24020001 	li	v0,1
    34e8:	3c050005 	lui	a1,0x5
    34ec:	8ca22f94 	lw	v0,12180(a1)
    34f0:	00000000 	nop
    34f4:	14400055 	bnez	v0,364c <handle_app_request+0x218>
    34f8:	3c020005 	lui	v0,0x5
    34fc:	8c429cdc 	lw	v0,-25380(v0)
    3500:	00000000 	nop
    3504:	00541023 	subu	v0,v0,s4
    3508:	00021900 	sll	v1,v0,0x4
    350c:	00021080 	sll	v0,v0,0x2
    3510:	00431021 	addu	v0,v0,v1
    3514:	00021880 	sll	v1,v0,0x2
    3518:	00431021 	addu	v0,v0,v1
    351c:	3c038888 	lui	v1,0x8888
    3520:	34638889 	ori	v1,v1,0x8889
    3524:	00430019 	multu	v0,v1
    3528:	3c030005 	lui	v1,0x5
    352c:	8c641424 	lw	a0,5156(v1)
    3530:	24030064 	li	v1,100
    3534:	00001010 	mfhi	v0
    3538:	00021202 	srl	v0,v0,0x8
    353c:	00621823 	subu	v1,v1,v0
    3540:	0064202a 	slt	a0,v1,a0
    3544:	3c020005 	lui	v0,0x5
    3548:	14800003 	bnez	a0,3558 <handle_app_request+0x124>
    354c:	ac432f98 	sw	v1,12184(v0)
    3550:	24020001 	li	v0,1
    3554:	aca22f94 	sw	v0,12180(a1)
    3558:	3c020005 	lui	v0,0x5
    355c:	8c421420 	lw	v0,5152(v0)
    3560:	00000000 	nop
    3564:	0062102a 	slt	v0,v1,v0
    3568:	14400051 	bnez	v0,36b0 <handle_app_request+0x27c>
    356c:	3c100005 	lui	s0,0x5
    3570:	24020001 	li	v0,1
    3574:	08000dac 	j	36b0 <handle_app_request+0x27c>
    3578:	acc22f90 	sw	v0,12176(a2)
    357c:	14e20033 	bne	a3,v0,364c <handle_app_request+0x218>
    3580:	3c020005 	lui	v0,0x5
    3584:	8c469cdc 	lw	a2,-25380(v0)
    3588:	3c040005 	lui	a0,0x5
    358c:	00061100 	sll	v0,a2,0x4
    3590:	00061880 	sll	v1,a2,0x2
    3594:	00621821 	addu	v1,v1,v0
    3598:	00031080 	sll	v0,v1,0x2
    359c:	00621821 	addu	v1,v1,v0
    35a0:	3c028888 	lui	v0,0x8888
    35a4:	344b8889 	ori	t3,v0,0x8889
    35a8:	006b0018 	mult	v1,t3
    35ac:	00032fc3 	sra	a1,v1,0x1f
    35b0:	8c881424 	lw	t0,5156(a0)
    35b4:	24090064 	li	t1,100
    35b8:	3c0a0005 	lui	t2,0x5
    35bc:	00001010 	mfhi	v0
    35c0:	00431021 	addu	v0,v0,v1
    35c4:	00021203 	sra	v0,v0,0x8
    35c8:	00451023 	subu	v0,v0,a1
    35cc:	01221023 	subu	v0,t1,v0
    35d0:	0102182a 	slt	v1,t0,v0
    35d4:	146000e9 	bnez	v1,397c <handle_app_request+0x548>
    35d8:	ad422f98 	sw	v0,12184(t2)
    35dc:	00d41023 	subu	v0,a2,s4
    35e0:	00021900 	sll	v1,v0,0x4
    35e4:	00021080 	sll	v0,v0,0x2
    35e8:	00431021 	addu	v0,v0,v1
    35ec:	00021880 	sll	v1,v0,0x2
    35f0:	00431021 	addu	v0,v0,v1
    35f4:	004b0019 	multu	v0,t3
    35f8:	3c040005 	lui	a0,0x5
    35fc:	00001010 	mfhi	v0
    3600:	00021202 	srl	v0,v0,0x8
    3604:	01221823 	subu	v1,t1,v0
    3608:	0068102a 	slt	v0,v1,t0
    360c:	14400003 	bnez	v0,361c <handle_app_request+0x1e8>
    3610:	ad432f98 	sw	v1,12184(t2)
    3614:	08000d88 	j	3620 <handle_app_request+0x1ec>
    3618:	ac872f94 	sw	a3,12180(a0)
    361c:	ac802f94 	sw	zero,12180(a0)
    3620:	3c020005 	lui	v0,0x5
    3624:	8c421420 	lw	v0,5152(v0)
    3628:	00000000 	nop
    362c:	0062102a 	slt	v0,v1,v0
    3630:	14400004 	bnez	v0,3644 <handle_app_request+0x210>
    3634:	3c040005 	lui	a0,0x5
    3638:	24020001 	li	v0,1
    363c:	08000dab 	j	36ac <handle_app_request+0x278>
    3640:	ac822f90 	sw	v0,12176(a0)
    3644:	08000dab 	j	36ac <handle_app_request+0x278>
    3648:	ac802f90 	sw	zero,12176(a0)
    364c:	8c429cdc 	lw	v0,-25380(v0)
    3650:	00000000 	nop
    3654:	00541023 	subu	v0,v0,s4
    3658:	00021900 	sll	v1,v0,0x4
    365c:	00021080 	sll	v0,v0,0x2
    3660:	00431021 	addu	v0,v0,v1
    3664:	00021880 	sll	v1,v0,0x2
    3668:	00431021 	addu	v0,v0,v1
    366c:	3c038888 	lui	v1,0x8888
    3670:	34638889 	ori	v1,v1,0x8889
    3674:	00430019 	multu	v0,v1
    3678:	3c030005 	lui	v1,0x5
    367c:	8c641420 	lw	a0,5152(v1)
    3680:	24030064 	li	v1,100
    3684:	00001010 	mfhi	v0
    3688:	00021202 	srl	v0,v0,0x8
    368c:	00621823 	subu	v1,v1,v0
    3690:	0064202a 	slt	a0,v1,a0
    3694:	3c020005 	lui	v0,0x5
    3698:	14800004 	bnez	a0,36ac <handle_app_request+0x278>
    369c:	ac432f98 	sw	v1,12184(v0)
    36a0:	24030001 	li	v1,1
    36a4:	3c020005 	lui	v0,0x5
    36a8:	ac432f90 	sw	v1,12176(v0)
    36ac:	3c100005 	lui	s0,0x5
    36b0:	00141880 	sll	v1,s4,0x2
    36b4:	00141100 	sll	v0,s4,0x4
    36b8:	00431023 	subu	v0,v0,v1
    36bc:	8e039cdc 	lw	v1,-25380(s0)
    36c0:	00541021 	addu	v0,v0,s4
    36c4:	3c040000 	lui	a0,0x0
    36c8:	00741823 	subu	v1,v1,s4
    36cc:	00021040 	sll	v0,v0,0x1
    36d0:	248466a0 	addiu	a0,a0,26272
    36d4:	ae039cdc 	sw	v1,-25380(s0)
    36d8:	0c000361 	jal	d84 <puts>
    36dc:	2455000b 	addiu	s5,v0,11
    36e0:	8e049cdc 	lw	a0,-25380(s0)
    36e4:	0c00000b 	jal	2c <itoa>
    36e8:	3c130000 	lui	s3,0x0
    36ec:	0c000361 	jal	d84 <puts>
    36f0:	00402021 	move	a0,v0
    36f4:	0c000361 	jal	d84 <puts>
    36f8:	2664670c 	addiu	a0,s3,26380
    36fc:	00161080 	sll	v0,s6,0x2
    3700:	afa20014 	sw	v0,20(sp)
    3704:	8fa30014 	lw	v1,20(sp)
    3708:	00161140 	sll	v0,s6,0x5
    370c:	3c100005 	lui	s0,0x5
    3710:	26109b1c 	addiu	s0,s0,-25828
    3714:	00431023 	subu	v0,v0,v1
    3718:	00501021 	addu	v0,v0,s0
    371c:	8c430000 	lw	v1,0(v0)
    3720:	8c420004 	lw	v0,4(v0)
    3724:	00031a00 	sll	v1,v1,0x8
    3728:	3c040000 	lui	a0,0x0
    372c:	00621825 	or	v1,v1,v0
    3730:	248467f0 	addiu	a0,a0,26608
    3734:	0c000361 	jal	d84 <puts>
    3738:	afa30010 	sw	v1,16(sp)
    373c:	0c00000b 	jal	2c <itoa>
    3740:	02c02021 	move	a0,s6
    3744:	0c000361 	jal	d84 <puts>
    3748:	00402021 	move	a0,v0
    374c:	0c000361 	jal	d84 <puts>
    3750:	2664670c 	addiu	a0,s3,26380
    3754:	3c040000 	lui	a0,0x0
    3758:	24846808 	addiu	a0,a0,26632
    375c:	0c000361 	jal	d84 <puts>
    3760:	3c110007 	lui	s1,0x7
    3764:	8e244674 	lw	a0,18036(s1)
    3768:	0c00000b 	jal	2c <itoa>
    376c:	3c120000 	lui	s2,0x0
    3770:	0c000361 	jal	d84 <puts>
    3774:	00402021 	move	a0,v0
    3778:	0c000361 	jal	d84 <puts>
    377c:	264469e8 	addiu	a0,s2,27112
    3780:	8e040018 	lw	a0,24(s0)
    3784:	0c00000b 	jal	2c <itoa>
    3788:	26314674 	addiu	s1,s1,18036
    378c:	0c000361 	jal	d84 <puts>
    3790:	00402021 	move	a0,v0
    3794:	0c000361 	jal	d84 <puts>
    3798:	2664670c 	addiu	a0,s3,26380
    379c:	3c040000 	lui	a0,0x0
    37a0:	0c000361 	jal	d84 <puts>
    37a4:	24846820 	addiu	a0,a0,26656
    37a8:	8e240004 	lw	a0,4(s1)
    37ac:	0c00000b 	jal	2c <itoa>
    37b0:	00000000 	nop
    37b4:	0c000361 	jal	d84 <puts>
    37b8:	00402021 	move	a0,v0
    37bc:	0c000361 	jal	d84 <puts>
    37c0:	264469e8 	addiu	a0,s2,27112
    37c4:	8e040034 	lw	a0,52(s0)
    37c8:	0c00000b 	jal	2c <itoa>
    37cc:	00000000 	nop
    37d0:	0c000361 	jal	d84 <puts>
    37d4:	00402021 	move	a0,v0
    37d8:	0c000361 	jal	d84 <puts>
    37dc:	2664670c 	addiu	a0,s3,26380
    37e0:	3c040000 	lui	a0,0x0
    37e4:	0c000361 	jal	d84 <puts>
    37e8:	24846838 	addiu	a0,a0,26680
    37ec:	8e240008 	lw	a0,8(s1)
    37f0:	0c00000b 	jal	2c <itoa>
    37f4:	00000000 	nop
    37f8:	0c000361 	jal	d84 <puts>
    37fc:	00402021 	move	a0,v0
    3800:	0c000361 	jal	d84 <puts>
    3804:	264469e8 	addiu	a0,s2,27112
    3808:	8e040050 	lw	a0,80(s0)
    380c:	0c00000b 	jal	2c <itoa>
    3810:	00000000 	nop
    3814:	0c000361 	jal	d84 <puts>
    3818:	00402021 	move	a0,v0
    381c:	0c000361 	jal	d84 <puts>
    3820:	2664670c 	addiu	a0,s3,26380
    3824:	3c040000 	lui	a0,0x0
    3828:	0c000361 	jal	d84 <puts>
    382c:	24846850 	addiu	a0,a0,26704
    3830:	8e24000c 	lw	a0,12(s1)
    3834:	0c00000b 	jal	2c <itoa>
    3838:	00000000 	nop
    383c:	0c000361 	jal	d84 <puts>
    3840:	00402021 	move	a0,v0
    3844:	0c000361 	jal	d84 <puts>
    3848:	264469e8 	addiu	a0,s2,27112
    384c:	8e04006c 	lw	a0,108(s0)
    3850:	0c00000b 	jal	2c <itoa>
    3854:	00000000 	nop
    3858:	0c000361 	jal	d84 <puts>
    385c:	00402021 	move	a0,v0
    3860:	0c000361 	jal	d84 <puts>
    3864:	2664670c 	addiu	a0,s3,26380
    3868:	3c020005 	lui	v0,0x5
    386c:	9042143c 	lbu	v0,5180(v0)
    3870:	8fa30010 	lw	v1,16(sp)
    3874:	00000000 	nop
    3878:	14620007 	bne	v1,v0,3898 <handle_app_request+0x464>
    387c:	3c110005 	lui	s1,0x5
    3880:	03c02021 	move	a0,s8
    3884:	02e02821 	move	a1,s7
    3888:	0c0009ed 	jal	27b4 <handle_new_app>
    388c:	02a03021 	move	a2,s5
    3890:	08000e59 	j	3964 <handle_app_request+0x530>
    3894:	3c022000 	lui	v0,0x2000
    3898:	8fb00014 	lw	s0,20(sp)
    389c:	26221854 	addiu	v0,s1,6228
    38a0:	02023021 	addu	a2,s0,v0
    38a4:	26e40040 	addiu	a0,s7,64
    38a8:	08000e31 	j	38c4 <handle_app_request+0x490>
    38ac:	00002821 	move	a1,zero
    38b0:	8c830000 	lw	v1,0(a0)
    38b4:	8cc20000 	lw	v0,0(a2)
    38b8:	24840068 	addiu	a0,a0,104
    38bc:	00431021 	addu	v0,v0,v1
    38c0:	acc20000 	sw	v0,0(a2)
    38c4:	14b4fffa 	bne	a1,s4,38b0 <handle_app_request+0x47c>
    38c8:	24a50001 	addiu	a1,a1,1
    38cc:	3c040000 	lui	a0,0x0
    38d0:	0c000361 	jal	d84 <puts>
    38d4:	24846868 	addiu	a0,a0,26728
    38d8:	0c00000b 	jal	2c <itoa>
    38dc:	02c02021 	move	a0,s6
    38e0:	0c000361 	jal	d84 <puts>
    38e4:	00402021 	move	a0,v0
    38e8:	3c040000 	lui	a0,0x0
    38ec:	0c000361 	jal	d84 <puts>
    38f0:	24846794 	addiu	a0,a0,26516
    38f4:	26221854 	addiu	v0,s1,6228
    38f8:	02021021 	addu	v0,s0,v0
    38fc:	8c440000 	lw	a0,0(v0)
    3900:	0c00000b 	jal	2c <itoa>
    3904:	00000000 	nop
    3908:	0c000361 	jal	d84 <puts>
    390c:	00402021 	move	a0,v0
    3910:	3c040000 	lui	a0,0x0
    3914:	0c000361 	jal	d84 <puts>
    3918:	2484670c 	addiu	a0,a0,26380
    391c:	02c02021 	move	a0,s6
    3920:	03c02821 	move	a1,s8
    3924:	02e03021 	move	a2,s7
    3928:	0c0006d5 	jal	1b54 <update_clusters_load>
    392c:	02a03821 	move	a3,s5
    3930:	0c000115 	jal	454 <get_service_header_slot>
    3934:	00000000 	nop
    3938:	8fa30010 	lw	v1,16(sp)
    393c:	00402021 	move	a0,v0
    3940:	ac430000 	sw	v1,0(v0)
    3944:	24030150 	li	v1,336
    3948:	ac430008 	sw	v1,8(v0)
    394c:	ac5e000c 	sw	s8,12(v0)
    3950:	ac550020 	sw	s5,32(v0)
    3954:	02e02821 	move	a1,s7
    3958:	0c00014f 	jal	53c <send_packet>
    395c:	02a03021 	move	a2,s5
    3960:	3c022000 	lui	v0,0x2000
    3964:	24030001 	li	v1,1
    3968:	34420360 	ori	v0,v0,0x360
    396c:	24040001 	li	a0,1
    3970:	ac430000 	sw	v1,0(v0)
    3974:	08000e60 	j	3980 <handle_app_request+0x54c>
    3978:	00000000 	nop
    397c:	00002021 	move	a0,zero
    3980:	8fbf003c 	lw	ra,60(sp)
    3984:	8fbe0038 	lw	s8,56(sp)
    3988:	8fb70034 	lw	s7,52(sp)
    398c:	8fb60030 	lw	s6,48(sp)
    3990:	8fb5002c 	lw	s5,44(sp)
    3994:	8fb40028 	lw	s4,40(sp)
    3998:	8fb30024 	lw	s3,36(sp)
    399c:	8fb20020 	lw	s2,32(sp)
    39a0:	8fb1001c 	lw	s1,28(sp)
    39a4:	8fb00018 	lw	s0,24(sp)
    39a8:	00801021 	move	v0,a0
    39ac:	03e00008 	jr	ra
    39b0:	27bd0040 	addiu	sp,sp,64

000039b4 <temperature>:
    39b4:	3c020005 	lui	v0,0x5
    39b8:	27bdffa8 	addiu	sp,sp,-88
    39bc:	24421394 	addiu	v0,v0,5012
    39c0:	afa20010 	sw	v0,16(sp)
    39c4:	24020001 	li	v0,1
    39c8:	afbf0054 	sw	ra,84(sp)
    39cc:	afbe0050 	sw	s8,80(sp)
    39d0:	afb7004c 	sw	s7,76(sp)
    39d4:	afb60048 	sw	s6,72(sp)
    39d8:	afb50044 	sw	s5,68(sp)
    39dc:	afb40040 	sw	s4,64(sp)
    39e0:	afb3003c 	sw	s3,60(sp)
    39e4:	afb20038 	sw	s2,56(sp)
    39e8:	afb10034 	sw	s1,52(sp)
    39ec:	afb00030 	sw	s0,48(sp)
    39f0:	afa20028 	sw	v0,40(sp)
    39f4:	8fa30028 	lw	v1,40(sp)
    39f8:	3c022aaa 	lui	v0,0x2aaa
    39fc:	3442aaab 	ori	v0,v0,0xaaab
    3a00:	00620018 	mult	v1,v0
    3a04:	00031fc3 	sra	v1,v1,0x1f
    3a08:	8fa40028 	lw	a0,40(sp)
    3a0c:	00001010 	mfhi	v0
    3a10:	0043c023 	subu	t8,v0,v1
    3a14:	00181840 	sll	v1,t8,0x1
    3a18:	001810c0 	sll	v0,t8,0x3
    3a1c:	00431023 	subu	v0,v0,v1
    3a20:	00821023 	subu	v0,a0,v0
    3a24:	1700000b 	bnez	t8,3a54 <temperature+0xa0>
    3a28:	afa20020 	sw	v0,32(sp)
    3a2c:	14400003 	bnez	v0,3a3c <temperature+0x88>
    3a30:	00000000 	nop
    3a34:	08000eb0 	j	3ac0 <temperature+0x10c>
    3a38:	afa0001c 	sw	zero,28(sp)
    3a3c:	8fa50020 	lw	a1,32(sp)
    3a40:	00000000 	nop
    3a44:	38a20005 	xori	v0,a1,0x5
    3a48:	0002102b 	sltu	v0,zero,v0
    3a4c:	08000eaf 	j	3abc <temperature+0x108>
    3a50:	24420001 	addiu	v0,v0,1
    3a54:	24020005 	li	v0,5
    3a58:	1702000d 	bne	t8,v0,3a90 <temperature+0xdc>
    3a5c:	00000000 	nop
    3a60:	8fa60020 	lw	a2,32(sp)
    3a64:	00000000 	nop
    3a68:	14c00003 	bnez	a2,3a78 <temperature+0xc4>
    3a6c:	24070003 	li	a3,3
    3a70:	08000eb0 	j	3ac0 <temperature+0x10c>
    3a74:	afa7001c 	sw	a3,28(sp)
    3a78:	8fa80020 	lw	t0,32(sp)
    3a7c:	00000000 	nop
    3a80:	39020005 	xori	v0,t0,0x5
    3a84:	0002102b 	sltu	v0,zero,v0
    3a88:	08000eaf 	j	3abc <temperature+0x108>
    3a8c:	24420004 	addiu	v0,v0,4
    3a90:	8fa90020 	lw	t1,32(sp)
    3a94:	00000000 	nop
    3a98:	15200003 	bnez	t1,3aa8 <temperature+0xf4>
    3a9c:	240a0006 	li	t2,6
    3aa0:	08000eb0 	j	3ac0 <temperature+0x10c>
    3aa4:	afaa001c 	sw	t2,28(sp)
    3aa8:	8fab0020 	lw	t3,32(sp)
    3aac:	00000000 	nop
    3ab0:	39620005 	xori	v0,t3,0x5
    3ab4:	0002102b 	sltu	v0,zero,v0
    3ab8:	24420007 	addiu	v0,v0,7
    3abc:	afa2001c 	sw	v0,28(sp)
    3ac0:	8fac0020 	lw	t4,32(sp)
    3ac4:	8fae0020 	lw	t6,32(sp)
    3ac8:	3c020005 	lui	v0,0x5
    3acc:	258cffff 	addiu	t4,t4,-1
    3ad0:	25ce0001 	addiu	t6,t6,1
    3ad4:	8c4b2f80 	lw	t3,12160(v0)
    3ad8:	afac0018 	sw	t4,24(sp)
    3adc:	afae0014 	sw	t6,20(sp)
    3ae0:	27160001 	addiu	s6,t8,1
    3ae4:	271fffff 	addiu	ra,t8,-1
    3ae8:	afa00024 	sw	zero,36(sp)
    3aec:	8fa3001c 	lw	v1,28(sp)
    3af0:	00000000 	nop
    3af4:	2c620009 	sltiu	v0,v1,9
    3af8:	10400372 	beqz	v0,48c4 <temperature+0xf10>
    3afc:	00031080 	sll	v0,v1,0x2
    3b00:	3c030000 	lui	v1,0x0
    3b04:	24637130 	addiu	v1,v1,28976
    3b08:	00431021 	addu	v0,v0,v1
    3b0c:	8fa40020 	lw	a0,32(sp)
    3b10:	8fa50024 	lw	a1,36(sp)
    3b14:	8fa60024 	lw	a2,36(sp)
    3b18:	8c420000 	lw	v0,0(v0)
    3b1c:	00052880 	sll	a1,a1,0x2
    3b20:	25790001 	addiu	t9,t3,1
    3b24:	000bf080 	sll	s8,t3,0x2
    3b28:	000bb940 	sll	s7,t3,0x5
    3b2c:	3c0c0005 	lui	t4,0x5
    3b30:	00047900 	sll	t7,a0,0x4
    3b34:	0006a140 	sll	s4,a2,0x5
    3b38:	00400008 	jr	v0
    3b3c:	afa5002c 	sw	a1,44(sp)
    3b40:	8fa30014 	lw	v1,20(sp)
    3b44:	01f63021 	addu	a2,t7,s6
    3b48:	00031100 	sll	v0,v1,0x4
    3b4c:	00562821 	addu	a1,v0,s6
    3b50:	01f82021 	addu	a0,t7,t8
    3b54:	00581021 	addu	v0,v0,t8
    3b58:	25832fe4 	addiu	v1,t4,12260
    3b5c:	00042080 	sll	a0,a0,0x2
    3b60:	00021080 	sll	v0,v0,0x2
    3b64:	00052880 	sll	a1,a1,0x2
    3b68:	00063080 	sll	a2,a2,0x2
    3b6c:	00c33021 	addu	a2,a2,v1
    3b70:	00a32821 	addu	a1,a1,v1
    3b74:	00832021 	addu	a0,a0,v1
    3b78:	00431021 	addu	v0,v0,v1
    3b7c:	3c0b6666 	lui	t3,0x6666
    3b80:	8c830000 	lw	v1,0(a0)
    3b84:	356b6667 	ori	t3,t3,0x6667
    3b88:	8ca40000 	lw	a0,0(a1)
    3b8c:	8c420000 	lw	v0,0(v0)
    3b90:	8cc50000 	lw	a1,0(a2)
    3b94:	032b0018 	mult	t9,t3
    3b98:	00033980 	sll	a3,v1,0x6
    3b9c:	00024180 	sll	t0,v0,0x6
    3ba0:	00044980 	sll	t1,a0,0x6
    3ba4:	00055180 	sll	t2,a1,0x6
    3ba8:	00031900 	sll	v1,v1,0x4
    3bac:	00021100 	sll	v0,v0,0x4
    3bb0:	00042100 	sll	a0,a0,0x4
    3bb4:	00052900 	sll	a1,a1,0x4
    3bb8:	01024023 	subu	t0,t0,v0
    3bbc:	01244823 	subu	t1,t1,a0
    3bc0:	00e33823 	subu	a3,a3,v1
    3bc4:	01455023 	subu	t2,t2,a1
    3bc8:	8fac002c 	lw	t4,44(sp)
    3bcc:	00071900 	sll	v1,a3,0x4
    3bd0:	00082900 	sll	a1,t0,0x4
    3bd4:	00091100 	sll	v0,t1,0x4
    3bd8:	000a3100 	sll	a2,t2,0x4
    3bdc:	01942021 	addu	a0,t4,s4
    3be0:	00491023 	subu	v0,v0,t1
    3be4:	00671823 	subu	v1,v1,a3
    3be8:	00a82823 	subu	a1,a1,t0
    3bec:	00ca3023 	subu	a2,a2,t2
    3bf0:	00863021 	addu	a2,a0,a2
    3bf4:	00831821 	addu	v1,a0,v1
    3bf8:	00852821 	addu	a1,a0,a1
    3bfc:	00822021 	addu	a0,a0,v0
    3c00:	3c020005 	lui	v0,0x5
    3c04:	2442dac0 	addiu	v0,v0,-9536
    3c08:	00621821 	addu	v1,v1,v0
    3c0c:	3c020005 	lui	v0,0x5
    3c10:	24429ce0 	addiu	v0,v0,-25376
    3c14:	3c0e0005 	lui	t6,0x5
    3c18:	25c8bbd0 	addiu	t0,t6,-17456
    3c1c:	00822021 	addu	a0,a0,v0
    3c20:	8fa20028 	lw	v0,40(sp)
    3c24:	00a82821 	addu	a1,a1,t0
    3c28:	00c83021 	addu	a2,a2,t0
    3c2c:	03d73821 	addu	a3,s8,s7
    3c30:	3c080005 	lui	t0,0x5
    3c34:	00e23821 	addu	a3,a3,v0
    3c38:	25091900 	addiu	t1,t0,6400
    3c3c:	8c630010 	lw	v1,16(v1)
    3c40:	8ca8000c 	lw	t0,12(a1)
    3c44:	8c840000 	lw	a0,0(a0)
    3c48:	8cc50004 	lw	a1,4(a2)
    3c4c:	00005810 	mfhi	t3
    3c50:	08000f5b 	j	3d6c <temperature+0x3b8>
    3c54:	00073880 	sll	a3,a3,0x2
    3c58:	8fa30018 	lw	v1,24(sp)
    3c5c:	01f62821 	addu	a1,t7,s6
    3c60:	00031100 	sll	v0,v1,0x4
    3c64:	00563021 	addu	a2,v0,s6
    3c68:	01f82021 	addu	a0,t7,t8
    3c6c:	00581021 	addu	v0,v0,t8
    3c70:	25832fe4 	addiu	v1,t4,12260
    3c74:	00021080 	sll	v0,v0,0x2
    3c78:	00042080 	sll	a0,a0,0x2
    3c7c:	00052880 	sll	a1,a1,0x2
    3c80:	00063080 	sll	a2,a2,0x2
    3c84:	00c33021 	addu	a2,a2,v1
    3c88:	00a32821 	addu	a1,a1,v1
    3c8c:	00431021 	addu	v0,v0,v1
    3c90:	00832021 	addu	a0,a0,v1
    3c94:	3c0b6666 	lui	t3,0x6666
    3c98:	8c830000 	lw	v1,0(a0)
    3c9c:	356b6667 	ori	t3,t3,0x6667
    3ca0:	8ca40000 	lw	a0,0(a1)
    3ca4:	8c420000 	lw	v0,0(v0)
    3ca8:	8cc50000 	lw	a1,0(a2)
    3cac:	032b0018 	mult	t9,t3
    3cb0:	00023980 	sll	a3,v0,0x6
    3cb4:	00034180 	sll	t0,v1,0x6
    3cb8:	00044980 	sll	t1,a0,0x6
    3cbc:	00055180 	sll	t2,a1,0x6
    3cc0:	00021100 	sll	v0,v0,0x4
    3cc4:	00031900 	sll	v1,v1,0x4
    3cc8:	00042100 	sll	a0,a0,0x4
    3ccc:	00052900 	sll	a1,a1,0x4
    3cd0:	00e23823 	subu	a3,a3,v0
    3cd4:	01034023 	subu	t0,t0,v1
    3cd8:	01244823 	subu	t1,t1,a0
    3cdc:	01455023 	subu	t2,t2,a1
    3ce0:	8fac002c 	lw	t4,44(sp)
    3ce4:	00071900 	sll	v1,a3,0x4
    3ce8:	00082900 	sll	a1,t0,0x4
    3cec:	00091100 	sll	v0,t1,0x4
    3cf0:	000a3100 	sll	a2,t2,0x4
    3cf4:	01942021 	addu	a0,t4,s4
    3cf8:	00491023 	subu	v0,v0,t1
    3cfc:	00671823 	subu	v1,v1,a3
    3d00:	00a82823 	subu	a1,a1,t0
    3d04:	00ca3023 	subu	a2,a2,t2
    3d08:	00863021 	addu	a2,a0,a2
    3d0c:	00831821 	addu	v1,a0,v1
    3d10:	00852821 	addu	a1,a0,a1
    3d14:	00822021 	addu	a0,a0,v0
    3d18:	3c020005 	lui	v0,0x5
    3d1c:	2442dac0 	addiu	v0,v0,-9536
    3d20:	00a22821 	addu	a1,a1,v0
    3d24:	3c020005 	lui	v0,0x5
    3d28:	24429ce0 	addiu	v0,v0,-25376
    3d2c:	3c0e0005 	lui	t6,0x5
    3d30:	25c8bbd0 	addiu	t0,t6,-17456
    3d34:	00c23021 	addu	a2,a2,v0
    3d38:	8fa20028 	lw	v0,40(sp)
    3d3c:	00882021 	addu	a0,a0,t0
    3d40:	00681821 	addu	v1,v1,t0
    3d44:	03d73821 	addu	a3,s8,s7
    3d48:	3c080005 	lui	t0,0x5
    3d4c:	00e23821 	addu	a3,a3,v0
    3d50:	25091900 	addiu	t1,t0,6400
    3d54:	8c630014 	lw	v1,20(v1)
    3d58:	8ca80010 	lw	t0,16(a1)
    3d5c:	8c84001c 	lw	a0,28(a0)
    3d60:	8cc50008 	lw	a1,8(a2)
    3d64:	00005810 	mfhi	t3
    3d68:	00073880 	sll	a3,a3,0x2
    3d6c:	001917c3 	sra	v0,t9,0x1f
    3d70:	000b58c3 	sra	t3,t3,0x3
    3d74:	00e93821 	addu	a3,a3,t1
    3d78:	01625823 	subu	t3,t3,v0
    3d7c:	00852021 	addu	a0,a0,a1
    3d80:	00681821 	addu	v1,v1,t0
    3d84:	8ce60000 	lw	a2,0(a3)
    3d88:	000b2900 	sll	a1,t3,0x4
    3d8c:	000b1080 	sll	v0,t3,0x2
    3d90:	00641821 	addu	v1,v1,a0
    3d94:	00451021 	addu	v0,v0,a1
    3d98:	00661821 	addu	v1,v1,a2
    3d9c:	03225823 	subu	t3,t9,v0
    3da0:	08001231 	j	48c4 <temperature+0xf10>
    3da4:	ace30000 	sw	v1,0(a3)
    3da8:	8fa90018 	lw	t1,24(sp)
    3dac:	3c0e6666 	lui	t6,0x6666
    3db0:	8faa0014 	lw	t2,20(sp)
    3db4:	35ce6667 	ori	t6,t6,0x6667
    3db8:	00091100 	sll	v0,t1,0x4
    3dbc:	032e0018 	mult	t9,t6
    3dc0:	01f83021 	addu	a2,t7,t8
    3dc4:	25842fe4 	addiu	a0,t4,12260
    3dc8:	000a1900 	sll	v1,t2,0x4
    3dcc:	00564021 	addu	t0,v0,s6
    3dd0:	00063080 	sll	a2,a2,0x2
    3dd4:	00581021 	addu	v0,v0,t8
    3dd8:	01f62821 	addu	a1,t7,s6
    3ddc:	00783821 	addu	a3,v1,t8
    3de0:	00c43021 	addu	a2,a2,a0
    3de4:	00021080 	sll	v0,v0,0x2
    3de8:	00761821 	addu	v1,v1,s6
    3dec:	00052880 	sll	a1,a1,0x2
    3df0:	00441021 	addu	v0,v0,a0
    3df4:	8cc60000 	lw	a2,0(a2)
    3df8:	00a42821 	addu	a1,a1,a0
    3dfc:	00084080 	sll	t0,t0,0x2
    3e00:	00073880 	sll	a3,a3,0x2
    3e04:	00031880 	sll	v1,v1,0x2
    3e08:	01044021 	addu	t0,t0,a0
    3e0c:	00e43821 	addu	a3,a3,a0
    3e10:	00641821 	addu	v1,v1,a0
    3e14:	8c420000 	lw	v0,0(v0)
    3e18:	8ca40000 	lw	a0,0(a1)
    3e1c:	8d080000 	lw	t0,0(t0)
    3e20:	8ce70000 	lw	a3,0(a3)
    3e24:	8c630000 	lw	v1,0(v1)
    3e28:	00065980 	sll	t3,a2,0x6
    3e2c:	00063100 	sll	a2,a2,0x4
    3e30:	01665823 	subu	t3,t3,a2
    3e34:	00025180 	sll	t2,v0,0x6
    3e38:	00043180 	sll	a2,a0,0x6
    3e3c:	00021100 	sll	v0,v0,0x4
    3e40:	00042100 	sll	a0,a0,0x4
    3e44:	01425023 	subu	t2,t2,v0
    3e48:	00c43023 	subu	a2,a2,a0
    3e4c:	00086180 	sll	t4,t0,0x6
    3e50:	00076980 	sll	t5,a3,0x6
    3e54:	00084100 	sll	t0,t0,0x4
    3e58:	00073900 	sll	a3,a3,0x4
    3e5c:	00034980 	sll	t1,v1,0x6
    3e60:	8fa4002c 	lw	a0,44(sp)
    3e64:	00031900 	sll	v1,v1,0x4
    3e68:	01234823 	subu	t1,t1,v1
    3e6c:	01886023 	subu	t4,t4,t0
    3e70:	01a76823 	subu	t5,t5,a3
    3e74:	000a1900 	sll	v1,t2,0x4
    3e78:	00941021 	addu	v0,a0,s4
    3e7c:	000b2900 	sll	a1,t3,0x4
    3e80:	006a1823 	subu	v1,v1,t2
    3e84:	00092100 	sll	a0,t1,0x4
    3e88:	00065100 	sll	t2,a2,0x4
    3e8c:	000c3900 	sll	a3,t4,0x4
    3e90:	000d4100 	sll	t0,t5,0x4
    3e94:	01465023 	subu	t2,t2,a2
    3e98:	00ab2823 	subu	a1,a1,t3
    3e9c:	00892023 	subu	a0,a0,t1
    3ea0:	00ec3823 	subu	a3,a3,t4
    3ea4:	3c090005 	lui	t1,0x5
    3ea8:	010d4023 	subu	t0,t0,t5
    3eac:	2526bbd0 	addiu	a2,t1,-17456
    3eb0:	00431821 	addu	v1,v0,v1
    3eb4:	00452821 	addu	a1,v0,a1
    3eb8:	00473821 	addu	a3,v0,a3
    3ebc:	00484021 	addu	t0,v0,t0
    3ec0:	00442021 	addu	a0,v0,a0
    3ec4:	004a1021 	addu	v0,v0,t2
    3ec8:	8faa0028 	lw	t2,40(sp)
    3ecc:	00a62821 	addu	a1,a1,a2
    3ed0:	00e63821 	addu	a3,a3,a2
    3ed4:	00461021 	addu	v0,v0,a2
    3ed8:	00661821 	addu	v1,v1,a2
    3edc:	01064021 	addu	t0,t0,a2
    3ee0:	00862021 	addu	a0,a0,a2
    3ee4:	00007010 	mfhi	t6
    3ee8:	03d74821 	addu	t1,s8,s7
    3eec:	012a4821 	addu	t1,t1,t2
    3ef0:	3c0b0005 	lui	t3,0x5
    3ef4:	8caa0010 	lw	t2,16(a1)
    3ef8:	000e70c3 	sra	t6,t6,0x3
    3efc:	8ce50018 	lw	a1,24(a3)
    3f00:	8c63000c 	lw	v1,12(v1)
    3f04:	8c47001c 	lw	a3,28(v0)
    3f08:	8d080014 	lw	t0,20(t0)
    3f0c:	001917c3 	sra	v0,t9,0x1f
    3f10:	8c840020 	lw	a0,32(a0)
    3f14:	25661900 	addiu	a2,t3,6400
    3f18:	00094880 	sll	t1,t1,0x2
    3f1c:	0800118d 	j	4634 <temperature+0xc80>
    3f20:	01c25823 	subu	t3,t6,v0
    3f24:	8fa30014 	lw	v1,20(sp)
    3f28:	01f83021 	addu	a2,t7,t8
    3f2c:	00031100 	sll	v0,v1,0x4
    3f30:	00582821 	addu	a1,v0,t8
    3f34:	01ff2021 	addu	a0,t7,ra
    3f38:	005f1021 	addu	v0,v0,ra
    3f3c:	25832fe4 	addiu	v1,t4,12260
    3f40:	00042080 	sll	a0,a0,0x2
    3f44:	00021080 	sll	v0,v0,0x2
    3f48:	00052880 	sll	a1,a1,0x2
    3f4c:	00063080 	sll	a2,a2,0x2
    3f50:	00c33021 	addu	a2,a2,v1
    3f54:	00a32821 	addu	a1,a1,v1
    3f58:	00832021 	addu	a0,a0,v1
    3f5c:	00431021 	addu	v0,v0,v1
    3f60:	3c0b6666 	lui	t3,0x6666
    3f64:	8c830000 	lw	v1,0(a0)
    3f68:	356b6667 	ori	t3,t3,0x6667
    3f6c:	8ca40000 	lw	a0,0(a1)
    3f70:	8c420000 	lw	v0,0(v0)
    3f74:	8cc50000 	lw	a1,0(a2)
    3f78:	032b0018 	mult	t9,t3
    3f7c:	00033980 	sll	a3,v1,0x6
    3f80:	00024180 	sll	t0,v0,0x6
    3f84:	00044980 	sll	t1,a0,0x6
    3f88:	00055180 	sll	t2,a1,0x6
    3f8c:	00031900 	sll	v1,v1,0x4
    3f90:	00021100 	sll	v0,v0,0x4
    3f94:	00042100 	sll	a0,a0,0x4
    3f98:	00052900 	sll	a1,a1,0x4
    3f9c:	01024023 	subu	t0,t0,v0
    3fa0:	01244823 	subu	t1,t1,a0
    3fa4:	00e33823 	subu	a3,a3,v1
    3fa8:	01455023 	subu	t2,t2,a1
    3fac:	8fac002c 	lw	t4,44(sp)
    3fb0:	00071900 	sll	v1,a3,0x4
    3fb4:	00082900 	sll	a1,t0,0x4
    3fb8:	00091100 	sll	v0,t1,0x4
    3fbc:	000a3100 	sll	a2,t2,0x4
    3fc0:	01942021 	addu	a0,t4,s4
    3fc4:	00491023 	subu	v0,v0,t1
    3fc8:	00671823 	subu	v1,v1,a3
    3fcc:	00a82823 	subu	a1,a1,t0
    3fd0:	00ca3023 	subu	a2,a2,t2
    3fd4:	00863021 	addu	a2,a0,a2
    3fd8:	00831821 	addu	v1,a0,v1
    3fdc:	00852821 	addu	a1,a0,a1
    3fe0:	00822021 	addu	a0,a0,v0
    3fe4:	3c020005 	lui	v0,0x5
    3fe8:	24429ce0 	addiu	v0,v0,-25376
    3fec:	00a22821 	addu	a1,a1,v0
    3ff0:	3c020005 	lui	v0,0x5
    3ff4:	2442dac0 	addiu	v0,v0,-9536
    3ff8:	3c0e0005 	lui	t6,0x5
    3ffc:	25c8bbd0 	addiu	t0,t6,-17456
    4000:	00c23021 	addu	a2,a2,v0
    4004:	8fa20028 	lw	v0,40(sp)
    4008:	00882021 	addu	a0,a0,t0
    400c:	00681821 	addu	v1,v1,t0
    4010:	03d73821 	addu	a3,s8,s7
    4014:	3c080005 	lui	t0,0x5
    4018:	00e23821 	addu	a3,a3,v0
    401c:	25091900 	addiu	t1,t0,6400
    4020:	8c63001c 	lw	v1,28(v1)
    4024:	8ca80018 	lw	t0,24(a1)
    4028:	8c84000c 	lw	a0,12(a0)
    402c:	8cc50010 	lw	a1,16(a2)
    4030:	00005810 	mfhi	t3
    4034:	08000f5b 	j	3d6c <temperature+0x3b8>
    4038:	00073880 	sll	a3,a3,0x2
    403c:	8fa30018 	lw	v1,24(sp)
    4040:	01f82821 	addu	a1,t7,t8
    4044:	00031100 	sll	v0,v1,0x4
    4048:	00583021 	addu	a2,v0,t8
    404c:	01ff2021 	addu	a0,t7,ra
    4050:	005f1021 	addu	v0,v0,ra
    4054:	25832fe4 	addiu	v1,t4,12260
    4058:	00021080 	sll	v0,v0,0x2
    405c:	00042080 	sll	a0,a0,0x2
    4060:	00052880 	sll	a1,a1,0x2
    4064:	00063080 	sll	a2,a2,0x2
    4068:	00c33021 	addu	a2,a2,v1
    406c:	00a32821 	addu	a1,a1,v1
    4070:	00431021 	addu	v0,v0,v1
    4074:	00832021 	addu	a0,a0,v1
    4078:	3c0b6666 	lui	t3,0x6666
    407c:	8c830000 	lw	v1,0(a0)
    4080:	356b6667 	ori	t3,t3,0x6667
    4084:	8ca40000 	lw	a0,0(a1)
    4088:	8c420000 	lw	v0,0(v0)
    408c:	8cc50000 	lw	a1,0(a2)
    4090:	032b0018 	mult	t9,t3
    4094:	00023980 	sll	a3,v0,0x6
    4098:	00034180 	sll	t0,v1,0x6
    409c:	00044980 	sll	t1,a0,0x6
    40a0:	00055180 	sll	t2,a1,0x6
    40a4:	00021100 	sll	v0,v0,0x4
    40a8:	00031900 	sll	v1,v1,0x4
    40ac:	00042100 	sll	a0,a0,0x4
    40b0:	00052900 	sll	a1,a1,0x4
    40b4:	00e23823 	subu	a3,a3,v0
    40b8:	01034023 	subu	t0,t0,v1
    40bc:	01244823 	subu	t1,t1,a0
    40c0:	01455023 	subu	t2,t2,a1
    40c4:	8fac002c 	lw	t4,44(sp)
    40c8:	00071900 	sll	v1,a3,0x4
    40cc:	00082900 	sll	a1,t0,0x4
    40d0:	00091100 	sll	v0,t1,0x4
    40d4:	000a3100 	sll	a2,t2,0x4
    40d8:	01942021 	addu	a0,t4,s4
    40dc:	00491023 	subu	v0,v0,t1
    40e0:	00671823 	subu	v1,v1,a3
    40e4:	00a82823 	subu	a1,a1,t0
    40e8:	00ca3023 	subu	a2,a2,t2
    40ec:	00863021 	addu	a2,a0,a2
    40f0:	00831821 	addu	v1,a0,v1
    40f4:	00852821 	addu	a1,a0,a1
    40f8:	00822021 	addu	a0,a0,v0
    40fc:	3c020005 	lui	v0,0x5
    4100:	24429ce0 	addiu	v0,v0,-25376
    4104:	00621821 	addu	v1,v1,v0
    4108:	3c020005 	lui	v0,0x5
    410c:	2442dac0 	addiu	v0,v0,-9536
    4110:	3c0e0005 	lui	t6,0x5
    4114:	25c8bbd0 	addiu	t0,t6,-17456
    4118:	00822021 	addu	a0,a0,v0
    411c:	8fa20028 	lw	v0,40(sp)
    4120:	00a82821 	addu	a1,a1,t0
    4124:	00c83021 	addu	a2,a2,t0
    4128:	03d73821 	addu	a3,s8,s7
    412c:	3c080005 	lui	t0,0x5
    4130:	00e23821 	addu	a3,a3,v0
    4134:	25091900 	addiu	t1,t0,6400
    4138:	8c630000 	lw	v1,0(v1)
    413c:	8ca80004 	lw	t0,4(a1)
    4140:	8c840010 	lw	a0,16(a0)
    4144:	8cc5000c 	lw	a1,12(a2)
    4148:	00005810 	mfhi	t3
    414c:	08000f5b 	j	3d6c <temperature+0x3b8>
    4150:	00073880 	sll	a3,a3,0x2
    4154:	8fa90018 	lw	t1,24(sp)
    4158:	8faa0014 	lw	t2,20(sp)
    415c:	00091100 	sll	v0,t1,0x4
    4160:	000a1900 	sll	v1,t2,0x4
    4164:	00584021 	addu	t0,v0,t8
    4168:	007f3821 	addu	a3,v1,ra
    416c:	3c0d6666 	lui	t5,0x6666
    4170:	005f1021 	addu	v0,v0,ra
    4174:	25842fe4 	addiu	a0,t4,12260
    4178:	35ad6667 	ori	t5,t5,0x6667
    417c:	01ff3021 	addu	a2,t7,ra
    4180:	00021080 	sll	v0,v0,0x2
    4184:	01f82821 	addu	a1,t7,t8
    4188:	00084080 	sll	t0,t0,0x2
    418c:	00073880 	sll	a3,a3,0x2
    4190:	00781821 	addu	v1,v1,t8
    4194:	00441021 	addu	v0,v0,a0
    4198:	01044021 	addu	t0,t0,a0
    419c:	00e43821 	addu	a3,a3,a0
    41a0:	032d0018 	mult	t9,t5
    41a4:	00063080 	sll	a2,a2,0x2
    41a8:	00052880 	sll	a1,a1,0x2
    41ac:	00031880 	sll	v1,v1,0x2
    41b0:	00c43021 	addu	a2,a2,a0
    41b4:	00641821 	addu	v1,v1,a0
    41b8:	8c420000 	lw	v0,0(v0)
    41bc:	8d080000 	lw	t0,0(t0)
    41c0:	8ce70000 	lw	a3,0(a3)
    41c4:	00a42821 	addu	a1,a1,a0
    41c8:	8ca40000 	lw	a0,0(a1)
    41cc:	8cc60000 	lw	a2,0(a2)
    41d0:	8c630000 	lw	v1,0(v1)
    41d4:	00022980 	sll	a1,v0,0x6
    41d8:	00085980 	sll	t3,t0,0x6
    41dc:	00076180 	sll	t4,a3,0x6
    41e0:	00021100 	sll	v0,v0,0x4
    41e4:	00084100 	sll	t0,t0,0x4
    41e8:	00073900 	sll	a3,a3,0x4
    41ec:	00a22823 	subu	a1,a1,v0
    41f0:	01876023 	subu	t4,t4,a3
    41f4:	01685823 	subu	t3,t3,t0
    41f8:	00065180 	sll	t2,a2,0x6
    41fc:	00041180 	sll	v0,a0,0x6
    4200:	00063100 	sll	a2,a2,0x4
    4204:	00033980 	sll	a3,v1,0x6
    4208:	00042100 	sll	a0,a0,0x4
    420c:	00031900 	sll	v1,v1,0x4
    4210:	00441023 	subu	v0,v0,a0
    4214:	00e33823 	subu	a3,a3,v1
    4218:	01465023 	subu	t2,t2,a2
    421c:	00051900 	sll	v1,a1,0x4
    4220:	000b4100 	sll	t0,t3,0x4
    4224:	8fae002c 	lw	t6,44(sp)
    4228:	000a3100 	sll	a2,t2,0x4
    422c:	00651823 	subu	v1,v1,a1
    4230:	010b4023 	subu	t0,t0,t3
    4234:	00072900 	sll	a1,a3,0x4
    4238:	00025900 	sll	t3,v0,0x4
    423c:	01d42021 	addu	a0,t6,s4
    4240:	01625823 	subu	t3,t3,v0
    4244:	000c4900 	sll	t1,t4,0x4
    4248:	00ca3023 	subu	a2,a2,t2
    424c:	00a72823 	subu	a1,a1,a3
    4250:	3c020005 	lui	v0,0x5
    4254:	3c0a0005 	lui	t2,0x5
    4258:	254adac0 	addiu	t2,t2,-9536
    425c:	012c4823 	subu	t1,t1,t4
    4260:	00884021 	addu	t0,a0,t0
    4264:	244cbbd0 	addiu	t4,v0,-17456
    4268:	00852821 	addu	a1,a0,a1
    426c:	3c020005 	lui	v0,0x5
    4270:	010a4021 	addu	t0,t0,t2
    4274:	00831821 	addu	v1,a0,v1
    4278:	00863021 	addu	a2,a0,a2
    427c:	00894821 	addu	t1,a0,t1
    4280:	24429ce0 	addiu	v0,v0,-25376
    4284:	00aa2821 	addu	a1,a1,t2
    4288:	8faa0028 	lw	t2,40(sp)
    428c:	00c23021 	addu	a2,a2,v0
    4290:	008b2021 	addu	a0,a0,t3
    4294:	03d73821 	addu	a3,s8,s7
    4298:	012c4821 	addu	t1,t1,t4
    429c:	006c1821 	addu	v1,v1,t4
    42a0:	00ea3821 	addu	a3,a3,t2
    42a4:	3c0b0005 	lui	t3,0x5
    42a8:	8cca001c 	lw	t2,28(a2)
    42ac:	8c630020 	lw	v1,32(v1)
    42b0:	8d060014 	lw	a2,20(t0)
    42b4:	008c2021 	addu	a0,a0,t4
    42b8:	8d290018 	lw	t1,24(t1)
    42bc:	25681900 	addiu	t0,t3,6400
    42c0:	8c840010 	lw	a0,16(a0)
    42c4:	8ca5000c 	lw	a1,12(a1)
    42c8:	00006810 	mfhi	t5
    42cc:	00073880 	sll	a3,a3,0x2
    42d0:	001917c3 	sra	v0,t9,0x1f
    42d4:	000d68c3 	sra	t5,t5,0x3
    42d8:	00e83821 	addu	a3,a3,t0
    42dc:	006a1821 	addu	v1,v1,t2
    42e0:	00c93021 	addu	a2,a2,t1
    42e4:	01a25823 	subu	t3,t5,v0
    42e8:	00641821 	addu	v1,v1,a0
    42ec:	00c53021 	addu	a2,a2,a1
    42f0:	8ce50000 	lw	a1,0(a3)
    42f4:	000b2100 	sll	a0,t3,0x4
    42f8:	000b1080 	sll	v0,t3,0x2
    42fc:	00661821 	addu	v1,v1,a2
    4300:	00441021 	addu	v0,v0,a0
    4304:	08000f67 	j	3d9c <temperature+0x3e8>
    4308:	00651821 	addu	v1,v1,a1
    430c:	8fae0014 	lw	t6,20(sp)
    4310:	01ff2821 	addu	a1,t7,ra
    4314:	000e1100 	sll	v0,t6,0x4
    4318:	3c0e6666 	lui	t6,0x6666
    431c:	35ce6667 	ori	t6,t6,0x6667
    4320:	005f3021 	addu	a2,v0,ra
    4324:	00583821 	addu	a3,v0,t8
    4328:	25842fe4 	addiu	a0,t4,12260
    432c:	032e0018 	mult	t9,t6
    4330:	01f84021 	addu	t0,t7,t8
    4334:	00052880 	sll	a1,a1,0x2
    4338:	00063080 	sll	a2,a2,0x2
    433c:	00073880 	sll	a3,a3,0x2
    4340:	00561021 	addu	v0,v0,s6
    4344:	01f61821 	addu	v1,t7,s6
    4348:	00a42821 	addu	a1,a1,a0
    434c:	00c43021 	addu	a2,a2,a0
    4350:	00e43821 	addu	a3,a3,a0
    4354:	00084080 	sll	t0,t0,0x2
    4358:	00031880 	sll	v1,v1,0x2
    435c:	00021080 	sll	v0,v0,0x2
    4360:	01044021 	addu	t0,t0,a0
    4364:	00441021 	addu	v0,v0,a0
    4368:	8ca50000 	lw	a1,0(a1)
    436c:	8cc60000 	lw	a2,0(a2)
    4370:	8ce70000 	lw	a3,0(a3)
    4374:	00641821 	addu	v1,v1,a0
    4378:	8d080000 	lw	t0,0(t0)
    437c:	8c440000 	lw	a0,0(v0)
    4380:	8c630000 	lw	v1,0(v1)
    4384:	00055180 	sll	t2,a1,0x6
    4388:	00065980 	sll	t3,a2,0x6
    438c:	00076180 	sll	t4,a3,0x6
    4390:	00052900 	sll	a1,a1,0x4
    4394:	00063100 	sll	a2,a2,0x4
    4398:	00073900 	sll	a3,a3,0x4
    439c:	01455023 	subu	t2,t2,a1
    43a0:	01665823 	subu	t3,t3,a2
    43a4:	01876023 	subu	t4,t4,a3
    43a8:	00086980 	sll	t5,t0,0x6
    43ac:	00031180 	sll	v0,v1,0x6
    43b0:	00084100 	sll	t0,t0,0x4
    43b4:	00043180 	sll	a2,a0,0x6
    43b8:	00031900 	sll	v1,v1,0x4
    43bc:	00042100 	sll	a0,a0,0x4
    43c0:	8fa5002c 	lw	a1,44(sp)
    43c4:	00431023 	subu	v0,v0,v1
    43c8:	00c43023 	subu	a2,a2,a0
    43cc:	01a86823 	subu	t5,t5,t0
    43d0:	000c4100 	sll	t0,t4,0x4
    43d4:	00b42021 	addu	a0,a1,s4
    43d8:	000a1900 	sll	v1,t2,0x4
    43dc:	000b3900 	sll	a3,t3,0x4
    43e0:	010c4023 	subu	t0,t0,t4
    43e4:	00062900 	sll	a1,a2,0x4
    43e8:	00026100 	sll	t4,v0,0x4
    43ec:	000d4900 	sll	t1,t5,0x4
    43f0:	006a1823 	subu	v1,v1,t2
    43f4:	00eb3823 	subu	a3,a3,t3
    43f8:	01826023 	subu	t4,t4,v0
    43fc:	00a62823 	subu	a1,a1,a2
    4400:	012d4823 	subu	t1,t1,t5
    4404:	3c0a0005 	lui	t2,0x5
    4408:	254adac0 	addiu	t2,t2,-9536
    440c:	3c060005 	lui	a2,0x5
    4410:	00831821 	addu	v1,a0,v1
    4414:	00873821 	addu	a3,a0,a3
    4418:	00884021 	addu	t0,a0,t0
    441c:	00894821 	addu	t1,a0,t1
    4420:	00852821 	addu	a1,a0,a1
    4424:	3c020005 	lui	v0,0x5
    4428:	008c2021 	addu	a0,a0,t4
    442c:	24cbbbd0 	addiu	t3,a2,-17456
    4430:	24429ce0 	addiu	v0,v0,-25376
    4434:	006a1821 	addu	v1,v1,t2
    4438:	008a2021 	addu	a0,a0,t2
    443c:	8faa0028 	lw	t2,40(sp)
    4440:	01024021 	addu	t0,t0,v0
    4444:	00eb3821 	addu	a3,a3,t3
    4448:	012b4821 	addu	t1,t1,t3
    444c:	03d73021 	addu	a2,s8,s7
    4450:	00ab2821 	addu	a1,a1,t3
    4454:	00ca3021 	addu	a2,a2,t2
    4458:	3c0b0005 	lui	t3,0x5
    445c:	8cea0018 	lw	t2,24(a3)
    4460:	00007010 	mfhi	t6
    4464:	8d07000c 	lw	a3,12(t0)
    4468:	8c63001c 	lw	v1,28(v1)
    446c:	8d290010 	lw	t1,16(t1)
    4470:	25681900 	addiu	t0,t3,6400
    4474:	8c840004 	lw	a0,4(a0)
    4478:	8ca50000 	lw	a1,0(a1)
    447c:	001917c3 	sra	v0,t9,0x1f
    4480:	00063080 	sll	a2,a2,0x2
    4484:	000e70c3 	sra	t6,t6,0x3
    4488:	01c25823 	subu	t3,t6,v0
    448c:	00c83021 	addu	a2,a2,t0
    4490:	006a1821 	addu	v1,v1,t2
    4494:	00e93821 	addu	a3,a3,t1
    4498:	00641821 	addu	v1,v1,a0
    449c:	00e53821 	addu	a3,a3,a1
    44a0:	000b2100 	sll	a0,t3,0x4
    44a4:	8cc50000 	lw	a1,0(a2)
    44a8:	000b1080 	sll	v0,t3,0x2
    44ac:	00671821 	addu	v1,v1,a3
    44b0:	00441021 	addu	v0,v0,a0
    44b4:	00651821 	addu	v1,v1,a1
    44b8:	03225823 	subu	t3,t9,v0
    44bc:	08001231 	j	48c4 <temperature+0xf10>
    44c0:	acc30000 	sw	v1,0(a2)
    44c4:	8fae0018 	lw	t6,24(sp)
    44c8:	3c0d6666 	lui	t5,0x6666
    44cc:	35ad6667 	ori	t5,t5,0x6667
    44d0:	000e1100 	sll	v0,t6,0x4
    44d4:	032d0018 	mult	t9,t5
    44d8:	005f2821 	addu	a1,v0,ra
    44dc:	01ff3021 	addu	a2,t7,ra
    44e0:	25842fe4 	addiu	a0,t4,12260
    44e4:	00584021 	addu	t0,v0,t8
    44e8:	01f83821 	addu	a3,t7,t8
    44ec:	00052880 	sll	a1,a1,0x2
    44f0:	00063080 	sll	a2,a2,0x2
    44f4:	01f61821 	addu	v1,t7,s6
    44f8:	00561021 	addu	v0,v0,s6
    44fc:	00a42821 	addu	a1,a1,a0
    4500:	00c43021 	addu	a2,a2,a0
    4504:	00073880 	sll	a3,a3,0x2
    4508:	00084080 	sll	t0,t0,0x2
    450c:	00021080 	sll	v0,v0,0x2
    4510:	00031880 	sll	v1,v1,0x2
    4514:	00e43821 	addu	a3,a3,a0
    4518:	01044021 	addu	t0,t0,a0
    451c:	00641821 	addu	v1,v1,a0
    4520:	8ca50000 	lw	a1,0(a1)
    4524:	8cc60000 	lw	a2,0(a2)
    4528:	00441021 	addu	v0,v0,a0
    452c:	8ce70000 	lw	a3,0(a3)
    4530:	8d080000 	lw	t0,0(t0)
    4534:	8c420000 	lw	v0,0(v0)
    4538:	8c630000 	lw	v1,0(v1)
    453c:	00052180 	sll	a0,a1,0x6
    4540:	00065180 	sll	t2,a2,0x6
    4544:	00052900 	sll	a1,a1,0x4
    4548:	00063100 	sll	a2,a2,0x4
    454c:	00852023 	subu	a0,a0,a1
    4550:	01465023 	subu	t2,t2,a2
    4554:	00075980 	sll	t3,a3,0x6
    4558:	00086180 	sll	t4,t0,0x6
    455c:	00073900 	sll	a3,a3,0x4
    4560:	00084100 	sll	t0,t0,0x4
    4564:	00023180 	sll	a2,v0,0x6
    4568:	00034980 	sll	t1,v1,0x6
    456c:	00021100 	sll	v0,v0,0x4
    4570:	00031900 	sll	v1,v1,0x4
    4574:	00c23023 	subu	a2,a2,v0
    4578:	01234823 	subu	t1,t1,v1
    457c:	01675823 	subu	t3,t3,a3
    4580:	01886023 	subu	t4,t4,t0
    4584:	00041900 	sll	v1,a0,0x4
    4588:	000a2900 	sll	a1,t2,0x4
    458c:	8fae002c 	lw	t6,44(sp)
    4590:	000b3900 	sll	a3,t3,0x4
    4594:	00641823 	subu	v1,v1,a0
    4598:	00aa2823 	subu	a1,a1,t2
    459c:	00092100 	sll	a0,t1,0x4
    45a0:	00065100 	sll	t2,a2,0x4
    45a4:	000c4100 	sll	t0,t4,0x4
    45a8:	01d41021 	addu	v0,t6,s4
    45ac:	01465023 	subu	t2,t2,a2
    45b0:	00eb3823 	subu	a3,a3,t3
    45b4:	00892023 	subu	a0,a0,t1
    45b8:	010c4023 	subu	t0,t0,t4
    45bc:	3c090005 	lui	t1,0x5
    45c0:	2526bbd0 	addiu	a2,t1,-17456
    45c4:	00431821 	addu	v1,v0,v1
    45c8:	00452821 	addu	a1,v0,a1
    45cc:	00473821 	addu	a3,v0,a3
    45d0:	00484021 	addu	t0,v0,t0
    45d4:	00442021 	addu	a0,v0,a0
    45d8:	004a1021 	addu	v0,v0,t2
    45dc:	8faa0028 	lw	t2,40(sp)
    45e0:	00a62821 	addu	a1,a1,a2
    45e4:	00e63821 	addu	a3,a3,a2
    45e8:	00461021 	addu	v0,v0,a2
    45ec:	00661821 	addu	v1,v1,a2
    45f0:	01064021 	addu	t0,t0,a2
    45f4:	00862021 	addu	a0,a0,a2
    45f8:	00006810 	mfhi	t5
    45fc:	03d74821 	addu	t1,s8,s7
    4600:	012a4821 	addu	t1,t1,t2
    4604:	3c0b0005 	lui	t3,0x5
    4608:	8caa0004 	lw	t2,4(a1)
    460c:	000d68c3 	sra	t5,t5,0x3
    4610:	8ce50010 	lw	a1,16(a3)
    4614:	8c630000 	lw	v1,0(v1)
    4618:	8c470018 	lw	a3,24(v0)
    461c:	8d08000c 	lw	t0,12(t0)
    4620:	001917c3 	sra	v0,t9,0x1f
    4624:	8c84001c 	lw	a0,28(a0)
    4628:	25661900 	addiu	a2,t3,6400
    462c:	00094880 	sll	t1,t1,0x2
    4630:	01a25823 	subu	t3,t5,v0
    4634:	01264821 	addu	t1,t1,a2
    4638:	006a1821 	addu	v1,v1,t2
    463c:	00a82821 	addu	a1,a1,t0
    4640:	00a42821 	addu	a1,a1,a0
    4644:	8d260000 	lw	a2,0(t1)
    4648:	000b2100 	sll	a0,t3,0x4
    464c:	000b1080 	sll	v0,t3,0x2
    4650:	00671821 	addu	v1,v1,a3
    4654:	00651821 	addu	v1,v1,a1
    4658:	00441021 	addu	v0,v0,a0
    465c:	00661821 	addu	v1,v1,a2
    4660:	03225823 	subu	t3,t9,v0
    4664:	08001231 	j	48c4 <temperature+0xf10>
    4668:	ad230000 	sw	v1,0(t1)
    466c:	8fae0018 	lw	t6,24(sp)
    4670:	8fa20014 	lw	v0,20(sp)
    4674:	000e1900 	sll	v1,t6,0x4
    4678:	007f2021 	addu	a0,v1,ra
    467c:	00023100 	sll	a2,v0,0x4
    4680:	00042080 	sll	a0,a0,0x2
    4684:	25822fe4 	addiu	v0,t4,12260
    4688:	00822021 	addu	a0,a0,v0
    468c:	01ff2821 	addu	a1,t7,ra
    4690:	00783821 	addu	a3,v1,t8
    4694:	00df4021 	addu	t0,a2,ra
    4698:	3c156666 	lui	s5,0x6666
    469c:	8c8b0000 	lw	t3,0(a0)
    46a0:	01f85021 	addu	t2,t7,t8
    46a4:	00d84821 	addu	t1,a2,t8
    46a8:	36b56667 	ori	s5,s5,0x6667
    46ac:	01f62021 	addu	a0,t7,s6
    46b0:	00052880 	sll	a1,a1,0x2
    46b4:	00073880 	sll	a3,a3,0x2
    46b8:	00084080 	sll	t0,t0,0x2
    46bc:	00761821 	addu	v1,v1,s6
    46c0:	00d63021 	addu	a2,a2,s6
    46c4:	00a22821 	addu	a1,a1,v0
    46c8:	00e23821 	addu	a3,a3,v0
    46cc:	01024021 	addu	t0,t0,v0
    46d0:	000a5080 	sll	t2,t2,0x2
    46d4:	03350018 	mult	t9,s5
    46d8:	00094880 	sll	t1,t1,0x2
    46dc:	00031880 	sll	v1,v1,0x2
    46e0:	00042080 	sll	a0,a0,0x2
    46e4:	00063080 	sll	a2,a2,0x2
    46e8:	01224821 	addu	t1,t1,v0
    46ec:	00621821 	addu	v1,v1,v0
    46f0:	00822021 	addu	a0,a0,v0
    46f4:	8ca50000 	lw	a1,0(a1)
    46f8:	01425021 	addu	t2,t2,v0
    46fc:	8ce70000 	lw	a3,0(a3)
    4700:	8d080000 	lw	t0,0(t0)
    4704:	00c23021 	addu	a2,a2,v0
    4708:	000b1180 	sll	v0,t3,0x6
    470c:	000b5900 	sll	t3,t3,0x4
    4710:	004b1023 	subu	v0,v0,t3
    4714:	8c8e0000 	lw	t6,0(a0)
    4718:	8d4a0000 	lw	t2,0(t2)
    471c:	8d2c0000 	lw	t4,0(t1)
    4720:	8c6d0000 	lw	t5,0(v1)
    4724:	00077980 	sll	t7,a3,0x6
    4728:	00051980 	sll	v1,a1,0x6
    472c:	00088180 	sll	s0,t0,0x6
    4730:	00052900 	sll	a1,a1,0x4
    4734:	00073900 	sll	a3,a3,0x4
    4738:	00084100 	sll	t0,t0,0x4
    473c:	00022100 	sll	a0,v0,0x4
    4740:	01e77823 	subu	t7,t7,a3
    4744:	02088023 	subu	s0,s0,t0
    4748:	00651823 	subu	v1,v1,a1
    474c:	8cc60000 	lw	a2,0(a2)
    4750:	000a8980 	sll	s1,t2,0x6
    4754:	8fa7002c 	lw	a3,44(sp)
    4758:	000a5100 	sll	t2,t2,0x4
    475c:	00822023 	subu	a0,a0,v0
    4760:	000e1180 	sll	v0,t6,0x6
    4764:	000e7100 	sll	t6,t6,0x4
    4768:	004e1023 	subu	v0,v0,t6
    476c:	022a8823 	subu	s1,s1,t2
    4770:	000c9180 	sll	s2,t4,0x6
    4774:	000d9980 	sll	s3,t5,0x6
    4778:	000c6100 	sll	t4,t4,0x4
    477c:	00032900 	sll	a1,v1,0x4
    4780:	000d6900 	sll	t5,t5,0x4
    4784:	00105100 	sll	t2,s0,0x4
    4788:	00f44821 	addu	t1,a3,s4
    478c:	024c9023 	subu	s2,s2,t4
    4790:	026d9823 	subu	s3,s3,t5
    4794:	00a32823 	subu	a1,a1,v1
    4798:	0006a180 	sll	s4,a2,0x6
    479c:	000f1900 	sll	v1,t7,0x4
    47a0:	00063100 	sll	a2,a2,0x4
    47a4:	01505023 	subu	t2,t2,s0
    47a8:	3c080005 	lui	t0,0x5
    47ac:	00026100 	sll	t4,v0,0x4
    47b0:	00115900 	sll	t3,s1,0x4
    47b4:	3c0d0005 	lui	t5,0x5
    47b8:	250ebbd0 	addiu	t6,t0,-17456
    47bc:	25addac0 	addiu	t5,t5,-9536
    47c0:	0286a023 	subu	s4,s4,a2
    47c4:	006f1823 	subu	v1,v1,t7
    47c8:	01242021 	addu	a0,t1,a0
    47cc:	01252821 	addu	a1,t1,a1
    47d0:	012a5021 	addu	t2,t1,t2
    47d4:	01826023 	subu	t4,t4,v0
    47d8:	01715823 	subu	t3,t3,s1
    47dc:	00123900 	sll	a3,s2,0x4
    47e0:	00134100 	sll	t0,s3,0x4
    47e4:	3c020005 	lui	v0,0x5
    47e8:	00ae2821 	addu	a1,a1,t6
    47ec:	01231821 	addu	v1,t1,v1
    47f0:	012b5821 	addu	t3,t1,t3
    47f4:	24429ce0 	addiu	v0,v0,-25376
    47f8:	014d5021 	addu	t2,t2,t5
    47fc:	00f23823 	subu	a3,a3,s2
    4800:	01134023 	subu	t0,t0,s3
    4804:	008d2021 	addu	a0,a0,t5
    4808:	00143100 	sll	a2,s4,0x4
    480c:	01625821 	addu	t3,t3,v0
    4810:	01273821 	addu	a3,t1,a3
    4814:	8caf001c 	lw	t7,28(a1)
    4818:	01284021 	addu	t0,t1,t0
    481c:	8d500018 	lw	s0,24(t2)
    4820:	00d43023 	subu	a2,a2,s4
    4824:	8faa0028 	lw	t2,40(sp)
    4828:	006e1821 	addu	v1,v1,t6
    482c:	8c840020 	lw	a0,32(a0)
    4830:	8d620010 	lw	v0,16(t3)
    4834:	01263021 	addu	a2,t1,a2
    4838:	00ee3821 	addu	a3,a3,t6
    483c:	03d72821 	addu	a1,s8,s7
    4840:	8c630014 	lw	v1,20(v1)
    4844:	012c4821 	addu	t1,t1,t4
    4848:	010d4021 	addu	t0,t0,t5
    484c:	00aa2821 	addu	a1,a1,t2
    4850:	3c0b0005 	lui	t3,0x5
    4854:	8cea000c 	lw	t2,12(a3)
    4858:	008f2021 	addu	a0,a0,t7
    485c:	00cd3021 	addu	a2,a2,t5
    4860:	012e4821 	addu	t1,t1,t6
    4864:	8d080008 	lw	t0,8(t0)
    4868:	00822021 	addu	a0,a0,v0
    486c:	8cc60000 	lw	a2,0(a2)
    4870:	25621900 	addiu	v0,t3,6400
    4874:	0000a810 	mfhi	s5
    4878:	00701821 	addu	v1,v1,s0
    487c:	00052880 	sll	a1,a1,0x2
    4880:	8d270004 	lw	a3,4(t1)
    4884:	00a22821 	addu	a1,a1,v0
    4888:	006a1821 	addu	v1,v1,t2
    488c:	001917c3 	sra	v0,t9,0x1f
    4890:	00882021 	addu	a0,a0,t0
    4894:	0015a8c3 	sra	s5,s5,0x3
    4898:	02a25823 	subu	t3,s5,v0
    489c:	00862021 	addu	a0,a0,a2
    48a0:	00671821 	addu	v1,v1,a3
    48a4:	8ca60000 	lw	a2,0(a1)
    48a8:	00641821 	addu	v1,v1,a0
    48ac:	000b1080 	sll	v0,t3,0x2
    48b0:	000b2100 	sll	a0,t3,0x4
    48b4:	00661821 	addu	v1,v1,a2
    48b8:	00441021 	addu	v0,v0,a0
    48bc:	aca30000 	sw	v1,0(a1)
    48c0:	03225823 	subu	t3,t9,v0
    48c4:	8fac0024 	lw	t4,36(sp)
    48c8:	24020013 	li	v0,19
    48cc:	258c0001 	addiu	t4,t4,1
    48d0:	1582fc86 	bne	t4,v0,3aec <temperature+0x138>
    48d4:	afac0024 	sw	t4,36(sp)
    48d8:	8fae001c 	lw	t6,28(sp)
    48dc:	3c040005 	lui	a0,0x5
    48e0:	2dc20009 	sltiu	v0,t6,9
    48e4:	10400356 	beqz	v0,5640 <temperature+0x1c8c>
    48e8:	ac8b2f80 	sw	t3,12160(a0)
    48ec:	3c030000 	lui	v1,0x0
    48f0:	24637154 	addiu	v1,v1,29012
    48f4:	000e1080 	sll	v0,t6,0x2
    48f8:	00431021 	addu	v0,v0,v1
    48fc:	8fa30020 	lw	v1,32(sp)
    4900:	8c420000 	lw	v0,0(v0)
    4904:	00037900 	sll	t7,v1,0x4
    4908:	25790001 	addiu	t9,t3,1
    490c:	000bf080 	sll	s8,t3,0x2
    4910:	000bb940 	sll	s7,t3,0x5
    4914:	00400008 	jr	v0
    4918:	3c0c0005 	lui	t4,0x5
    491c:	8fa30014 	lw	v1,20(sp)
    4920:	3c056666 	lui	a1,0x6666
    4924:	00031100 	sll	v0,v1,0x4
    4928:	34a56667 	ori	a1,a1,0x6667
    492c:	01f82021 	addu	a0,t7,t8
    4930:	25832fe4 	addiu	v1,t4,12260
    4934:	00583021 	addu	a2,v0,t8
    4938:	03250018 	mult	t9,a1
    493c:	01f63821 	addu	a3,t7,s6
    4940:	00561021 	addu	v0,v0,s6
    4944:	00042080 	sll	a0,a0,0x2
    4948:	00832021 	addu	a0,a0,v1
    494c:	00063080 	sll	a2,a2,0x2
    4950:	00021080 	sll	v0,v0,0x2
    4954:	00073880 	sll	a3,a3,0x2
    4958:	00e33821 	addu	a3,a3,v1
    495c:	00c33021 	addu	a2,a2,v1
    4960:	00431021 	addu	v0,v0,v1
    4964:	8c830000 	lw	v1,0(a0)
    4968:	8c420000 	lw	v0,0(v0)
    496c:	8cc40000 	lw	a0,0(a2)
    4970:	8ce60000 	lw	a2,0(a3)
    4974:	00033980 	sll	a3,v1,0x6
    4978:	00031900 	sll	v1,v1,0x4
    497c:	00e33823 	subu	a3,a3,v1
    4980:	00044180 	sll	t0,a0,0x6
    4984:	00024980 	sll	t1,v0,0x6
    4988:	00042100 	sll	a0,a0,0x4
    498c:	00021100 	sll	v0,v0,0x4
    4990:	01044023 	subu	t0,t0,a0
    4994:	01224823 	subu	t1,t1,v0
    4998:	00065180 	sll	t2,a2,0x6
    499c:	00071900 	sll	v1,a3,0x4
    49a0:	00063100 	sll	a2,a2,0x4
    49a4:	3c020005 	lui	v0,0x5
    49a8:	01465023 	subu	t2,t2,a2
    49ac:	00671823 	subu	v1,v1,a3
    49b0:	00083100 	sll	a2,t0,0x4
    49b4:	2442dac0 	addiu	v0,v0,-9536
    49b8:	00095900 	sll	t3,t1,0x4
    49bc:	000a6100 	sll	t4,t2,0x4
    49c0:	00c83023 	subu	a2,a2,t0
    49c4:	00621821 	addu	v1,v1,v0
    49c8:	3c080005 	lui	t0,0x5
    49cc:	3c020005 	lui	v0,0x5
    49d0:	2507bbd0 	addiu	a3,t0,-17456
    49d4:	01695823 	subu	t3,t3,t1
    49d8:	018a6023 	subu	t4,t4,t2
    49dc:	24429ce0 	addiu	v0,v0,-25376
    49e0:	8fa90028 	lw	t1,40(sp)
    49e4:	00c73021 	addu	a2,a2,a3
    49e8:	01625821 	addu	t3,t3,v0
    49ec:	03d72021 	addu	a0,s8,s7
    49f0:	01876021 	addu	t4,t4,a3
    49f4:	00892021 	addu	a0,a0,t1
    49f8:	3c0a0005 	lui	t2,0x5
    49fc:	8cc902b8 	lw	t1,696(a2)
    4a00:	8c6202bc 	lw	v0,700(v1)
    4a04:	8d6602ac 	lw	a2,684(t3)
    4a08:	8d8702b0 	lw	a3,688(t4)
    4a0c:	00002810 	mfhi	a1
    4a10:	00042080 	sll	a0,a0,0x2
    4a14:	0800136c 	j	4db0 <temperature+0x13fc>
    4a18:	25482440 	addiu	t0,t2,9280
    4a1c:	8fa30018 	lw	v1,24(sp)
    4a20:	3c046666 	lui	a0,0x6666
    4a24:	00031100 	sll	v0,v1,0x4
    4a28:	34846667 	ori	a0,a0,0x6667
    4a2c:	01f82821 	addu	a1,t7,t8
    4a30:	25832fe4 	addiu	v1,t4,12260
    4a34:	00563821 	addu	a3,v0,s6
    4a38:	03240018 	mult	t9,a0
    4a3c:	01f63021 	addu	a2,t7,s6
    4a40:	00581021 	addu	v0,v0,t8
    4a44:	00052880 	sll	a1,a1,0x2
    4a48:	00a32821 	addu	a1,a1,v1
    4a4c:	00021080 	sll	v0,v0,0x2
    4a50:	00063080 	sll	a2,a2,0x2
    4a54:	00073880 	sll	a3,a3,0x2
    4a58:	00e33821 	addu	a3,a3,v1
    4a5c:	00c33021 	addu	a2,a2,v1
    4a60:	00431021 	addu	v0,v0,v1
    4a64:	8ca30000 	lw	v1,0(a1)
    4a68:	8c420000 	lw	v0,0(v0)
    4a6c:	8cc50000 	lw	a1,0(a2)
    4a70:	8ce60000 	lw	a2,0(a3)
    4a74:	00034180 	sll	t0,v1,0x6
    4a78:	00031900 	sll	v1,v1,0x4
    4a7c:	01034023 	subu	t0,t0,v1
    4a80:	00023980 	sll	a3,v0,0x6
    4a84:	00065180 	sll	t2,a2,0x6
    4a88:	00021100 	sll	v0,v0,0x4
    4a8c:	00063100 	sll	a2,a2,0x4
    4a90:	00e23823 	subu	a3,a3,v0
    4a94:	01465023 	subu	t2,t2,a2
    4a98:	00054980 	sll	t1,a1,0x6
    4a9c:	00083100 	sll	a2,t0,0x4
    4aa0:	00052900 	sll	a1,a1,0x4
    4aa4:	3c020005 	lui	v0,0x5
    4aa8:	01254823 	subu	t1,t1,a1
    4aac:	00c83023 	subu	a2,a2,t0
    4ab0:	2442dac0 	addiu	v0,v0,-9536
    4ab4:	00c23021 	addu	a2,a2,v0
    4ab8:	00071900 	sll	v1,a3,0x4
    4abc:	00095900 	sll	t3,t1,0x4
    4ac0:	000a6100 	sll	t4,t2,0x4
    4ac4:	3c080005 	lui	t0,0x5
    4ac8:	3c020005 	lui	v0,0x5
    4acc:	00671823 	subu	v1,v1,a3
    4ad0:	01695823 	subu	t3,t3,t1
    4ad4:	2507bbd0 	addiu	a3,t0,-17456
    4ad8:	018a6023 	subu	t4,t4,t2
    4adc:	24429ce0 	addiu	v0,v0,-25376
    4ae0:	8fa90028 	lw	t1,40(sp)
    4ae4:	01675821 	addu	t3,t3,a3
    4ae8:	01826021 	addu	t4,t4,v0
    4aec:	00671821 	addu	v1,v1,a3
    4af0:	03d72821 	addu	a1,s8,s7
    4af4:	00a92821 	addu	a1,a1,t1
    4af8:	3c0a0005 	lui	t2,0x5
    4afc:	8cc902bc 	lw	t1,700(a2)
    4b00:	8c6202c0 	lw	v0,704(v1)
    4b04:	8d6602c8 	lw	a2,712(t3)
    4b08:	8d8702b4 	lw	a3,692(t4)
    4b0c:	00002010 	mfhi	a0
    4b10:	00052880 	sll	a1,a1,0x2
    4b14:	080013bc 	j	4ef0 <temperature+0x153c>
    4b18:	25482440 	addiu	t0,t2,9280
    4b1c:	3c076666 	lui	a3,0x6666
    4b20:	34e76667 	ori	a3,a3,0x6667
    4b24:	8fa30018 	lw	v1,24(sp)
    4b28:	8fa40014 	lw	a0,20(sp)
    4b2c:	03270018 	mult	t9,a3
    4b30:	00031100 	sll	v0,v1,0x4
    4b34:	00041900 	sll	v1,a0,0x4
    4b38:	00564021 	addu	t0,v0,s6
    4b3c:	00784821 	addu	t1,v1,t8
    4b40:	01f83021 	addu	a2,t7,t8
    4b44:	01f62821 	addu	a1,t7,s6
    4b48:	00581021 	addu	v0,v0,t8
    4b4c:	25842fe4 	addiu	a0,t4,12260
    4b50:	00761821 	addu	v1,v1,s6
    4b54:	00021080 	sll	v0,v0,0x2
    4b58:	00063080 	sll	a2,a2,0x2
    4b5c:	00084080 	sll	t0,t0,0x2
    4b60:	00094880 	sll	t1,t1,0x2
    4b64:	00052880 	sll	a1,a1,0x2
    4b68:	00441021 	addu	v0,v0,a0
    4b6c:	00c43021 	addu	a2,a2,a0
    4b70:	01044021 	addu	t0,t0,a0
    4b74:	01244821 	addu	t1,t1,a0
    4b78:	00a42821 	addu	a1,a1,a0
    4b7c:	00031880 	sll	v1,v1,0x2
    4b80:	00641821 	addu	v1,v1,a0
    4b84:	8c420000 	lw	v0,0(v0)
    4b88:	8ca40000 	lw	a0,0(a1)
    4b8c:	8cc60000 	lw	a2,0(a2)
    4b90:	8d080000 	lw	t0,0(t0)
    4b94:	8d290000 	lw	t1,0(t1)
    4b98:	8c630000 	lw	v1,0(v1)
    4b9c:	00026980 	sll	t5,v0,0x6
    4ba0:	00067180 	sll	t6,a2,0x6
    4ba4:	00087980 	sll	t7,t0,0x6
    4ba8:	00098180 	sll	s0,t1,0x6
    4bac:	00021100 	sll	v0,v0,0x4
    4bb0:	00063100 	sll	a2,a2,0x4
    4bb4:	00084100 	sll	t0,t0,0x4
    4bb8:	00094900 	sll	t1,t1,0x4
    4bbc:	00045980 	sll	t3,a0,0x6
    4bc0:	00042100 	sll	a0,a0,0x4
    4bc4:	01c67023 	subu	t6,t6,a2
    4bc8:	01645823 	subu	t3,t3,a0
    4bcc:	01e87823 	subu	t7,t7,t0
    4bd0:	02098023 	subu	s0,s0,t1
    4bd4:	01a26823 	subu	t5,t5,v0
    4bd8:	00036180 	sll	t4,v1,0x6
    4bdc:	3c060005 	lui	a2,0x5
    4be0:	00031900 	sll	v1,v1,0x4
    4be4:	01836023 	subu	t4,t4,v1
    4be8:	000e2900 	sll	a1,t6,0x4
    4bec:	24c3bbd0 	addiu	v1,a2,-17456
    4bf0:	000d1100 	sll	v0,t5,0x4
    4bf4:	000b3100 	sll	a2,t3,0x4
    4bf8:	000f4900 	sll	t1,t7,0x4
    4bfc:	00105100 	sll	t2,s0,0x4
    4c00:	00ae2823 	subu	a1,a1,t6
    4c04:	000c4100 	sll	t0,t4,0x4
    4c08:	00cb3023 	subu	a2,a2,t3
    4c0c:	004d1023 	subu	v0,v0,t5
    4c10:	8fab0028 	lw	t3,40(sp)
    4c14:	012f4823 	subu	t1,t1,t7
    4c18:	01505023 	subu	t2,t2,s0
    4c1c:	00a32821 	addu	a1,a1,v1
    4c20:	01234821 	addu	t1,t1,v1
    4c24:	010c4023 	subu	t0,t0,t4
    4c28:	00431021 	addu	v0,v0,v1
    4c2c:	01435021 	addu	t2,t2,v1
    4c30:	03d72021 	addu	a0,s8,s7
    4c34:	01034021 	addu	t0,t0,v1
    4c38:	008b2021 	addu	a0,a0,t3
    4c3c:	00c33021 	addu	a2,a2,v1
    4c40:	8cab02bc 	lw	t3,700(a1)
    4c44:	00003810 	mfhi	a3
    4c48:	8d2502c4 	lw	a1,708(t1)
    4c4c:	8c4202b8 	lw	v0,696(v0)
    4c50:	8d4a02c0 	lw	t2,704(t2)
    4c54:	3c0c0005 	lui	t4,0x5
    4c58:	8cc602c8 	lw	a2,712(a2)
    4c5c:	00191fc3 	sra	v1,t9,0x1f
    4c60:	00042080 	sll	a0,a0,0x2
    4c64:	25892440 	addiu	t1,t4,9280
    4c68:	8d0802cc 	lw	t0,716(t0)
    4c6c:	000738c3 	sra	a3,a3,0x3
    4c70:	00892021 	addu	a0,a0,t1
    4c74:	00e33823 	subu	a3,a3,v1
    4c78:	004b1021 	addu	v0,v0,t3
    4c7c:	00aa2821 	addu	a1,a1,t2
    4c80:	00461021 	addu	v0,v0,a2
    4c84:	00071900 	sll	v1,a3,0x4
    4c88:	8c860000 	lw	a2,0(a0)
    4c8c:	00a82821 	addu	a1,a1,t0
    4c90:	00073880 	sll	a3,a3,0x2
    4c94:	00451021 	addu	v0,v0,a1
    4c98:	00e33821 	addu	a3,a3,v1
    4c9c:	00461021 	addu	v0,v0,a2
    4ca0:	03273823 	subu	a3,t9,a3
    4ca4:	3c0e0005 	lui	t6,0x5
    4ca8:	ac820000 	sw	v0,0(a0)
    4cac:	08001590 	j	5640 <temperature+0x1c8c>
    4cb0:	adc72f80 	sw	a3,12160(t6)
    4cb4:	8fa30014 	lw	v1,20(sp)
    4cb8:	3c056666 	lui	a1,0x6666
    4cbc:	00031100 	sll	v0,v1,0x4
    4cc0:	34a56667 	ori	a1,a1,0x6667
    4cc4:	005f3021 	addu	a2,v0,ra
    4cc8:	01ff2021 	addu	a0,t7,ra
    4ccc:	25832fe4 	addiu	v1,t4,12260
    4cd0:	03250018 	mult	t9,a1
    4cd4:	01f83821 	addu	a3,t7,t8
    4cd8:	00581021 	addu	v0,v0,t8
    4cdc:	00042080 	sll	a0,a0,0x2
    4ce0:	00063080 	sll	a2,a2,0x2
    4ce4:	00c33021 	addu	a2,a2,v1
    4ce8:	00832021 	addu	a0,a0,v1
    4cec:	00021080 	sll	v0,v0,0x2
    4cf0:	00073880 	sll	a3,a3,0x2
    4cf4:	00e33821 	addu	a3,a3,v1
    4cf8:	00431021 	addu	v0,v0,v1
    4cfc:	8c830000 	lw	v1,0(a0)
    4d00:	8cc40000 	lw	a0,0(a2)
    4d04:	8c420000 	lw	v0,0(v0)
    4d08:	8ce60000 	lw	a2,0(a3)
    4d0c:	00044180 	sll	t0,a0,0x6
    4d10:	00042100 	sll	a0,a0,0x4
    4d14:	01044023 	subu	t0,t0,a0
    4d18:	00024980 	sll	t1,v0,0x6
    4d1c:	00065180 	sll	t2,a2,0x6
    4d20:	00021100 	sll	v0,v0,0x4
    4d24:	00063100 	sll	a2,a2,0x4
    4d28:	01224823 	subu	t1,t1,v0
    4d2c:	01465023 	subu	t2,t2,a2
    4d30:	00033980 	sll	a3,v1,0x6
    4d34:	00083100 	sll	a2,t0,0x4
    4d38:	00031900 	sll	v1,v1,0x4
    4d3c:	3c020005 	lui	v0,0x5
    4d40:	00e33823 	subu	a3,a3,v1
    4d44:	00c83023 	subu	a2,a2,t0
    4d48:	24429ce0 	addiu	v0,v0,-25376
    4d4c:	00c23021 	addu	a2,a2,v0
    4d50:	00071900 	sll	v1,a3,0x4
    4d54:	00095900 	sll	t3,t1,0x4
    4d58:	000a6100 	sll	t4,t2,0x4
    4d5c:	3c080005 	lui	t0,0x5
    4d60:	3c020005 	lui	v0,0x5
    4d64:	00671823 	subu	v1,v1,a3
    4d68:	01695823 	subu	t3,t3,t1
    4d6c:	2507bbd0 	addiu	a3,t0,-17456
    4d70:	018a6023 	subu	t4,t4,t2
    4d74:	2442dac0 	addiu	v0,v0,-9536
    4d78:	8fa90028 	lw	t1,40(sp)
    4d7c:	01675821 	addu	t3,t3,a3
    4d80:	01826021 	addu	t4,t4,v0
    4d84:	00671821 	addu	v1,v1,a3
    4d88:	03d72021 	addu	a0,s8,s7
    4d8c:	00892021 	addu	a0,a0,t1
    4d90:	3c0a0005 	lui	t2,0x5
    4d94:	8cc902c4 	lw	t1,708(a2)
    4d98:	8c6202c8 	lw	v0,712(v1)
    4d9c:	8d6602b8 	lw	a2,696(t3)
    4da0:	8d8702bc 	lw	a3,700(t4)
    4da4:	00002810 	mfhi	a1
    4da8:	00042080 	sll	a0,a0,0x2
    4dac:	25482440 	addiu	t0,t2,9280
    4db0:	00191fc3 	sra	v1,t9,0x1f
    4db4:	000528c3 	sra	a1,a1,0x3
    4db8:	00882021 	addu	a0,a0,t0
    4dbc:	00a32823 	subu	a1,a1,v1
    4dc0:	00c73021 	addu	a2,a2,a3
    4dc4:	00051900 	sll	v1,a1,0x4
    4dc8:	8c870000 	lw	a3,0(a0)
    4dcc:	00491021 	addu	v0,v0,t1
    4dd0:	00052880 	sll	a1,a1,0x2
    4dd4:	00461021 	addu	v0,v0,a2
    4dd8:	00a32821 	addu	a1,a1,v1
    4ddc:	00471021 	addu	v0,v0,a3
    4de0:	03252823 	subu	a1,t9,a1
    4de4:	3c0b0005 	lui	t3,0x5
    4de8:	ac820000 	sw	v0,0(a0)
    4dec:	08001590 	j	5640 <temperature+0x1c8c>
    4df0:	ad652f80 	sw	a1,12160(t3)
    4df4:	8fa30018 	lw	v1,24(sp)
    4df8:	3c046666 	lui	a0,0x6666
    4dfc:	00031100 	sll	v0,v1,0x4
    4e00:	34846667 	ori	a0,a0,0x6667
    4e04:	00583821 	addu	a3,v0,t8
    4e08:	005f1021 	addu	v0,v0,ra
    4e0c:	25832fe4 	addiu	v1,t4,12260
    4e10:	03240018 	mult	t9,a0
    4e14:	01ff2821 	addu	a1,t7,ra
    4e18:	00021080 	sll	v0,v0,0x2
    4e1c:	00431021 	addu	v0,v0,v1
    4e20:	01f83021 	addu	a2,t7,t8
    4e24:	00052880 	sll	a1,a1,0x2
    4e28:	00a32821 	addu	a1,a1,v1
    4e2c:	8c420000 	lw	v0,0(v0)
    4e30:	00063080 	sll	a2,a2,0x2
    4e34:	00073880 	sll	a3,a3,0x2
    4e38:	00e33821 	addu	a3,a3,v1
    4e3c:	00c33021 	addu	a2,a2,v1
    4e40:	8ca30000 	lw	v1,0(a1)
    4e44:	8cc50000 	lw	a1,0(a2)
    4e48:	8ce60000 	lw	a2,0(a3)
    4e4c:	00023980 	sll	a3,v0,0x6
    4e50:	00021100 	sll	v0,v0,0x4
    4e54:	00e23823 	subu	a3,a3,v0
    4e58:	00034180 	sll	t0,v1,0x6
    4e5c:	00031900 	sll	v1,v1,0x4
    4e60:	01034023 	subu	t0,t0,v1
    4e64:	00054980 	sll	t1,a1,0x6
    4e68:	00065180 	sll	t2,a2,0x6
    4e6c:	00052900 	sll	a1,a1,0x4
    4e70:	00063100 	sll	a2,a2,0x4
    4e74:	00071900 	sll	v1,a3,0x4
    4e78:	3c020005 	lui	v0,0x5
    4e7c:	01254823 	subu	t1,t1,a1
    4e80:	01465023 	subu	t2,t2,a2
    4e84:	00671823 	subu	v1,v1,a3
    4e88:	00083100 	sll	a2,t0,0x4
    4e8c:	24429ce0 	addiu	v0,v0,-25376
    4e90:	00095900 	sll	t3,t1,0x4
    4e94:	000a6100 	sll	t4,t2,0x4
    4e98:	00c83023 	subu	a2,a2,t0
    4e9c:	00621821 	addu	v1,v1,v0
    4ea0:	3c080005 	lui	t0,0x5
    4ea4:	3c020005 	lui	v0,0x5
    4ea8:	2507bbd0 	addiu	a3,t0,-17456
    4eac:	01695823 	subu	t3,t3,t1
    4eb0:	018a6023 	subu	t4,t4,t2
    4eb4:	2442dac0 	addiu	v0,v0,-9536
    4eb8:	8fa90028 	lw	t1,40(sp)
    4ebc:	00c73021 	addu	a2,a2,a3
    4ec0:	01625821 	addu	t3,t3,v0
    4ec4:	03d72821 	addu	a1,s8,s7
    4ec8:	01876021 	addu	t4,t4,a3
    4ecc:	00a92821 	addu	a1,a1,t1
    4ed0:	3c0a0005 	lui	t2,0x5
    4ed4:	8cc902b0 	lw	t1,688(a2)
    4ed8:	8c6202ac 	lw	v0,684(v1)
    4edc:	8d6602bc 	lw	a2,700(t3)
    4ee0:	8d8702b8 	lw	a3,696(t4)
    4ee4:	00002010 	mfhi	a0
    4ee8:	00052880 	sll	a1,a1,0x2
    4eec:	25482440 	addiu	t0,t2,9280
    4ef0:	00191fc3 	sra	v1,t9,0x1f
    4ef4:	000420c3 	sra	a0,a0,0x3
    4ef8:	00a82821 	addu	a1,a1,t0
    4efc:	00832023 	subu	a0,a0,v1
    4f00:	00c73021 	addu	a2,a2,a3
    4f04:	00041900 	sll	v1,a0,0x4
    4f08:	8ca70000 	lw	a3,0(a1)
    4f0c:	00491021 	addu	v0,v0,t1
    4f10:	00042080 	sll	a0,a0,0x2
    4f14:	00461021 	addu	v0,v0,a2
    4f18:	00832021 	addu	a0,a0,v1
    4f1c:	00471021 	addu	v0,v0,a3
    4f20:	03242023 	subu	a0,t9,a0
    4f24:	3c0b0005 	lui	t3,0x5
    4f28:	aca20000 	sw	v0,0(a1)
    4f2c:	08001590 	j	5640 <temperature+0x1c8c>
    4f30:	ad642f80 	sw	a0,12160(t3)
    4f34:	8fa30018 	lw	v1,24(sp)
    4f38:	8fa40014 	lw	a0,20(sp)
    4f3c:	3c076666 	lui	a3,0x6666
    4f40:	34e76667 	ori	a3,a3,0x6667
    4f44:	00031100 	sll	v0,v1,0x4
    4f48:	03270018 	mult	t9,a3
    4f4c:	00041900 	sll	v1,a0,0x4
    4f50:	00584021 	addu	t0,v0,t8
    4f54:	007f4821 	addu	t1,v1,ra
    4f58:	01ff3021 	addu	a2,t7,ra
    4f5c:	005f1021 	addu	v0,v0,ra
    4f60:	25842fe4 	addiu	a0,t4,12260
    4f64:	01f82821 	addu	a1,t7,t8
    4f68:	00781821 	addu	v1,v1,t8
    4f6c:	00021080 	sll	v0,v0,0x2
    4f70:	00063080 	sll	a2,a2,0x2
    4f74:	00084080 	sll	t0,t0,0x2
    4f78:	00094880 	sll	t1,t1,0x2
    4f7c:	00441021 	addu	v0,v0,a0
    4f80:	00c43021 	addu	a2,a2,a0
    4f84:	01044021 	addu	t0,t0,a0
    4f88:	01244821 	addu	t1,t1,a0
    4f8c:	00052880 	sll	a1,a1,0x2
    4f90:	00031880 	sll	v1,v1,0x2
    4f94:	00641821 	addu	v1,v1,a0
    4f98:	8c420000 	lw	v0,0(v0)
    4f9c:	8cc60000 	lw	a2,0(a2)
    4fa0:	8d080000 	lw	t0,0(t0)
    4fa4:	8d290000 	lw	t1,0(t1)
    4fa8:	00a42821 	addu	a1,a1,a0
    4fac:	8ca40000 	lw	a0,0(a1)
    4fb0:	8c630000 	lw	v1,0(v1)
    4fb4:	00026180 	sll	t4,v0,0x6
    4fb8:	00066980 	sll	t5,a2,0x6
    4fbc:	00087180 	sll	t6,t0,0x6
    4fc0:	00097980 	sll	t7,t1,0x6
    4fc4:	00021100 	sll	v0,v0,0x4
    4fc8:	00063100 	sll	a2,a2,0x4
    4fcc:	00084100 	sll	t0,t0,0x4
    4fd0:	00094900 	sll	t1,t1,0x4
    4fd4:	01826023 	subu	t4,t4,v0
    4fd8:	01a66823 	subu	t5,t5,a2
    4fdc:	01c87023 	subu	t6,t6,t0
    4fe0:	01e97823 	subu	t7,t7,t1
    4fe4:	00048180 	sll	s0,a0,0x6
    4fe8:	00038980 	sll	s1,v1,0x6
    4fec:	00042100 	sll	a0,a0,0x4
    4ff0:	00031900 	sll	v1,v1,0x4
    4ff4:	02048023 	subu	s0,s0,a0
    4ff8:	02238823 	subu	s1,s1,v1
    4ffc:	000c2900 	sll	a1,t4,0x4
    5000:	000d4900 	sll	t1,t5,0x4
    5004:	000e5100 	sll	t2,t6,0x4
    5008:	3c060005 	lui	a2,0x5
    500c:	000f5900 	sll	t3,t7,0x4
    5010:	3c030005 	lui	v1,0x5
    5014:	3c020005 	lui	v0,0x5
    5018:	2463dac0 	addiu	v1,v1,-9536
    501c:	00ac2823 	subu	a1,a1,t4
    5020:	012d4823 	subu	t1,t1,t5
    5024:	24ccbbd0 	addiu	t4,a2,-17456
    5028:	014e5023 	subu	t2,t2,t6
    502c:	24429ce0 	addiu	v0,v0,-25376
    5030:	016f5823 	subu	t3,t3,t7
    5034:	00103100 	sll	a2,s0,0x4
    5038:	00114100 	sll	t0,s1,0x4
    503c:	8fae0028 	lw	t6,40(sp)
    5040:	01224821 	addu	t1,t1,v0
    5044:	01435021 	addu	t2,t2,v1
    5048:	00ac2821 	addu	a1,a1,t4
    504c:	03d72021 	addu	a0,s8,s7
    5050:	00d03023 	subu	a2,a2,s0
    5054:	016c5821 	addu	t3,t3,t4
    5058:	01114023 	subu	t0,t0,s1
    505c:	01034021 	addu	t0,t0,v1
    5060:	8ca202cc 	lw	v0,716(a1)
    5064:	8d2d02c8 	lw	t5,712(t1)
    5068:	8d4502c0 	lw	a1,704(t2)
    506c:	3c030005 	lui	v1,0x5
    5070:	008e2021 	addu	a0,a0,t6
    5074:	00cc3021 	addu	a2,a2,t4
    5078:	8d6a02c4 	lw	t2,708(t3)
    507c:	24692440 	addiu	t1,v1,9280
    5080:	8cc602bc 	lw	a2,700(a2)
    5084:	00003810 	mfhi	a3
    5088:	00042080 	sll	a0,a0,0x2
    508c:	8d0802b8 	lw	t0,696(t0)
    5090:	00892021 	addu	a0,a0,t1
    5094:	00191fc3 	sra	v1,t9,0x1f
    5098:	000738c3 	sra	a3,a3,0x3
    509c:	004d1021 	addu	v0,v0,t5
    50a0:	00aa2821 	addu	a1,a1,t2
    50a4:	00e33823 	subu	a3,a3,v1
    50a8:	00461021 	addu	v0,v0,a2
    50ac:	00a82821 	addu	a1,a1,t0
    50b0:	8c860000 	lw	a2,0(a0)
    50b4:	00071900 	sll	v1,a3,0x4
    50b8:	00451021 	addu	v0,v0,a1
    50bc:	00073880 	sll	a3,a3,0x2
    50c0:	00e33821 	addu	a3,a3,v1
    50c4:	00461021 	addu	v0,v0,a2
    50c8:	03273823 	subu	a3,t9,a3
    50cc:	ac820000 	sw	v0,0(a0)
    50d0:	3c040005 	lui	a0,0x5
    50d4:	08001590 	j	5640 <temperature+0x1c8c>
    50d8:	ac872f80 	sw	a3,12160(a0)
    50dc:	8fa30014 	lw	v1,20(sp)
    50e0:	3c066666 	lui	a2,0x6666
    50e4:	34c66667 	ori	a2,a2,0x6667
    50e8:	00031100 	sll	v0,v1,0x4
    50ec:	01ff2821 	addu	a1,t7,ra
    50f0:	03260018 	mult	t9,a2
    50f4:	25842fe4 	addiu	a0,t4,12260
    50f8:	01f84821 	addu	t1,t7,t8
    50fc:	005f4021 	addu	t0,v0,ra
    5100:	00583821 	addu	a3,v0,t8
    5104:	00052880 	sll	a1,a1,0x2
    5108:	00561021 	addu	v0,v0,s6
    510c:	00a42821 	addu	a1,a1,a0
    5110:	00084080 	sll	t0,t0,0x2
    5114:	00094880 	sll	t1,t1,0x2
    5118:	00021080 	sll	v0,v0,0x2
    511c:	01f61821 	addu	v1,t7,s6
    5120:	01044021 	addu	t0,t0,a0
    5124:	01244821 	addu	t1,t1,a0
    5128:	00441021 	addu	v0,v0,a0
    512c:	8ca50000 	lw	a1,0(a1)
    5130:	00073880 	sll	a3,a3,0x2
    5134:	00e43821 	addu	a3,a3,a0
    5138:	8d080000 	lw	t0,0(t0)
    513c:	8d290000 	lw	t1,0(t1)
    5140:	8c420000 	lw	v0,0(v0)
    5144:	00031880 	sll	v1,v1,0x2
    5148:	8ce70000 	lw	a3,0(a3)
    514c:	00641821 	addu	v1,v1,a0
    5150:	00052180 	sll	a0,a1,0x6
    5154:	00052900 	sll	a1,a1,0x4
    5158:	00852023 	subu	a0,a0,a1
    515c:	8c630000 	lw	v1,0(v1)
    5160:	00087180 	sll	t6,t0,0x6
    5164:	00098180 	sll	s0,t1,0x6
    5168:	00084100 	sll	t0,t0,0x4
    516c:	00094900 	sll	t1,t1,0x4
    5170:	00028980 	sll	s1,v0,0x6
    5174:	00021100 	sll	v0,v0,0x4
    5178:	01c87023 	subu	t6,t6,t0
    517c:	02098023 	subu	s0,s0,t1
    5180:	02228823 	subu	s1,s1,v0
    5184:	00077980 	sll	t7,a3,0x6
    5188:	00045100 	sll	t2,a0,0x4
    518c:	00073900 	sll	a3,a3,0x4
    5190:	01e77823 	subu	t7,t7,a3
    5194:	00034980 	sll	t1,v1,0x6
    5198:	000e5900 	sll	t3,t6,0x4
    519c:	00031900 	sll	v1,v1,0x4
    51a0:	01445023 	subu	t2,t2,a0
    51a4:	00106900 	sll	t5,s0,0x4
    51a8:	3c040005 	lui	a0,0x5
    51ac:	00114100 	sll	t0,s1,0x4
    51b0:	2485bbd0 	addiu	a1,a0,-17456
    51b4:	01234823 	subu	t1,t1,v1
    51b8:	016e5823 	subu	t3,t3,t6
    51bc:	000f6100 	sll	t4,t7,0x4
    51c0:	01b06823 	subu	t5,t5,s0
    51c4:	3c030005 	lui	v1,0x5
    51c8:	3c020005 	lui	v0,0x5
    51cc:	01114023 	subu	t0,t0,s1
    51d0:	2463dac0 	addiu	v1,v1,-9536
    51d4:	00093900 	sll	a3,t1,0x4
    51d8:	24429ce0 	addiu	v0,v0,-25376
    51dc:	01655821 	addu	t3,t3,a1
    51e0:	01a56821 	addu	t5,t5,a1
    51e4:	01054021 	addu	t0,t0,a1
    51e8:	018f6023 	subu	t4,t4,t7
    51ec:	8fa50028 	lw	a1,40(sp)
    51f0:	01826021 	addu	t4,t4,v0
    51f4:	01435021 	addu	t2,t2,v1
    51f8:	00e93823 	subu	a3,a3,t1
    51fc:	03d72021 	addu	a0,s8,s7
    5200:	00e33821 	addu	a3,a3,v1
    5204:	00852021 	addu	a0,a0,a1
    5208:	8d4202c8 	lw	v0,712(t2)
    520c:	8d8502b8 	lw	a1,696(t4)
    5210:	00003010 	mfhi	a2
    5214:	8d6b02c4 	lw	t3,708(t3)
    5218:	8daa02bc 	lw	t2,700(t5)
    521c:	3c0c0005 	lui	t4,0x5
    5220:	8ce702b0 	lw	a3,688(a3)
    5224:	00191fc3 	sra	v1,t9,0x1f
    5228:	00042080 	sll	a0,a0,0x2
    522c:	25892440 	addiu	t1,t4,9280
    5230:	8d0802ac 	lw	t0,684(t0)
    5234:	000630c3 	sra	a2,a2,0x3
    5238:	00892021 	addu	a0,a0,t1
    523c:	00c33023 	subu	a2,a2,v1
    5240:	004b1021 	addu	v0,v0,t3
    5244:	00aa2821 	addu	a1,a1,t2
    5248:	00471021 	addu	v0,v0,a3
    524c:	00061900 	sll	v1,a2,0x4
    5250:	8c870000 	lw	a3,0(a0)
    5254:	00a82821 	addu	a1,a1,t0
    5258:	00063080 	sll	a2,a2,0x2
    525c:	00451021 	addu	v0,v0,a1
    5260:	00c33021 	addu	a2,a2,v1
    5264:	00471021 	addu	v0,v0,a3
    5268:	03263023 	subu	a2,t9,a2
    526c:	3c0e0005 	lui	t6,0x5
    5270:	ac820000 	sw	v0,0(a0)
    5274:	08001590 	j	5640 <temperature+0x1c8c>
    5278:	adc62f80 	sw	a2,12160(t6)
    527c:	3c056666 	lui	a1,0x6666
    5280:	34a56667 	ori	a1,a1,0x6667
    5284:	8fa30018 	lw	v1,24(sp)
    5288:	03250018 	mult	t9,a1
    528c:	00031100 	sll	v0,v1,0x4
    5290:	00584021 	addu	t0,v0,t8
    5294:	01ff3821 	addu	a3,t7,ra
    5298:	005f2021 	addu	a0,v0,ra
    529c:	01f83021 	addu	a2,t7,t8
    52a0:	00561021 	addu	v0,v0,s6
    52a4:	25832fe4 	addiu	v1,t4,12260
    52a8:	01f64821 	addu	t1,t7,s6
    52ac:	00042080 	sll	a0,a0,0x2
    52b0:	00073880 	sll	a3,a3,0x2
    52b4:	00063080 	sll	a2,a2,0x2
    52b8:	00084080 	sll	t0,t0,0x2
    52bc:	00021080 	sll	v0,v0,0x2
    52c0:	00832021 	addu	a0,a0,v1
    52c4:	00e33821 	addu	a3,a3,v1
    52c8:	00c33021 	addu	a2,a2,v1
    52cc:	01034021 	addu	t0,t0,v1
    52d0:	00431021 	addu	v0,v0,v1
    52d4:	00094880 	sll	t1,t1,0x2
    52d8:	01234821 	addu	t1,t1,v1
    52dc:	8c840000 	lw	a0,0(a0)
    52e0:	8ce70000 	lw	a3,0(a3)
    52e4:	8cc60000 	lw	a2,0(a2)
    52e8:	8d080000 	lw	t0,0(t0)
    52ec:	8c420000 	lw	v0,0(v0)
    52f0:	8d230000 	lw	v1,0(t1)
    52f4:	00046980 	sll	t5,a0,0x6
    52f8:	00077180 	sll	t6,a3,0x6
    52fc:	00067980 	sll	t7,a2,0x6
    5300:	00088180 	sll	s0,t0,0x6
    5304:	00042100 	sll	a0,a0,0x4
    5308:	00073900 	sll	a3,a3,0x4
    530c:	00063100 	sll	a2,a2,0x4
    5310:	00084100 	sll	t0,t0,0x4
    5314:	00025980 	sll	t3,v0,0x6
    5318:	00021100 	sll	v0,v0,0x4
    531c:	01c77023 	subu	t6,t6,a3
    5320:	01625823 	subu	t3,t3,v0
    5324:	01a46823 	subu	t5,t5,a0
    5328:	01e67823 	subu	t7,t7,a2
    532c:	02088023 	subu	s0,s0,t0
    5330:	00036180 	sll	t4,v1,0x6
    5334:	00031900 	sll	v1,v1,0x4
    5338:	01836023 	subu	t4,t4,v1
    533c:	000e3100 	sll	a2,t6,0x4
    5340:	3c040005 	lui	a0,0x5
    5344:	000b3900 	sll	a3,t3,0x4
    5348:	000d1100 	sll	v0,t5,0x4
    534c:	000f4900 	sll	t1,t7,0x4
    5350:	00105100 	sll	t2,s0,0x4
    5354:	2483bbd0 	addiu	v1,a0,-17456
    5358:	00ce3023 	subu	a2,a2,t6
    535c:	000c4100 	sll	t0,t4,0x4
    5360:	00eb3823 	subu	a3,a3,t3
    5364:	004d1023 	subu	v0,v0,t5
    5368:	8fab0028 	lw	t3,40(sp)
    536c:	012f4823 	subu	t1,t1,t7
    5370:	01505023 	subu	t2,t2,s0
    5374:	00c33021 	addu	a2,a2,v1
    5378:	01234821 	addu	t1,t1,v1
    537c:	010c4023 	subu	t0,t0,t4
    5380:	00431021 	addu	v0,v0,v1
    5384:	01435021 	addu	t2,t2,v1
    5388:	03d72021 	addu	a0,s8,s7
    538c:	01034021 	addu	t0,t0,v1
    5390:	008b2021 	addu	a0,a0,t3
    5394:	00e33821 	addu	a3,a3,v1
    5398:	8ccb02b0 	lw	t3,688(a2)
    539c:	00002810 	mfhi	a1
    53a0:	8d2602bc 	lw	a2,700(t1)
    53a4:	8c4202ac 	lw	v0,684(v0)
    53a8:	8d4a02b8 	lw	t2,696(t2)
    53ac:	3c0c0005 	lui	t4,0x5
    53b0:	8ce702c4 	lw	a3,708(a3)
    53b4:	00191fc3 	sra	v1,t9,0x1f
    53b8:	00042080 	sll	a0,a0,0x2
    53bc:	25892440 	addiu	t1,t4,9280
    53c0:	8d0802c8 	lw	t0,712(t0)
    53c4:	000528c3 	sra	a1,a1,0x3
    53c8:	00892021 	addu	a0,a0,t1
    53cc:	00a32823 	subu	a1,a1,v1
    53d0:	004b1021 	addu	v0,v0,t3
    53d4:	00ca3021 	addu	a2,a2,t2
    53d8:	00471021 	addu	v0,v0,a3
    53dc:	00051900 	sll	v1,a1,0x4
    53e0:	8c870000 	lw	a3,0(a0)
    53e4:	00c83021 	addu	a2,a2,t0
    53e8:	00052880 	sll	a1,a1,0x2
    53ec:	00461021 	addu	v0,v0,a2
    53f0:	00a32821 	addu	a1,a1,v1
    53f4:	00471021 	addu	v0,v0,a3
    53f8:	03252823 	subu	a1,t9,a1
    53fc:	3c0e0005 	lui	t6,0x5
    5400:	ac820000 	sw	v0,0(a0)
    5404:	08001590 	j	5640 <temperature+0x1c8c>
    5408:	adc52f80 	sw	a1,12160(t6)
    540c:	8fa20018 	lw	v0,24(sp)
    5410:	8fa40014 	lw	a0,20(sp)
    5414:	00021900 	sll	v1,v0,0x4
    5418:	00044100 	sll	t0,a0,0x4
    541c:	007f2021 	addu	a0,v1,ra
    5420:	25822fe4 	addiu	v0,t4,12260
    5424:	3c0a6666 	lui	t2,0x6666
    5428:	00042080 	sll	a0,a0,0x2
    542c:	00822021 	addu	a0,a0,v0
    5430:	01ff4821 	addu	t1,t7,ra
    5434:	354a6667 	ori	t2,t2,0x6667
    5438:	01f85821 	addu	t3,t7,t8
    543c:	00782821 	addu	a1,v1,t8
    5440:	8c8c0000 	lw	t4,0(a0)
    5444:	011f3021 	addu	a2,t0,ra
    5448:	01183821 	addu	a3,t0,t8
    544c:	01f62021 	addu	a0,t7,s6
    5450:	032a0018 	mult	t9,t2
    5454:	00094880 	sll	t1,t1,0x2
    5458:	00052880 	sll	a1,a1,0x2
    545c:	000b5880 	sll	t3,t3,0x2
    5460:	00761821 	addu	v1,v1,s6
    5464:	01164021 	addu	t0,t0,s6
    5468:	01224821 	addu	t1,t1,v0
    546c:	00a22821 	addu	a1,a1,v0
    5470:	01625821 	addu	t3,t3,v0
    5474:	00063080 	sll	a2,a2,0x2
    5478:	00073880 	sll	a3,a3,0x2
    547c:	00031880 	sll	v1,v1,0x2
    5480:	00042080 	sll	a0,a0,0x2
    5484:	00084080 	sll	t0,t0,0x2
    5488:	00621821 	addu	v1,v1,v0
    548c:	00822021 	addu	a0,a0,v0
    5490:	8d290000 	lw	t1,0(t1)
    5494:	00c23021 	addu	a2,a2,v0
    5498:	8ca50000 	lw	a1,0(a1)
    549c:	8d6b0000 	lw	t3,0(t3)
    54a0:	00e23821 	addu	a3,a3,v0
    54a4:	01024021 	addu	t0,t0,v0
    54a8:	000c1180 	sll	v0,t4,0x6
    54ac:	000c6100 	sll	t4,t4,0x4
    54b0:	004c1023 	subu	v0,v0,t4
    54b4:	8c6d0000 	lw	t5,0(v1)
    54b8:	8cc60000 	lw	a2,0(a2)
    54bc:	8c900000 	lw	s0,0(a0)
    54c0:	8ce70000 	lw	a3,0(a3)
    54c4:	00091980 	sll	v1,t1,0x6
    54c8:	00058980 	sll	s1,a1,0x6
    54cc:	00094900 	sll	t1,t1,0x4
    54d0:	000b9980 	sll	s3,t3,0x6
    54d4:	00052900 	sll	a1,a1,0x4
    54d8:	000b5900 	sll	t3,t3,0x4
    54dc:	00022100 	sll	a0,v0,0x4
    54e0:	00691823 	subu	v1,v1,t1
    54e4:	02258823 	subu	s1,s1,a1
    54e8:	026b9823 	subu	s3,s3,t3
    54ec:	8d080000 	lw	t0,0(t0)
    54f0:	00069180 	sll	s2,a2,0x6
    54f4:	000da180 	sll	s4,t5,0x6
    54f8:	00063100 	sll	a2,a2,0x4
    54fc:	000d6900 	sll	t5,t5,0x4
    5500:	00822023 	subu	a0,a0,v0
    5504:	3c020005 	lui	v0,0x5
    5508:	2455bbd0 	addiu	s5,v0,-17456
    550c:	02469023 	subu	s2,s2,a2
    5510:	028da023 	subu	s4,s4,t5
    5514:	00073180 	sll	a2,a3,0x6
    5518:	00032900 	sll	a1,v1,0x4
    551c:	00073900 	sll	a3,a3,0x4
    5520:	3c0d0005 	lui	t5,0x5
    5524:	00114900 	sll	t1,s1,0x4
    5528:	00136100 	sll	t4,s3,0x4
    552c:	3c020005 	lui	v0,0x5
    5530:	25addac0 	addiu	t5,t5,-9536
    5534:	00c73023 	subu	a2,a2,a3
    5538:	00a32823 	subu	a1,a1,v1
    553c:	00107180 	sll	t6,s0,0x6
    5540:	00087980 	sll	t7,t0,0x6
    5544:	00108100 	sll	s0,s0,0x4
    5548:	00084100 	sll	t0,t0,0x4
    554c:	24429ce0 	addiu	v0,v0,-25376
    5550:	00125900 	sll	t3,s2,0x4
    5554:	01314823 	subu	t1,t1,s1
    5558:	01936023 	subu	t4,t4,s3
    555c:	01d07023 	subu	t6,t6,s0
    5560:	01e87823 	subu	t7,t7,t0
    5564:	01826021 	addu	t4,t4,v0
    5568:	00b52821 	addu	a1,a1,s5
    556c:	008d2021 	addu	a0,a0,t5
    5570:	00063900 	sll	a3,a2,0x4
    5574:	01354821 	addu	t1,t1,s5
    5578:	01725823 	subu	t3,t3,s2
    557c:	00144100 	sll	t0,s4,0x4
    5580:	00e63823 	subu	a3,a3,a2
    5584:	016d5821 	addu	t3,t3,t5
    5588:	8cb002c8 	lw	s0,712(a1)
    558c:	000e1900 	sll	v1,t6,0x4
    5590:	8d2202c0 	lw	v0,704(t1)
    5594:	01144023 	subu	t0,t0,s4
    5598:	8d8902bc 	lw	t1,700(t4)
    559c:	8c8402cc 	lw	a0,716(a0)
    55a0:	8fac0028 	lw	t4,40(sp)
    55a4:	000f3100 	sll	a2,t7,0x4
    55a8:	010d4021 	addu	t0,t0,t5
    55ac:	006e1823 	subu	v1,v1,t6
    55b0:	00f53821 	addu	a3,a3,s5
    55b4:	03d72821 	addu	a1,s8,s7
    55b8:	00cf3023 	subu	a2,a2,t7
    55bc:	8d6b02c4 	lw	t3,708(t3)
    55c0:	00cd3021 	addu	a2,a2,t5
    55c4:	00ac2821 	addu	a1,a1,t4
    55c8:	8ced02b8 	lw	t5,696(a3)
    55cc:	00751821 	addu	v1,v1,s5
    55d0:	8d0c02b4 	lw	t4,692(t0)
    55d4:	00902021 	addu	a0,a0,s0
    55d8:	3c0e0005 	lui	t6,0x5
    55dc:	8c6802b0 	lw	t0,688(v1)
    55e0:	8cc602ac 	lw	a2,684(a2)
    55e4:	00005010 	mfhi	t2
    55e8:	004b1021 	addu	v0,v0,t3
    55ec:	00892021 	addu	a0,a0,t1
    55f0:	00052880 	sll	a1,a1,0x2
    55f4:	25c72440 	addiu	a3,t6,9280
    55f8:	00191fc3 	sra	v1,t9,0x1f
    55fc:	00a72821 	addu	a1,a1,a3
    5600:	000a50c3 	sra	t2,t2,0x3
    5604:	004d1021 	addu	v0,v0,t5
    5608:	008c2021 	addu	a0,a0,t4
    560c:	01435023 	subu	t2,t2,v1
    5610:	00862021 	addu	a0,a0,a2
    5614:	00481021 	addu	v0,v0,t0
    5618:	8ca60000 	lw	a2,0(a1)
    561c:	000a1900 	sll	v1,t2,0x4
    5620:	00441021 	addu	v0,v0,a0
    5624:	000a5080 	sll	t2,t2,0x2
    5628:	00461021 	addu	v0,v0,a2
    562c:	01435021 	addu	t2,t2,v1
    5630:	032a5023 	subu	t2,t9,t2
    5634:	aca20000 	sw	v0,0(a1)
    5638:	3c020005 	lui	v0,0x5
    563c:	ac4a2f80 	sw	t2,12160(v0)
    5640:	3c110005 	lui	s1,0x5
    5644:	8e292f80 	lw	t1,12160(s1)
    5648:	8fa40028 	lw	a0,40(sp)
    564c:	00091140 	sll	v0,t1,0x5
    5650:	00091880 	sll	v1,t1,0x2
    5654:	00621821 	addu	v1,v1,v0
    5658:	00641821 	addu	v1,v1,a0
    565c:	3c0a0005 	lui	t2,0x5
    5660:	254a2440 	addiu	t2,t2,9280
    5664:	00031880 	sll	v1,v1,0x2
    5668:	006a7021 	addu	t6,v1,t2
    566c:	8dc80000 	lw	t0,0(t6)
    5670:	3c068888 	lui	a2,0x8888
    5674:	34c68889 	ori	a2,a2,0x8889
    5678:	01060018 	mult	t0,a2
    567c:	3c026666 	lui	v0,0x6666
    5680:	25290001 	addiu	t1,t1,1
    5684:	34506667 	ori	s0,v0,0x6667
    5688:	3c020005 	lui	v0,0x5
    568c:	24421900 	addiu	v0,v0,6400
    5690:	00621821 	addu	v1,v1,v0
    5694:	8c650000 	lw	a1,0(v1)
    5698:	000817c3 	sra	v0,t0,0x1f
    569c:	000967c3 	sra	t4,t1,0x1f
    56a0:	ac600000 	sw	zero,0(v1)
    56a4:	8fa40010 	lw	a0,16(sp)
    56a8:	00003010 	mfhi	a2
    56ac:	00c83021 	addu	a2,a2,t0
    56b0:	00063143 	sra	a2,a2,0x5
    56b4:	01300018 	mult	t1,s0
    56b8:	00c23023 	subu	a2,a2,v0
    56bc:	00c52821 	addu	a1,a2,a1
    56c0:	3c020005 	lui	v0,0x5
    56c4:	ac462f84 	sw	a2,12164(v0)
    56c8:	00056fc3 	sra	t5,a1,0x1f
    56cc:	8c8b0000 	lw	t3,0(a0)
    56d0:	3c040000 	lui	a0,0x0
    56d4:	24846878 	addiu	a0,a0,26744
    56d8:	00003810 	mfhi	a3
    56dc:	000738c3 	sra	a3,a3,0x3
    56e0:	00ec1023 	subu	v0,a3,t4
    56e4:	00b00018 	mult	a1,s0
    56e8:	00021900 	sll	v1,v0,0x4
    56ec:	00021080 	sll	v0,v0,0x2
    56f0:	00431021 	addu	v0,v0,v1
    56f4:	01221023 	subu	v0,t1,v0
    56f8:	00021940 	sll	v1,v0,0x5
    56fc:	00021080 	sll	v0,v0,0x2
    5700:	00431021 	addu	v0,v0,v1
    5704:	8fa30028 	lw	v1,40(sp)
    5708:	00000000 	nop
    570c:	00431021 	addu	v0,v0,v1
    5710:	00021080 	sll	v0,v0,0x2
    5714:	004a1021 	addu	v0,v0,t2
    5718:	00002810 	mfhi	a1
    571c:	8c430000 	lw	v1,0(v0)
    5720:	00052883 	sra	a1,a1,0x2
    5724:	00ad2823 	subu	a1,a1,t5
    5728:	01655821 	addu	t3,t3,a1
    572c:	01034021 	addu	t0,t0,v1
    5730:	8fa50010 	lw	a1,16(sp)
    5734:	01064023 	subu	t0,t0,a2
    5738:	ac480000 	sw	t0,0(v0)
    573c:	acab0000 	sw	t3,0(a1)
    5740:	0c000361 	jal	d84 <puts>
    5744:	adc00000 	sw	zero,0(t6)
    5748:	8fa40028 	lw	a0,40(sp)
    574c:	0c00000b 	jal	2c <itoa>
    5750:	00000000 	nop
    5754:	0c000361 	jal	d84 <puts>
    5758:	00402021 	move	a0,v0
    575c:	3c040000 	lui	a0,0x0
    5760:	0c000361 	jal	d84 <puts>
    5764:	248469e8 	addiu	a0,a0,27112
    5768:	8fa60010 	lw	a2,16(sp)
    576c:	8fa70028 	lw	a3,40(sp)
    5770:	8cc40000 	lw	a0,0(a2)
    5774:	24e70001 	addiu	a3,a3,1
    5778:	0c00000b 	jal	2c <itoa>
    577c:	afa70028 	sw	a3,40(sp)
    5780:	0c000361 	jal	d84 <puts>
    5784:	00402021 	move	a0,v0
    5788:	3c040000 	lui	a0,0x0
    578c:	0c000361 	jal	d84 <puts>
    5790:	2484670c 	addiu	a0,a0,26380
    5794:	8fa80010 	lw	t0,16(sp)
    5798:	8fa90028 	lw	t1,40(sp)
    579c:	25080004 	addiu	t0,t0,4
    57a0:	24020024 	li	v0,36
    57a4:	1522f893 	bne	t1,v0,39f4 <temperature+0x40>
    57a8:	afa80010 	sw	t0,16(sp)
    57ac:	8e232f80 	lw	v1,12160(s1)
    57b0:	00000000 	nop
    57b4:	24630001 	addiu	v1,v1,1
    57b8:	00700018 	mult	v1,s0
    57bc:	000327c3 	sra	a0,v1,0x1f
    57c0:	00001010 	mfhi	v0
    57c4:	000210c3 	sra	v0,v0,0x3
    57c8:	00441023 	subu	v0,v0,a0
    57cc:	00022100 	sll	a0,v0,0x4
    57d0:	00021080 	sll	v0,v0,0x2
    57d4:	00441021 	addu	v0,v0,a0
    57d8:	00621823 	subu	v1,v1,v0
    57dc:	ae232f80 	sw	v1,12160(s1)
    57e0:	8fbf0054 	lw	ra,84(sp)
    57e4:	8fbe0050 	lw	s8,80(sp)
    57e8:	8fb7004c 	lw	s7,76(sp)
    57ec:	8fb60048 	lw	s6,72(sp)
    57f0:	8fb50044 	lw	s5,68(sp)
    57f4:	8fb40040 	lw	s4,64(sp)
    57f8:	8fb3003c 	lw	s3,60(sp)
    57fc:	8fb20038 	lw	s2,56(sp)
    5800:	8fb10034 	lw	s1,52(sp)
    5804:	8fb00030 	lw	s0,48(sp)
    5808:	03e00008 	jr	ra
    580c:	27bd0058 	addiu	sp,sp,88

00005810 <main>:
    5810:	27bdffd8 	addiu	sp,sp,-40
    5814:	3c022000 	lui	v0,0x2000
    5818:	afb10014 	sw	s1,20(sp)
    581c:	afb00010 	sw	s0,16(sp)
    5820:	afbf0020 	sw	ra,32(sp)
    5824:	afb3001c 	sw	s3,28(sp)
    5828:	afb20018 	sw	s2,24(sp)
    582c:	34420140 	ori	v0,v0,0x140
    5830:	8c420000 	lw	v0,0(v0)
    5834:	3c100005 	lui	s0,0x5
    5838:	ae021434 	sw	v0,5172(s0)
    583c:	14400011 	bnez	v0,5884 <main+0x74>
    5840:	3c110005 	lui	s1,0x5
    5844:	3c040000 	lui	a0,0x0
    5848:	0c000361 	jal	d84 <puts>
    584c:	24846798 	addiu	a0,a0,26520
    5850:	3c040000 	lui	a0,0x0
    5854:	0c000361 	jal	d84 <puts>
    5858:	24846888 	addiu	a0,a0,26760
    585c:	8e031434 	lw	v1,5172(s0)
    5860:	24020001 	li	v0,1
    5864:	a2221430 	sb	v0,5168(s1)
    5868:	3c020005 	lui	v0,0x5
    586c:	0c000662 	jal	1988 <initialize_clusters>
    5870:	a043143c 	sb	v1,5180(v0)
    5874:	0c0006a3 	jal	1a8c <initialize_slaves>
    5878:	00000000 	nop
    587c:	08001626 	j	5898 <main+0x88>
    5880:	24030004 	li	v1,4
    5884:	3c040000 	lui	a0,0x0
    5888:	0c000361 	jal	d84 <puts>
    588c:	248468a8 	addiu	a0,a0,26792
    5890:	a2201430 	sb	zero,5168(s1)
    5894:	24030004 	li	v1,4
    5898:	3c020005 	lui	v0,0x5
    589c:	ac432f8c 	sw	v1,12172(v0)
    58a0:	3c020007 	lui	v0,0x7
    58a4:	244357f8 	addiu	v1,v0,22520
    58a8:	3c020008 	lui	v0,0x8
    58ac:	24428c78 	addiu	v0,v0,-29576
    58b0:	2404ffff 	li	a0,-1
    58b4:	ac640000 	sw	a0,0(v1)
    58b8:	2463001c 	addiu	v1,v1,28
    58bc:	1462fffd 	bne	v1,v0,58b4 <main+0xa4>
    58c0:	00000000 	nop
    58c4:	3c020007 	lui	v0,0x7
    58c8:	244348f8 	addiu	v1,v0,18680
    58cc:	3c020007 	lui	v0,0x7
    58d0:	244257f8 	addiu	v0,v0,22520
    58d4:	2404ffff 	li	a0,-1
    58d8:	ac640000 	sw	a0,0(v1)
    58dc:	24630008 	addiu	v1,v1,8
    58e0:	1462fffd 	bne	v1,v0,58d8 <main+0xc8>
    58e4:	00000000 	nop
    58e8:	24030001 	li	v1,1
    58ec:	3c020007 	lui	v0,0x7
    58f0:	ac434724 	sw	v1,18212(v0)
    58f4:	3c020007 	lui	v0,0x7
    58f8:	ac4446b4 	sw	a0,18100(v0)
    58fc:	3c020007 	lui	v0,0x7
    5900:	ac4348f4 	sw	v1,18676(v0)
    5904:	3c102000 	lui	s0,0x2000
    5908:	36020020 	ori	v0,s0,0x20
    590c:	8c420000 	lw	v0,0(v0)
    5910:	00000000 	nop
    5914:	30420020 	andi	v0,v0,0x20
    5918:	10400005 	beqz	v0,5930 <main+0x120>
    591c:	00000000 	nop
    5920:	0c000a8b 	jal	2a2c <handle_packet>
    5924:	3c102000 	lui	s0,0x2000
    5928:	08001643 	j	590c <main+0xfc>
    592c:	36020020 	ori	v0,s0,0x20
    5930:	36020250 	ori	v0,s0,0x250
    5934:	8c420000 	lw	v0,0(v0)
    5938:	00000000 	nop
    593c:	1440fff1 	bnez	v0,5904 <main+0xf4>
    5940:	36120300 	ori	s2,s0,0x300
    5944:	3c130005 	lui	s3,0x5
    5948:	8e420000 	lw	v0,0(s2)
    594c:	8e63142c 	lw	v1,5164(s3)
    5950:	00000000 	nop
    5954:	0043102b 	sltu	v0,v0,v1
    5958:	1440031f 	bnez	v0,65d8 <main+0xdc8>
    595c:	3c040000 	lui	a0,0x0
    5960:	0c000361 	jal	d84 <puts>
    5964:	248468c8 	addiu	a0,a0,26824
    5968:	8e440000 	lw	a0,0(s2)
    596c:	0c00000b 	jal	2c <itoa>
    5970:	3c110000 	lui	s1,0x0
    5974:	0c000361 	jal	d84 <puts>
    5978:	00402021 	move	a0,v0
    597c:	0c000361 	jal	d84 <puts>
    5980:	2624670c 	addiu	a0,s1,26380
    5984:	0c000e6d 	jal	39b4 <temperature>
    5988:	00000000 	nop
    598c:	3c040000 	lui	a0,0x0
    5990:	0c000361 	jal	d84 <puts>
    5994:	248468e0 	addiu	a0,a0,26848
    5998:	8e440000 	lw	a0,0(s2)
    599c:	0c00000b 	jal	2c <itoa>
    59a0:	3c120005 	lui	s2,0x5
    59a4:	0c000361 	jal	d84 <puts>
    59a8:	00402021 	move	a0,v0
    59ac:	0c000361 	jal	d84 <puts>
    59b0:	2624670c 	addiu	a0,s1,26380
    59b4:	3c020005 	lui	v0,0x5
    59b8:	8c431428 	lw	v1,5160(v0)
    59bc:	8e62142c 	lw	v0,5164(s3)
    59c0:	3c040000 	lui	a0,0x0
    59c4:	265233e4 	addiu	s2,s2,13284
    59c8:	00431021 	addu	v0,v0,v1
    59cc:	248468fc 	addiu	a0,a0,26876
    59d0:	0c000361 	jal	d84 <puts>
    59d4:	ae62142c 	sw	v0,5164(s3)
    59d8:	8e440040 	lw	a0,64(s2)
    59dc:	0c00000b 	jal	2c <itoa>
    59e0:	3c100005 	lui	s0,0x5
    59e4:	0c000361 	jal	d84 <puts>
    59e8:	00402021 	move	a0,v0
    59ec:	0c000361 	jal	d84 <puts>
    59f0:	2624670c 	addiu	a0,s1,26380
    59f4:	3c040000 	lui	a0,0x0
    59f8:	0c000361 	jal	d84 <puts>
    59fc:	24846914 	addiu	a0,a0,26900
    5a00:	8e440080 	lw	a0,128(s2)
    5a04:	0c00000b 	jal	2c <itoa>
    5a08:	26102fe4 	addiu	s0,s0,12260
    5a0c:	0c000361 	jal	d84 <puts>
    5a10:	00402021 	move	a0,v0
    5a14:	0c000361 	jal	d84 <puts>
    5a18:	2624670c 	addiu	a0,s1,26380
    5a1c:	3c040000 	lui	a0,0x0
    5a20:	0c000361 	jal	d84 <puts>
    5a24:	2484692c 	addiu	a0,a0,26924
    5a28:	8e4400c0 	lw	a0,192(s2)
    5a2c:	0c00000b 	jal	2c <itoa>
    5a30:	00000000 	nop
    5a34:	0c000361 	jal	d84 <puts>
    5a38:	00402021 	move	a0,v0
    5a3c:	0c000361 	jal	d84 <puts>
    5a40:	2624670c 	addiu	a0,s1,26380
    5a44:	3c040000 	lui	a0,0x0
    5a48:	0c000361 	jal	d84 <puts>
    5a4c:	24846944 	addiu	a0,a0,26948
    5a50:	8e440100 	lw	a0,256(s2)
    5a54:	0c00000b 	jal	2c <itoa>
    5a58:	00000000 	nop
    5a5c:	0c000361 	jal	d84 <puts>
    5a60:	00402021 	move	a0,v0
    5a64:	0c000361 	jal	d84 <puts>
    5a68:	2624670c 	addiu	a0,s1,26380
    5a6c:	3c040000 	lui	a0,0x0
    5a70:	0c000361 	jal	d84 <puts>
    5a74:	2484695c 	addiu	a0,a0,26972
    5a78:	8e440140 	lw	a0,320(s2)
    5a7c:	0c00000b 	jal	2c <itoa>
    5a80:	00000000 	nop
    5a84:	0c000361 	jal	d84 <puts>
    5a88:	00402021 	move	a0,v0
    5a8c:	0c000361 	jal	d84 <puts>
    5a90:	2624670c 	addiu	a0,s1,26380
    5a94:	3c040000 	lui	a0,0x0
    5a98:	0c000361 	jal	d84 <puts>
    5a9c:	24846974 	addiu	a0,a0,26996
    5aa0:	8e440004 	lw	a0,4(s2)
    5aa4:	0c00000b 	jal	2c <itoa>
    5aa8:	00000000 	nop
    5aac:	0c000361 	jal	d84 <puts>
    5ab0:	00402021 	move	a0,v0
    5ab4:	0c000361 	jal	d84 <puts>
    5ab8:	2624670c 	addiu	a0,s1,26380
    5abc:	3c040000 	lui	a0,0x0
    5ac0:	0c000361 	jal	d84 <puts>
    5ac4:	2484698c 	addiu	a0,a0,27020
    5ac8:	8e440044 	lw	a0,68(s2)
    5acc:	0c00000b 	jal	2c <itoa>
    5ad0:	00000000 	nop
    5ad4:	0c000361 	jal	d84 <puts>
    5ad8:	00402021 	move	a0,v0
    5adc:	0c000361 	jal	d84 <puts>
    5ae0:	2624670c 	addiu	a0,s1,26380
    5ae4:	3c040000 	lui	a0,0x0
    5ae8:	0c000361 	jal	d84 <puts>
    5aec:	248469a4 	addiu	a0,a0,27044
    5af0:	8e440084 	lw	a0,132(s2)
    5af4:	0c00000b 	jal	2c <itoa>
    5af8:	00000000 	nop
    5afc:	0c000361 	jal	d84 <puts>
    5b00:	00402021 	move	a0,v0
    5b04:	0c000361 	jal	d84 <puts>
    5b08:	2624670c 	addiu	a0,s1,26380
    5b0c:	3c040000 	lui	a0,0x0
    5b10:	0c000361 	jal	d84 <puts>
    5b14:	248469bc 	addiu	a0,a0,27068
    5b18:	8e4400c4 	lw	a0,196(s2)
    5b1c:	0c00000b 	jal	2c <itoa>
    5b20:	00000000 	nop
    5b24:	0c000361 	jal	d84 <puts>
    5b28:	00402021 	move	a0,v0
    5b2c:	0c000361 	jal	d84 <puts>
    5b30:	2624670c 	addiu	a0,s1,26380
    5b34:	3c040000 	lui	a0,0x0
    5b38:	0c000361 	jal	d84 <puts>
    5b3c:	248469d4 	addiu	a0,a0,27092
    5b40:	8e440104 	lw	a0,260(s2)
    5b44:	0c00000b 	jal	2c <itoa>
    5b48:	00000000 	nop
    5b4c:	0c000361 	jal	d84 <puts>
    5b50:	00402021 	move	a0,v0
    5b54:	0c000361 	jal	d84 <puts>
    5b58:	2624670c 	addiu	a0,s1,26380
    5b5c:	3c040000 	lui	a0,0x0
    5b60:	0c000361 	jal	d84 <puts>
    5b64:	248469ec 	addiu	a0,a0,27116
    5b68:	8e440144 	lw	a0,324(s2)
    5b6c:	0c00000b 	jal	2c <itoa>
    5b70:	00000000 	nop
    5b74:	0c000361 	jal	d84 <puts>
    5b78:	00402021 	move	a0,v0
    5b7c:	0c000361 	jal	d84 <puts>
    5b80:	2624670c 	addiu	a0,s1,26380
    5b84:	3c040000 	lui	a0,0x0
    5b88:	0c000361 	jal	d84 <puts>
    5b8c:	24846a04 	addiu	a0,a0,27140
    5b90:	8e440008 	lw	a0,8(s2)
    5b94:	0c00000b 	jal	2c <itoa>
    5b98:	00000000 	nop
    5b9c:	0c000361 	jal	d84 <puts>
    5ba0:	00402021 	move	a0,v0
    5ba4:	0c000361 	jal	d84 <puts>
    5ba8:	2624670c 	addiu	a0,s1,26380
    5bac:	3c040000 	lui	a0,0x0
    5bb0:	0c000361 	jal	d84 <puts>
    5bb4:	24846a1c 	addiu	a0,a0,27164
    5bb8:	8e440048 	lw	a0,72(s2)
    5bbc:	0c00000b 	jal	2c <itoa>
    5bc0:	00000000 	nop
    5bc4:	0c000361 	jal	d84 <puts>
    5bc8:	00402021 	move	a0,v0
    5bcc:	0c000361 	jal	d84 <puts>
    5bd0:	2624670c 	addiu	a0,s1,26380
    5bd4:	3c040000 	lui	a0,0x0
    5bd8:	0c000361 	jal	d84 <puts>
    5bdc:	24846a34 	addiu	a0,a0,27188
    5be0:	8e440088 	lw	a0,136(s2)
    5be4:	0c00000b 	jal	2c <itoa>
    5be8:	00000000 	nop
    5bec:	0c000361 	jal	d84 <puts>
    5bf0:	00402021 	move	a0,v0
    5bf4:	0c000361 	jal	d84 <puts>
    5bf8:	2624670c 	addiu	a0,s1,26380
    5bfc:	3c040000 	lui	a0,0x0
    5c00:	0c000361 	jal	d84 <puts>
    5c04:	24846a4c 	addiu	a0,a0,27212
    5c08:	8e4400c8 	lw	a0,200(s2)
    5c0c:	0c00000b 	jal	2c <itoa>
    5c10:	00000000 	nop
    5c14:	0c000361 	jal	d84 <puts>
    5c18:	00402021 	move	a0,v0
    5c1c:	0c000361 	jal	d84 <puts>
    5c20:	2624670c 	addiu	a0,s1,26380
    5c24:	3c040000 	lui	a0,0x0
    5c28:	0c000361 	jal	d84 <puts>
    5c2c:	24846a64 	addiu	a0,a0,27236
    5c30:	8e440108 	lw	a0,264(s2)
    5c34:	0c00000b 	jal	2c <itoa>
    5c38:	00000000 	nop
    5c3c:	0c000361 	jal	d84 <puts>
    5c40:	00402021 	move	a0,v0
    5c44:	0c000361 	jal	d84 <puts>
    5c48:	2624670c 	addiu	a0,s1,26380
    5c4c:	3c040000 	lui	a0,0x0
    5c50:	0c000361 	jal	d84 <puts>
    5c54:	24846a7c 	addiu	a0,a0,27260
    5c58:	8e440148 	lw	a0,328(s2)
    5c5c:	0c00000b 	jal	2c <itoa>
    5c60:	00000000 	nop
    5c64:	0c000361 	jal	d84 <puts>
    5c68:	00402021 	move	a0,v0
    5c6c:	0c000361 	jal	d84 <puts>
    5c70:	2624670c 	addiu	a0,s1,26380
    5c74:	3c040000 	lui	a0,0x0
    5c78:	0c000361 	jal	d84 <puts>
    5c7c:	24846a94 	addiu	a0,a0,27284
    5c80:	8e44000c 	lw	a0,12(s2)
    5c84:	0c00000b 	jal	2c <itoa>
    5c88:	00000000 	nop
    5c8c:	0c000361 	jal	d84 <puts>
    5c90:	00402021 	move	a0,v0
    5c94:	0c000361 	jal	d84 <puts>
    5c98:	2624670c 	addiu	a0,s1,26380
    5c9c:	3c040000 	lui	a0,0x0
    5ca0:	0c000361 	jal	d84 <puts>
    5ca4:	24846aac 	addiu	a0,a0,27308
    5ca8:	8e44004c 	lw	a0,76(s2)
    5cac:	0c00000b 	jal	2c <itoa>
    5cb0:	00000000 	nop
    5cb4:	0c000361 	jal	d84 <puts>
    5cb8:	00402021 	move	a0,v0
    5cbc:	0c000361 	jal	d84 <puts>
    5cc0:	2624670c 	addiu	a0,s1,26380
    5cc4:	3c040000 	lui	a0,0x0
    5cc8:	0c000361 	jal	d84 <puts>
    5ccc:	24846ac4 	addiu	a0,a0,27332
    5cd0:	8e44008c 	lw	a0,140(s2)
    5cd4:	0c00000b 	jal	2c <itoa>
    5cd8:	00000000 	nop
    5cdc:	0c000361 	jal	d84 <puts>
    5ce0:	00402021 	move	a0,v0
    5ce4:	0c000361 	jal	d84 <puts>
    5ce8:	2624670c 	addiu	a0,s1,26380
    5cec:	3c040000 	lui	a0,0x0
    5cf0:	0c000361 	jal	d84 <puts>
    5cf4:	24846adc 	addiu	a0,a0,27356
    5cf8:	8e4400cc 	lw	a0,204(s2)
    5cfc:	0c00000b 	jal	2c <itoa>
    5d00:	00000000 	nop
    5d04:	0c000361 	jal	d84 <puts>
    5d08:	00402021 	move	a0,v0
    5d0c:	0c000361 	jal	d84 <puts>
    5d10:	2624670c 	addiu	a0,s1,26380
    5d14:	3c040000 	lui	a0,0x0
    5d18:	0c000361 	jal	d84 <puts>
    5d1c:	24846af4 	addiu	a0,a0,27380
    5d20:	8e44010c 	lw	a0,268(s2)
    5d24:	0c00000b 	jal	2c <itoa>
    5d28:	00000000 	nop
    5d2c:	0c000361 	jal	d84 <puts>
    5d30:	00402021 	move	a0,v0
    5d34:	0c000361 	jal	d84 <puts>
    5d38:	2624670c 	addiu	a0,s1,26380
    5d3c:	3c040000 	lui	a0,0x0
    5d40:	0c000361 	jal	d84 <puts>
    5d44:	24846b0c 	addiu	a0,a0,27404
    5d48:	8e44014c 	lw	a0,332(s2)
    5d4c:	0c00000b 	jal	2c <itoa>
    5d50:	00000000 	nop
    5d54:	0c000361 	jal	d84 <puts>
    5d58:	00402021 	move	a0,v0
    5d5c:	0c000361 	jal	d84 <puts>
    5d60:	2624670c 	addiu	a0,s1,26380
    5d64:	3c040000 	lui	a0,0x0
    5d68:	0c000361 	jal	d84 <puts>
    5d6c:	24846b24 	addiu	a0,a0,27428
    5d70:	8e440010 	lw	a0,16(s2)
    5d74:	0c00000b 	jal	2c <itoa>
    5d78:	00000000 	nop
    5d7c:	0c000361 	jal	d84 <puts>
    5d80:	00402021 	move	a0,v0
    5d84:	0c000361 	jal	d84 <puts>
    5d88:	2624670c 	addiu	a0,s1,26380
    5d8c:	3c040000 	lui	a0,0x0
    5d90:	0c000361 	jal	d84 <puts>
    5d94:	24846b3c 	addiu	a0,a0,27452
    5d98:	8e440050 	lw	a0,80(s2)
    5d9c:	0c00000b 	jal	2c <itoa>
    5da0:	00000000 	nop
    5da4:	0c000361 	jal	d84 <puts>
    5da8:	00402021 	move	a0,v0
    5dac:	0c000361 	jal	d84 <puts>
    5db0:	2624670c 	addiu	a0,s1,26380
    5db4:	3c040000 	lui	a0,0x0
    5db8:	0c000361 	jal	d84 <puts>
    5dbc:	24846b54 	addiu	a0,a0,27476
    5dc0:	8e440090 	lw	a0,144(s2)
    5dc4:	0c00000b 	jal	2c <itoa>
    5dc8:	00000000 	nop
    5dcc:	0c000361 	jal	d84 <puts>
    5dd0:	00402021 	move	a0,v0
    5dd4:	0c000361 	jal	d84 <puts>
    5dd8:	2624670c 	addiu	a0,s1,26380
    5ddc:	3c040000 	lui	a0,0x0
    5de0:	0c000361 	jal	d84 <puts>
    5de4:	24846b6c 	addiu	a0,a0,27500
    5de8:	8e4400d0 	lw	a0,208(s2)
    5dec:	0c00000b 	jal	2c <itoa>
    5df0:	00000000 	nop
    5df4:	0c000361 	jal	d84 <puts>
    5df8:	00402021 	move	a0,v0
    5dfc:	0c000361 	jal	d84 <puts>
    5e00:	2624670c 	addiu	a0,s1,26380
    5e04:	3c040000 	lui	a0,0x0
    5e08:	0c000361 	jal	d84 <puts>
    5e0c:	24846b84 	addiu	a0,a0,27524
    5e10:	8e440110 	lw	a0,272(s2)
    5e14:	0c00000b 	jal	2c <itoa>
    5e18:	00000000 	nop
    5e1c:	0c000361 	jal	d84 <puts>
    5e20:	00402021 	move	a0,v0
    5e24:	0c000361 	jal	d84 <puts>
    5e28:	2624670c 	addiu	a0,s1,26380
    5e2c:	3c040000 	lui	a0,0x0
    5e30:	0c000361 	jal	d84 <puts>
    5e34:	24846b9c 	addiu	a0,a0,27548
    5e38:	8e440150 	lw	a0,336(s2)
    5e3c:	0c00000b 	jal	2c <itoa>
    5e40:	00000000 	nop
    5e44:	0c000361 	jal	d84 <puts>
    5e48:	00402021 	move	a0,v0
    5e4c:	0c000361 	jal	d84 <puts>
    5e50:	2624670c 	addiu	a0,s1,26380
    5e54:	3c040000 	lui	a0,0x0
    5e58:	0c000361 	jal	d84 <puts>
    5e5c:	24846bb4 	addiu	a0,a0,27572
    5e60:	8e440014 	lw	a0,20(s2)
    5e64:	0c00000b 	jal	2c <itoa>
    5e68:	00000000 	nop
    5e6c:	0c000361 	jal	d84 <puts>
    5e70:	00402021 	move	a0,v0
    5e74:	0c000361 	jal	d84 <puts>
    5e78:	2624670c 	addiu	a0,s1,26380
    5e7c:	3c040000 	lui	a0,0x0
    5e80:	0c000361 	jal	d84 <puts>
    5e84:	24846bcc 	addiu	a0,a0,27596
    5e88:	8e440054 	lw	a0,84(s2)
    5e8c:	0c00000b 	jal	2c <itoa>
    5e90:	00000000 	nop
    5e94:	0c000361 	jal	d84 <puts>
    5e98:	00402021 	move	a0,v0
    5e9c:	0c000361 	jal	d84 <puts>
    5ea0:	2624670c 	addiu	a0,s1,26380
    5ea4:	3c040000 	lui	a0,0x0
    5ea8:	0c000361 	jal	d84 <puts>
    5eac:	24846be4 	addiu	a0,a0,27620
    5eb0:	8e440094 	lw	a0,148(s2)
    5eb4:	0c00000b 	jal	2c <itoa>
    5eb8:	00000000 	nop
    5ebc:	0c000361 	jal	d84 <puts>
    5ec0:	00402021 	move	a0,v0
    5ec4:	0c000361 	jal	d84 <puts>
    5ec8:	2624670c 	addiu	a0,s1,26380
    5ecc:	3c040000 	lui	a0,0x0
    5ed0:	0c000361 	jal	d84 <puts>
    5ed4:	24846bfc 	addiu	a0,a0,27644
    5ed8:	8e4400d4 	lw	a0,212(s2)
    5edc:	0c00000b 	jal	2c <itoa>
    5ee0:	00000000 	nop
    5ee4:	0c000361 	jal	d84 <puts>
    5ee8:	00402021 	move	a0,v0
    5eec:	0c000361 	jal	d84 <puts>
    5ef0:	2624670c 	addiu	a0,s1,26380
    5ef4:	3c040000 	lui	a0,0x0
    5ef8:	0c000361 	jal	d84 <puts>
    5efc:	24846c14 	addiu	a0,a0,27668
    5f00:	8e440114 	lw	a0,276(s2)
    5f04:	0c00000b 	jal	2c <itoa>
    5f08:	00000000 	nop
    5f0c:	0c000361 	jal	d84 <puts>
    5f10:	00402021 	move	a0,v0
    5f14:	0c000361 	jal	d84 <puts>
    5f18:	2624670c 	addiu	a0,s1,26380
    5f1c:	3c040000 	lui	a0,0x0
    5f20:	0c000361 	jal	d84 <puts>
    5f24:	24846c2c 	addiu	a0,a0,27692
    5f28:	8e440154 	lw	a0,340(s2)
    5f2c:	0c00000b 	jal	2c <itoa>
    5f30:	00000000 	nop
    5f34:	0c000361 	jal	d84 <puts>
    5f38:	00402021 	move	a0,v0
    5f3c:	0c000361 	jal	d84 <puts>
    5f40:	2624670c 	addiu	a0,s1,26380
    5f44:	3c040000 	lui	a0,0x0
    5f48:	0c000361 	jal	d84 <puts>
    5f4c:	24846c44 	addiu	a0,a0,27716
    5f50:	8e040040 	lw	a0,64(s0)
    5f54:	0c00000b 	jal	2c <itoa>
    5f58:	00000000 	nop
    5f5c:	0c000361 	jal	d84 <puts>
    5f60:	00402021 	move	a0,v0
    5f64:	0c000361 	jal	d84 <puts>
    5f68:	2624670c 	addiu	a0,s1,26380
    5f6c:	3c040000 	lui	a0,0x0
    5f70:	0c000361 	jal	d84 <puts>
    5f74:	24846c68 	addiu	a0,a0,27752
    5f78:	8e040080 	lw	a0,128(s0)
    5f7c:	0c00000b 	jal	2c <itoa>
    5f80:	00000000 	nop
    5f84:	0c000361 	jal	d84 <puts>
    5f88:	00402021 	move	a0,v0
    5f8c:	0c000361 	jal	d84 <puts>
    5f90:	2624670c 	addiu	a0,s1,26380
    5f94:	3c040000 	lui	a0,0x0
    5f98:	0c000361 	jal	d84 <puts>
    5f9c:	24846c8c 	addiu	a0,a0,27788
    5fa0:	8e0400c0 	lw	a0,192(s0)
    5fa4:	0c00000b 	jal	2c <itoa>
    5fa8:	00000000 	nop
    5fac:	0c000361 	jal	d84 <puts>
    5fb0:	00402021 	move	a0,v0
    5fb4:	0c000361 	jal	d84 <puts>
    5fb8:	2624670c 	addiu	a0,s1,26380
    5fbc:	3c040000 	lui	a0,0x0
    5fc0:	0c000361 	jal	d84 <puts>
    5fc4:	24846cb0 	addiu	a0,a0,27824
    5fc8:	8e040100 	lw	a0,256(s0)
    5fcc:	0c00000b 	jal	2c <itoa>
    5fd0:	00000000 	nop
    5fd4:	0c000361 	jal	d84 <puts>
    5fd8:	00402021 	move	a0,v0
    5fdc:	0c000361 	jal	d84 <puts>
    5fe0:	2624670c 	addiu	a0,s1,26380
    5fe4:	3c040000 	lui	a0,0x0
    5fe8:	0c000361 	jal	d84 <puts>
    5fec:	24846cd4 	addiu	a0,a0,27860
    5ff0:	8e040140 	lw	a0,320(s0)
    5ff4:	0c00000b 	jal	2c <itoa>
    5ff8:	00000000 	nop
    5ffc:	0c000361 	jal	d84 <puts>
    6000:	00402021 	move	a0,v0
    6004:	0c000361 	jal	d84 <puts>
    6008:	2624670c 	addiu	a0,s1,26380
    600c:	3c040000 	lui	a0,0x0
    6010:	0c000361 	jal	d84 <puts>
    6014:	24846cf8 	addiu	a0,a0,27896
    6018:	8e040004 	lw	a0,4(s0)
    601c:	0c00000b 	jal	2c <itoa>
    6020:	00000000 	nop
    6024:	0c000361 	jal	d84 <puts>
    6028:	00402021 	move	a0,v0
    602c:	0c000361 	jal	d84 <puts>
    6030:	2624670c 	addiu	a0,s1,26380
    6034:	3c040000 	lui	a0,0x0
    6038:	0c000361 	jal	d84 <puts>
    603c:	24846d1c 	addiu	a0,a0,27932
    6040:	8e040044 	lw	a0,68(s0)
    6044:	0c00000b 	jal	2c <itoa>
    6048:	00000000 	nop
    604c:	0c000361 	jal	d84 <puts>
    6050:	00402021 	move	a0,v0
    6054:	0c000361 	jal	d84 <puts>
    6058:	2624670c 	addiu	a0,s1,26380
    605c:	3c040000 	lui	a0,0x0
    6060:	0c000361 	jal	d84 <puts>
    6064:	24846d40 	addiu	a0,a0,27968
    6068:	8e040084 	lw	a0,132(s0)
    606c:	0c00000b 	jal	2c <itoa>
    6070:	00000000 	nop
    6074:	0c000361 	jal	d84 <puts>
    6078:	00402021 	move	a0,v0
    607c:	0c000361 	jal	d84 <puts>
    6080:	2624670c 	addiu	a0,s1,26380
    6084:	3c040000 	lui	a0,0x0
    6088:	0c000361 	jal	d84 <puts>
    608c:	24846d64 	addiu	a0,a0,28004
    6090:	8e0400c4 	lw	a0,196(s0)
    6094:	0c00000b 	jal	2c <itoa>
    6098:	00000000 	nop
    609c:	0c000361 	jal	d84 <puts>
    60a0:	00402021 	move	a0,v0
    60a4:	0c000361 	jal	d84 <puts>
    60a8:	2624670c 	addiu	a0,s1,26380
    60ac:	3c040000 	lui	a0,0x0
    60b0:	0c000361 	jal	d84 <puts>
    60b4:	24846d88 	addiu	a0,a0,28040
    60b8:	8e040104 	lw	a0,260(s0)
    60bc:	0c00000b 	jal	2c <itoa>
    60c0:	00000000 	nop
    60c4:	0c000361 	jal	d84 <puts>
    60c8:	00402021 	move	a0,v0
    60cc:	0c000361 	jal	d84 <puts>
    60d0:	2624670c 	addiu	a0,s1,26380
    60d4:	3c040000 	lui	a0,0x0
    60d8:	0c000361 	jal	d84 <puts>
    60dc:	24846dac 	addiu	a0,a0,28076
    60e0:	8e040144 	lw	a0,324(s0)
    60e4:	0c00000b 	jal	2c <itoa>
    60e8:	00000000 	nop
    60ec:	0c000361 	jal	d84 <puts>
    60f0:	00402021 	move	a0,v0
    60f4:	0c000361 	jal	d84 <puts>
    60f8:	2624670c 	addiu	a0,s1,26380
    60fc:	3c040000 	lui	a0,0x0
    6100:	0c000361 	jal	d84 <puts>
    6104:	24846dd0 	addiu	a0,a0,28112
    6108:	8e040008 	lw	a0,8(s0)
    610c:	0c00000b 	jal	2c <itoa>
    6110:	00000000 	nop
    6114:	0c000361 	jal	d84 <puts>
    6118:	00402021 	move	a0,v0
    611c:	0c000361 	jal	d84 <puts>
    6120:	2624670c 	addiu	a0,s1,26380
    6124:	3c040000 	lui	a0,0x0
    6128:	0c000361 	jal	d84 <puts>
    612c:	24846df4 	addiu	a0,a0,28148
    6130:	8e040048 	lw	a0,72(s0)
    6134:	0c00000b 	jal	2c <itoa>
    6138:	00000000 	nop
    613c:	0c000361 	jal	d84 <puts>
    6140:	00402021 	move	a0,v0
    6144:	0c000361 	jal	d84 <puts>
    6148:	2624670c 	addiu	a0,s1,26380
    614c:	3c040000 	lui	a0,0x0
    6150:	0c000361 	jal	d84 <puts>
    6154:	24846e18 	addiu	a0,a0,28184
    6158:	8e040088 	lw	a0,136(s0)
    615c:	0c00000b 	jal	2c <itoa>
    6160:	00000000 	nop
    6164:	0c000361 	jal	d84 <puts>
    6168:	00402021 	move	a0,v0
    616c:	0c000361 	jal	d84 <puts>
    6170:	2624670c 	addiu	a0,s1,26380
    6174:	3c040000 	lui	a0,0x0
    6178:	0c000361 	jal	d84 <puts>
    617c:	24846e3c 	addiu	a0,a0,28220
    6180:	8e0400c8 	lw	a0,200(s0)
    6184:	0c00000b 	jal	2c <itoa>
    6188:	00000000 	nop
    618c:	0c000361 	jal	d84 <puts>
    6190:	00402021 	move	a0,v0
    6194:	0c000361 	jal	d84 <puts>
    6198:	2624670c 	addiu	a0,s1,26380
    619c:	3c040000 	lui	a0,0x0
    61a0:	0c000361 	jal	d84 <puts>
    61a4:	24846e60 	addiu	a0,a0,28256
    61a8:	8e040108 	lw	a0,264(s0)
    61ac:	0c00000b 	jal	2c <itoa>
    61b0:	00000000 	nop
    61b4:	0c000361 	jal	d84 <puts>
    61b8:	00402021 	move	a0,v0
    61bc:	0c000361 	jal	d84 <puts>
    61c0:	2624670c 	addiu	a0,s1,26380
    61c4:	3c040000 	lui	a0,0x0
    61c8:	0c000361 	jal	d84 <puts>
    61cc:	24846e84 	addiu	a0,a0,28292
    61d0:	8e040148 	lw	a0,328(s0)
    61d4:	0c00000b 	jal	2c <itoa>
    61d8:	00000000 	nop
    61dc:	0c000361 	jal	d84 <puts>
    61e0:	00402021 	move	a0,v0
    61e4:	0c000361 	jal	d84 <puts>
    61e8:	2624670c 	addiu	a0,s1,26380
    61ec:	3c040000 	lui	a0,0x0
    61f0:	0c000361 	jal	d84 <puts>
    61f4:	24846ea8 	addiu	a0,a0,28328
    61f8:	8e04000c 	lw	a0,12(s0)
    61fc:	0c00000b 	jal	2c <itoa>
    6200:	00000000 	nop
    6204:	0c000361 	jal	d84 <puts>
    6208:	00402021 	move	a0,v0
    620c:	0c000361 	jal	d84 <puts>
    6210:	2624670c 	addiu	a0,s1,26380
    6214:	3c040000 	lui	a0,0x0
    6218:	0c000361 	jal	d84 <puts>
    621c:	24846ecc 	addiu	a0,a0,28364
    6220:	8e04004c 	lw	a0,76(s0)
    6224:	0c00000b 	jal	2c <itoa>
    6228:	00000000 	nop
    622c:	0c000361 	jal	d84 <puts>
    6230:	00402021 	move	a0,v0
    6234:	0c000361 	jal	d84 <puts>
    6238:	2624670c 	addiu	a0,s1,26380
    623c:	3c040000 	lui	a0,0x0
    6240:	0c000361 	jal	d84 <puts>
    6244:	24846ef0 	addiu	a0,a0,28400
    6248:	8e04008c 	lw	a0,140(s0)
    624c:	0c00000b 	jal	2c <itoa>
    6250:	00000000 	nop
    6254:	0c000361 	jal	d84 <puts>
    6258:	00402021 	move	a0,v0
    625c:	0c000361 	jal	d84 <puts>
    6260:	2624670c 	addiu	a0,s1,26380
    6264:	3c040000 	lui	a0,0x0
    6268:	0c000361 	jal	d84 <puts>
    626c:	24846f14 	addiu	a0,a0,28436
    6270:	8e0400cc 	lw	a0,204(s0)
    6274:	0c00000b 	jal	2c <itoa>
    6278:	00000000 	nop
    627c:	0c000361 	jal	d84 <puts>
    6280:	00402021 	move	a0,v0
    6284:	0c000361 	jal	d84 <puts>
    6288:	2624670c 	addiu	a0,s1,26380
    628c:	3c040000 	lui	a0,0x0
    6290:	0c000361 	jal	d84 <puts>
    6294:	24846f38 	addiu	a0,a0,28472
    6298:	8e04010c 	lw	a0,268(s0)
    629c:	0c00000b 	jal	2c <itoa>
    62a0:	00000000 	nop
    62a4:	0c000361 	jal	d84 <puts>
    62a8:	00402021 	move	a0,v0
    62ac:	0c000361 	jal	d84 <puts>
    62b0:	2624670c 	addiu	a0,s1,26380
    62b4:	3c040000 	lui	a0,0x0
    62b8:	0c000361 	jal	d84 <puts>
    62bc:	24846f5c 	addiu	a0,a0,28508
    62c0:	8e04014c 	lw	a0,332(s0)
    62c4:	0c00000b 	jal	2c <itoa>
    62c8:	00000000 	nop
    62cc:	0c000361 	jal	d84 <puts>
    62d0:	00402021 	move	a0,v0
    62d4:	0c000361 	jal	d84 <puts>
    62d8:	2624670c 	addiu	a0,s1,26380
    62dc:	3c040000 	lui	a0,0x0
    62e0:	0c000361 	jal	d84 <puts>
    62e4:	24846f80 	addiu	a0,a0,28544
    62e8:	8e040010 	lw	a0,16(s0)
    62ec:	0c00000b 	jal	2c <itoa>
    62f0:	00000000 	nop
    62f4:	0c000361 	jal	d84 <puts>
    62f8:	00402021 	move	a0,v0
    62fc:	0c000361 	jal	d84 <puts>
    6300:	2624670c 	addiu	a0,s1,26380
    6304:	3c040000 	lui	a0,0x0
    6308:	0c000361 	jal	d84 <puts>
    630c:	24846fa4 	addiu	a0,a0,28580
    6310:	8e040050 	lw	a0,80(s0)
    6314:	0c00000b 	jal	2c <itoa>
    6318:	00000000 	nop
    631c:	0c000361 	jal	d84 <puts>
    6320:	00402021 	move	a0,v0
    6324:	0c000361 	jal	d84 <puts>
    6328:	2624670c 	addiu	a0,s1,26380
    632c:	3c040000 	lui	a0,0x0
    6330:	0c000361 	jal	d84 <puts>
    6334:	24846fc8 	addiu	a0,a0,28616
    6338:	8e040090 	lw	a0,144(s0)
    633c:	0c00000b 	jal	2c <itoa>
    6340:	00000000 	nop
    6344:	0c000361 	jal	d84 <puts>
    6348:	00402021 	move	a0,v0
    634c:	0c000361 	jal	d84 <puts>
    6350:	2624670c 	addiu	a0,s1,26380
    6354:	3c040000 	lui	a0,0x0
    6358:	0c000361 	jal	d84 <puts>
    635c:	24846fec 	addiu	a0,a0,28652
    6360:	8e0400d0 	lw	a0,208(s0)
    6364:	0c00000b 	jal	2c <itoa>
    6368:	00000000 	nop
    636c:	0c000361 	jal	d84 <puts>
    6370:	00402021 	move	a0,v0
    6374:	0c000361 	jal	d84 <puts>
    6378:	2624670c 	addiu	a0,s1,26380
    637c:	3c040000 	lui	a0,0x0
    6380:	0c000361 	jal	d84 <puts>
    6384:	24847010 	addiu	a0,a0,28688
    6388:	8e040110 	lw	a0,272(s0)
    638c:	0c00000b 	jal	2c <itoa>
    6390:	00000000 	nop
    6394:	0c000361 	jal	d84 <puts>
    6398:	00402021 	move	a0,v0
    639c:	0c000361 	jal	d84 <puts>
    63a0:	2624670c 	addiu	a0,s1,26380
    63a4:	3c040000 	lui	a0,0x0
    63a8:	0c000361 	jal	d84 <puts>
    63ac:	24847034 	addiu	a0,a0,28724
    63b0:	8e040150 	lw	a0,336(s0)
    63b4:	0c00000b 	jal	2c <itoa>
    63b8:	00000000 	nop
    63bc:	0c000361 	jal	d84 <puts>
    63c0:	00402021 	move	a0,v0
    63c4:	0c000361 	jal	d84 <puts>
    63c8:	2624670c 	addiu	a0,s1,26380
    63cc:	3c040000 	lui	a0,0x0
    63d0:	0c000361 	jal	d84 <puts>
    63d4:	24847058 	addiu	a0,a0,28760
    63d8:	8e040014 	lw	a0,20(s0)
    63dc:	0c00000b 	jal	2c <itoa>
    63e0:	00000000 	nop
    63e4:	0c000361 	jal	d84 <puts>
    63e8:	00402021 	move	a0,v0
    63ec:	0c000361 	jal	d84 <puts>
    63f0:	2624670c 	addiu	a0,s1,26380
    63f4:	3c040000 	lui	a0,0x0
    63f8:	0c000361 	jal	d84 <puts>
    63fc:	2484707c 	addiu	a0,a0,28796
    6400:	8e040054 	lw	a0,84(s0)
    6404:	0c00000b 	jal	2c <itoa>
    6408:	00000000 	nop
    640c:	0c000361 	jal	d84 <puts>
    6410:	00402021 	move	a0,v0
    6414:	0c000361 	jal	d84 <puts>
    6418:	2624670c 	addiu	a0,s1,26380
    641c:	3c040000 	lui	a0,0x0
    6420:	0c000361 	jal	d84 <puts>
    6424:	248470a0 	addiu	a0,a0,28832
    6428:	8e040094 	lw	a0,148(s0)
    642c:	0c00000b 	jal	2c <itoa>
    6430:	00000000 	nop
    6434:	0c000361 	jal	d84 <puts>
    6438:	00402021 	move	a0,v0
    643c:	0c000361 	jal	d84 <puts>
    6440:	2624670c 	addiu	a0,s1,26380
    6444:	3c040000 	lui	a0,0x0
    6448:	0c000361 	jal	d84 <puts>
    644c:	248470c4 	addiu	a0,a0,28868
    6450:	8e0400d4 	lw	a0,212(s0)
    6454:	0c00000b 	jal	2c <itoa>
    6458:	00000000 	nop
    645c:	0c000361 	jal	d84 <puts>
    6460:	00402021 	move	a0,v0
    6464:	0c000361 	jal	d84 <puts>
    6468:	2624670c 	addiu	a0,s1,26380
    646c:	3c040000 	lui	a0,0x0
    6470:	0c000361 	jal	d84 <puts>
    6474:	248470e8 	addiu	a0,a0,28904
    6478:	8e040114 	lw	a0,276(s0)
    647c:	0c00000b 	jal	2c <itoa>
    6480:	00000000 	nop
    6484:	0c000361 	jal	d84 <puts>
    6488:	00402021 	move	a0,v0
    648c:	0c000361 	jal	d84 <puts>
    6490:	2624670c 	addiu	a0,s1,26380
    6494:	3c040000 	lui	a0,0x0
    6498:	0c000361 	jal	d84 <puts>
    649c:	2484710c 	addiu	a0,a0,28940
    64a0:	8e040154 	lw	a0,340(s0)
    64a4:	0c00000b 	jal	2c <itoa>
    64a8:	00000000 	nop
    64ac:	0c000361 	jal	d84 <puts>
    64b0:	00402021 	move	a0,v0
    64b4:	0c000361 	jal	d84 <puts>
    64b8:	2624670c 	addiu	a0,s1,26380
    64bc:	ae400040 	sw	zero,64(s2)
    64c0:	ae400080 	sw	zero,128(s2)
    64c4:	ae4000c0 	sw	zero,192(s2)
    64c8:	ae400100 	sw	zero,256(s2)
    64cc:	ae400140 	sw	zero,320(s2)
    64d0:	ae400004 	sw	zero,4(s2)
    64d4:	ae400044 	sw	zero,68(s2)
    64d8:	ae400084 	sw	zero,132(s2)
    64dc:	ae4000c4 	sw	zero,196(s2)
    64e0:	ae400104 	sw	zero,260(s2)
    64e4:	ae400144 	sw	zero,324(s2)
    64e8:	ae400008 	sw	zero,8(s2)
    64ec:	ae400048 	sw	zero,72(s2)
    64f0:	ae400088 	sw	zero,136(s2)
    64f4:	ae4000c8 	sw	zero,200(s2)
    64f8:	ae400108 	sw	zero,264(s2)
    64fc:	ae400148 	sw	zero,328(s2)
    6500:	ae40000c 	sw	zero,12(s2)
    6504:	ae40004c 	sw	zero,76(s2)
    6508:	ae40008c 	sw	zero,140(s2)
    650c:	ae4000cc 	sw	zero,204(s2)
    6510:	ae40010c 	sw	zero,268(s2)
    6514:	ae40014c 	sw	zero,332(s2)
    6518:	ae400010 	sw	zero,16(s2)
    651c:	ae400050 	sw	zero,80(s2)
    6520:	ae400090 	sw	zero,144(s2)
    6524:	ae4000d0 	sw	zero,208(s2)
    6528:	ae400110 	sw	zero,272(s2)
    652c:	ae400150 	sw	zero,336(s2)
    6530:	ae400014 	sw	zero,20(s2)
    6534:	ae400054 	sw	zero,84(s2)
    6538:	ae400094 	sw	zero,148(s2)
    653c:	ae4000d4 	sw	zero,212(s2)
    6540:	ae400114 	sw	zero,276(s2)
    6544:	ae400154 	sw	zero,340(s2)
    6548:	ae000040 	sw	zero,64(s0)
    654c:	ae000080 	sw	zero,128(s0)
    6550:	ae0000c0 	sw	zero,192(s0)
    6554:	ae000100 	sw	zero,256(s0)
    6558:	ae000140 	sw	zero,320(s0)
    655c:	ae000004 	sw	zero,4(s0)
    6560:	ae000044 	sw	zero,68(s0)
    6564:	ae000084 	sw	zero,132(s0)
    6568:	ae0000c4 	sw	zero,196(s0)
    656c:	ae000104 	sw	zero,260(s0)
    6570:	ae000144 	sw	zero,324(s0)
    6574:	ae000008 	sw	zero,8(s0)
    6578:	ae000048 	sw	zero,72(s0)
    657c:	ae000088 	sw	zero,136(s0)
    6580:	ae0000c8 	sw	zero,200(s0)
    6584:	ae000108 	sw	zero,264(s0)
    6588:	ae000148 	sw	zero,328(s0)
    658c:	ae00000c 	sw	zero,12(s0)
    6590:	ae00004c 	sw	zero,76(s0)
    6594:	ae00008c 	sw	zero,140(s0)
    6598:	ae0000cc 	sw	zero,204(s0)
    659c:	ae00010c 	sw	zero,268(s0)
    65a0:	ae00014c 	sw	zero,332(s0)
    65a4:	ae000010 	sw	zero,16(s0)
    65a8:	ae000050 	sw	zero,80(s0)
    65ac:	ae000090 	sw	zero,144(s0)
    65b0:	ae0000d0 	sw	zero,208(s0)
    65b4:	ae000110 	sw	zero,272(s0)
    65b8:	ae000150 	sw	zero,336(s0)
    65bc:	ae000014 	sw	zero,20(s0)
    65c0:	ae000054 	sw	zero,84(s0)
    65c4:	ae000094 	sw	zero,148(s0)
    65c8:	ae0000d4 	sw	zero,212(s0)
    65cc:	ae000154 	sw	zero,340(s0)
    65d0:	08001641 	j	5904 <main+0xf4>
    65d4:	ae000114 	sw	zero,276(s0)
    65d8:	0c0001d9 	jal	764 <get_next_task_request>
    65dc:	00000000 	nop
    65e0:	10400005 	beqz	v0,65f8 <main+0xde8>
    65e4:	00000000 	nop
    65e8:	0c00097e 	jal	25f8 <handle_task_request>
    65ec:	00402021 	move	a0,v0
    65f0:	08001642 	j	5908 <main+0xf8>
    65f4:	3c102000 	lui	s0,0x2000
    65f8:	3c020005 	lui	v0,0x5
    65fc:	90421430 	lbu	v0,5168(v0)
    6600:	00000000 	nop
    6604:	1040fcbf 	beqz	v0,5904 <main+0xf4>
    6608:	00000000 	nop
    660c:	0c0001ab 	jal	6ac <get_next_new_task>
    6610:	00000000 	nop
    6614:	10400005 	beqz	v0,662c <main+0xe1c>
    6618:	00000000 	nop
    661c:	0c000657 	jal	195c <handle_new_task>
    6620:	00402021 	move	a0,v0
    6624:	08001642 	j	5908 <main+0xf8>
    6628:	3c102000 	lui	s0,0x2000
    662c:	36020350 	ori	v0,s0,0x350
    6630:	8c420000 	lw	v0,0(v0)
    6634:	00000000 	nop
    6638:	0441fcb2 	bgez	v0,5904 <main+0xf4>
    663c:	00000000 	nop
    6640:	0c000d0d 	jal	3434 <handle_app_request>
    6644:	3c102000 	lui	s0,0x2000
    6648:	08001643 	j	590c <main+0xfc>
    664c:	36020020 	ori	v0,s0,0x20
