
iquant_1_debug.bin: formato do arquivo elf32-bigmips

Disassembly of section .text:

00000000 <entry>:
   0:	241d3fff 	li	sp,16383
   4:	0c00014f 	jal	53c <main>
   8:	00000000 	nop
   c:	00002021 	move	a0,zero
  10:	0000000c 	syscall
  14:	00000000 	nop
  18:	08000006 	j	18 <entry+0x18>
  1c:	00000000 	nop

00000020 <SystemCall>:
  20:	0000000c 	syscall
  24:	00000000 	nop
  28:	03e00008 	jr	ra
  2c:	00000000 	nop

00000030 <itoa>:
  30:	14800007 	bnez	a0,50 <itoa+0x20>
  34:	3c050004 	lui	a1,0x4
  38:	24a30794 	addiu	v1,a1,1940
  3c:	24020030 	li	v0,48
  40:	00602021 	move	a0,v1
  44:	a0a20794 	sb	v0,1940(a1)
  48:	08000045 	j	114 <itoa+0xe4>
  4c:	a0600001 	sb	zero,1(v1)
  50:	3c02cccc 	lui	v0,0xcccc
  54:	3442cccd 	ori	v0,v0,0xcccd
  58:	00820019 	multu	a0,v0
  5c:	00404021 	move	t0,v0
  60:	24a70794 	addiu	a3,a1,1940
  64:	24060001 	li	a2,1
  68:	2409000b 	li	t1,11
  6c:	00001810 	mfhi	v1
  70:	000318c2 	srl	v1,v1,0x3
  74:	000310c0 	sll	v0,v1,0x3
  78:	00031840 	sll	v1,v1,0x1
  7c:	00621821 	addu	v1,v1,v0
  80:	00831823 	subu	v1,a0,v1
  84:	24630030 	addiu	v1,v1,48
  88:	0800002f 	j	bc <itoa+0x8c>
  8c:	a0a30794 	sb	v1,1940(a1)
  90:	00880019 	multu	a0,t0
  94:	24c60001 	addiu	a2,a2,1
  98:	00001010 	mfhi	v0
  9c:	000210c2 	srl	v0,v0,0x3
  a0:	000218c0 	sll	v1,v0,0x3
  a4:	00021040 	sll	v0,v0,0x1
  a8:	00431021 	addu	v0,v0,v1
  ac:	00821023 	subu	v0,a0,v0
  b0:	24420030 	addiu	v0,v0,48
  b4:	10c90006 	beq	a2,t1,d0 <itoa+0xa0>
  b8:	a0e20000 	sb	v0,0(a3)
  bc:	00880019 	multu	a0,t0
  c0:	00001010 	mfhi	v0
  c4:	000220c2 	srl	a0,v0,0x3
  c8:	1480fff1 	bnez	a0,90 <itoa+0x60>
  cc:	24e70001 	addiu	a3,a3,1
  d0:	3c020004 	lui	v0,0x4
  d4:	24420788 	addiu	v0,v0,1928
  d8:	24c4ffff 	addiu	a0,a2,-1
  dc:	3c030004 	lui	v1,0x4
  e0:	00822821 	addu	a1,a0,v0
  e4:	24630794 	addiu	v1,v1,1940
  e8:	00c21021 	addu	v0,a2,v0
  ec:	08000040 	j	100 <itoa+0xd0>
  f0:	a0400000 	sb	zero,0(v0)
  f4:	9062ffff 	lbu	v0,-1(v1)
  f8:	2484ffff 	addiu	a0,a0,-1
  fc:	a0a20001 	sb	v0,1(a1)
 100:	24630001 	addiu	v1,v1,1
 104:	0481fffb 	bgez	a0,f4 <itoa+0xc4>
 108:	24a5ffff 	addiu	a1,a1,-1
 10c:	3c020004 	lui	v0,0x4
 110:	24440788 	addiu	a0,v0,1928
 114:	03e00008 	jr	ra
 118:	00801021 	move	v0,a0

0000011c <itoh>:
 11c:	3c020004 	lui	v0,0x4
 120:	24050030 	li	a1,48
 124:	2443077c 	addiu	v1,v0,1916
 128:	a045077c 	sb	a1,1916(v0)
 12c:	24020078 	li	v0,120
 130:	a0620001 	sb	v0,1(v1)
 134:	1480000a 	bnez	a0,160 <itoh+0x44>
 138:	a060000a 	sb	zero,10(v1)
 13c:	a0650009 	sb	a1,9(v1)
 140:	a0650002 	sb	a1,2(v1)
 144:	a0650003 	sb	a1,3(v1)
 148:	a0650004 	sb	a1,4(v1)
 14c:	a0650005 	sb	a1,5(v1)
 150:	a0650006 	sb	a1,6(v1)
 154:	a0650007 	sb	a1,7(v1)
 158:	08000068 	j	1a0 <itoh+0x84>
 15c:	a0650008 	sb	a1,8(v1)
 160:	3c020004 	lui	v0,0x4
 164:	24450785 	addiu	a1,v0,1925
 168:	3c020004 	lui	v0,0x4
 16c:	2447077d 	addiu	a3,v0,1917
 170:	3082000f 	andi	v0,a0,0xf
 174:	24460030 	addiu	a2,v0,48
 178:	24430057 	addiu	v1,v0,87
 17c:	2c42000a 	sltiu	v0,v0,10
 180:	10400003 	beqz	v0,190 <itoh+0x74>
 184:	00000000 	nop
 188:	08000065 	j	194 <itoh+0x78>
 18c:	a0a60000 	sb	a2,0(a1)
 190:	a0a30000 	sb	v1,0(a1)
 194:	24a5ffff 	addiu	a1,a1,-1
 198:	14a7fff5 	bne	a1,a3,170 <itoh+0x54>
 19c:	00042102 	srl	a0,a0,0x4
 1a0:	3c020004 	lui	v0,0x4
 1a4:	03e00008 	jr	ra
 1a8:	2442077c 	addiu	v0,v0,1916

000001ac <abs>:
 1ac:	04810002 	bgez	a0,1b8 <abs+0xc>
 1b0:	00801021 	move	v0,a0
 1b4:	00041023 	negu	v0,a0
 1b8:	03e00008 	jr	ra
 1bc:	00000000 	nop

000001c0 <rand>:
 1c0:	30820001 	andi	v0,a0,0x1
 1c4:	00021023 	negu	v0,v0
 1c8:	3042b400 	andi	v0,v0,0xb400
 1cc:	00042043 	sra	a0,a0,0x1
 1d0:	00822026 	xor	a0,a0,v0
 1d4:	14c00002 	bnez	a2,1e0 <rand+0x20>
 1d8:	0086001a 	div	zero,a0,a2
 1dc:	0007000d 	break	0x7
 1e0:	00001010 	mfhi	v0
 1e4:	03e00008 	jr	ra
 1e8:	00451021 	addu	v0,v0,a1

000001ec <add>:
 1ec:	03e00008 	jr	ra
 1f0:	00851021 	addu	v0,a0,a1

000001f4 <sub>:
 1f4:	03e00008 	jr	ra
 1f8:	00851023 	subu	v0,a0,a1

000001fc <memset>:
 1fc:	00801021 	move	v0,a0
 200:	08000084 	j	210 <memset+0x14>
 204:	00801821 	move	v1,a0
 208:	a0650000 	sb	a1,0(v1)
 20c:	24630001 	addiu	v1,v1,1
 210:	1cc0fffd 	bgtz	a2,208 <memset+0xc>
 214:	24c6ffff 	addiu	a2,a2,-1
 218:	03e00008 	jr	ra
 21c:	00000000 	nop

00000220 <fixetoa>:
 220:	0481003c 	bgez	a0,314 <fixetoa+0xf4>
 224:	00801021 	move	v0,a0
 228:	3c020004 	lui	v0,0x4
 22c:	2447076c 	addiu	a3,v0,1900
 230:	3c026666 	lui	v0,0x6666
 234:	00042823 	negu	a1,a0
 238:	344a6667 	ori	t2,v0,0x6667
 23c:	00003021 	move	a2,zero
 240:	24090030 	li	t1,48
 244:	080000a3 	j	28c <fixetoa+0x6c>
 248:	2408000c 	li	t0,12
 24c:	080000a0 	j	280 <fixetoa+0x60>
 250:	a0e90000 	sb	t1,0(a3)
 254:	00aa0018 	mult	a1,t2
 258:	00001010 	mfhi	v0
 25c:	00021083 	sra	v0,v0,0x2
 260:	00431023 	subu	v0,v0,v1
 264:	00021840 	sll	v1,v0,0x1
 268:	000220c0 	sll	a0,v0,0x3
 26c:	00641821 	addu	v1,v1,a0
 270:	00a31823 	subu	v1,a1,v1
 274:	24630030 	addiu	v1,v1,48
 278:	00402821 	move	a1,v0
 27c:	a0e30000 	sb	v1,0(a3)
 280:	24c60001 	addiu	a2,a2,1
 284:	10c80006 	beq	a2,t0,2a0 <fixetoa+0x80>
 288:	24e70001 	addiu	a3,a3,1
 28c:	00051fc3 	sra	v1,a1,0x1f
 290:	14a0fff0 	bnez	a1,254 <fixetoa+0x34>
 294:	28c20005 	slti	v0,a2,5
 298:	1440ffec 	bnez	v0,24c <fixetoa+0x2c>
 29c:	00000000 	nop
 2a0:	3c030004 	lui	v1,0x4
 2a4:	2463075c 	addiu	v1,v1,1884
 2a8:	3c020004 	lui	v0,0x4
 2ac:	24c40001 	addiu	a0,a2,1
 2b0:	00604021 	move	t0,v1
 2b4:	2447076c 	addiu	a3,v0,1900
 2b8:	00c31821 	addu	v1,a2,v1
 2bc:	00002821 	move	a1,zero
 2c0:	24090004 	li	t1,4
 2c4:	2406002e 	li	a2,46
 2c8:	080000be 	j	2f8 <fixetoa+0xd8>
 2cc:	a0600002 	sb	zero,2(v1)
 2d0:	14a90003 	bne	a1,t1,2e0 <fixetoa+0xc0>
 2d4:	00000000 	nop
 2d8:	a0460000 	sb	a2,0(v0)
 2dc:	2484ffff 	addiu	a0,a0,-1
 2e0:	90e30000 	lbu	v1,0(a3)
 2e4:	00881021 	addu	v0,a0,t0
 2e8:	24a50001 	addiu	a1,a1,1
 2ec:	a0430000 	sb	v1,0(v0)
 2f0:	2484ffff 	addiu	a0,a0,-1
 2f4:	24e70001 	addiu	a3,a3,1
 2f8:	0481fff5 	bgez	a0,2d0 <fixetoa+0xb0>
 2fc:	00881021 	addu	v0,a0,t0
 300:	3c030004 	lui	v1,0x4
 304:	2402002d 	li	v0,45
 308:	2465075c 	addiu	a1,v1,1884
 30c:	08000104 	j	410 <fixetoa+0x1f0>
 310:	a062075c 	sb	v0,1884(v1)
 314:	10400005 	beqz	v0,32c <fixetoa+0x10c>
 318:	3c040004 	lui	a0,0x4
 31c:	00402821 	move	a1,v0
 320:	2487076c 	addiu	a3,a0,1900
 324:	080000e5 	j	394 <fixetoa+0x174>
 328:	00003021 	move	a2,zero
 32c:	2483076c 	addiu	v1,a0,1900
 330:	24020030 	li	v0,48
 334:	00602821 	move	a1,v1
 338:	a082076c 	sb	v0,1900(a0)
 33c:	08000104 	j	410 <fixetoa+0x1f0>
 340:	a0600001 	sb	zero,1(v1)
 344:	24020030 	li	v0,48
 348:	080000e1 	j	384 <fixetoa+0x164>
 34c:	a0e20000 	sb	v0,0(a3)
 350:	3c026666 	lui	v0,0x6666
 354:	34426667 	ori	v0,v0,0x6667
 358:	00a20018 	mult	a1,v0
 35c:	00001010 	mfhi	v0
 360:	00021083 	sra	v0,v0,0x2
 364:	00431023 	subu	v0,v0,v1
 368:	00021840 	sll	v1,v0,0x1
 36c:	000220c0 	sll	a0,v0,0x3
 370:	00641821 	addu	v1,v1,a0
 374:	00a31823 	subu	v1,a1,v1
 378:	24630030 	addiu	v1,v1,48
 37c:	00402821 	move	a1,v0
 380:	a0e30000 	sb	v1,0(a3)
 384:	24c60001 	addiu	a2,a2,1
 388:	2402000c 	li	v0,12
 38c:	10c20006 	beq	a2,v0,3a8 <fixetoa+0x188>
 390:	24e70001 	addiu	a3,a3,1
 394:	00051fc3 	sra	v1,a1,0x1f
 398:	14a0ffed 	bnez	a1,350 <fixetoa+0x130>
 39c:	28c20005 	slti	v0,a2,5
 3a0:	1440ffe8 	bnez	v0,344 <fixetoa+0x124>
 3a4:	00000000 	nop
 3a8:	3c030004 	lui	v1,0x4
 3ac:	2463075c 	addiu	v1,v1,1884
 3b0:	3c020004 	lui	v0,0x4
 3b4:	00c02021 	move	a0,a2
 3b8:	00604021 	move	t0,v1
 3bc:	2447076c 	addiu	a3,v0,1900
 3c0:	00c31821 	addu	v1,a2,v1
 3c4:	00002821 	move	a1,zero
 3c8:	24090004 	li	t1,4
 3cc:	2406002e 	li	a2,46
 3d0:	08000100 	j	400 <fixetoa+0x1e0>
 3d4:	a0600001 	sb	zero,1(v1)
 3d8:	14a90003 	bne	a1,t1,3e8 <fixetoa+0x1c8>
 3dc:	00000000 	nop
 3e0:	a0460000 	sb	a2,0(v0)
 3e4:	2484ffff 	addiu	a0,a0,-1
 3e8:	90e30000 	lbu	v1,0(a3)
 3ec:	00881021 	addu	v0,a0,t0
 3f0:	24a50001 	addiu	a1,a1,1
 3f4:	a0430000 	sb	v1,0(v0)
 3f8:	2484ffff 	addiu	a0,a0,-1
 3fc:	24e70001 	addiu	a3,a3,1
 400:	0481fff5 	bgez	a0,3d8 <fixetoa+0x1b8>
 404:	00881021 	addu	v0,a0,t0
 408:	3c020004 	lui	v0,0x4
 40c:	2445075c 	addiu	a1,v0,1884
 410:	03e00008 	jr	ra
 414:	00a01021 	move	v0,a1

00000418 <strcpy>:
 418:	00801821 	move	v1,a0
 41c:	80a20000 	lb	v0,0(a1)
 420:	24a50001 	addiu	a1,a1,1
 424:	a0620000 	sb	v0,0(v1)
 428:	1440fffc 	bnez	v0,41c <strcpy+0x4>
 42c:	24630001 	addiu	v1,v1,1
 430:	03e00008 	jr	ra
 434:	00801021 	move	v0,a0

00000438 <strlen>:
 438:	00801821 	move	v1,a0
 43c:	80620000 	lb	v0,0(v1)
 440:	00000000 	nop
 444:	1440fffd 	bnez	v0,43c <strlen+0x4>
 448:	24630001 	addiu	v1,v1,1
 44c:	00641023 	subu	v0,v1,a0
 450:	03e00008 	jr	ra
 454:	2442ffff 	addiu	v0,v0,-1

00000458 <iquant_func>:
 458:	8c820000 	lw	v0,0(a0)
 45c:	24030003 	li	v1,3
 460:	00661823 	subu	v1,v1,a2
 464:	00625804 	sllv	t3,v0,v1
 468:	3c020004 	lui	v0,0x4
 46c:	ac8b0000 	sw	t3,0(a0)
 470:	2459071c 	addiu	t9,v0,1820
 474:	00057080 	sll	t6,a1,0x2
 478:	00805021 	move	t2,a0
 47c:	00006821 	move	t5,zero
 480:	24180008 	li	t8,8
 484:	240f0008 	li	t7,8
 488:	000d10c0 	sll	v0,t5,0x3
 48c:	00594821 	addu	t1,v0,t9
 490:	01404021 	move	t0,t2
 494:	00006021 	move	t4,zero
 498:	01ac1025 	or	v0,t5,t4
 49c:	10400014 	beqz	v0,4f0 <iquant_func+0x98>
 4a0:	00000000 	nop
 4a4:	91220000 	lbu	v0,0(t1)
 4a8:	8d030000 	lw	v1,0(t0)
 4ac:	00e20018 	mult	a3,v0
 4b0:	00001012 	mflo	v0
	...
 4bc:	00430018 	mult	v0,v1
 4c0:	00001012 	mflo	v0
 4c4:	00021903 	sra	v1,v0,0x4
 4c8:	2862f800 	slti	v0,v1,-2048
 4cc:	10400003 	beqz	v0,4dc <iquant_func+0x84>
 4d0:	28660800 	slti	a2,v1,2048
 4d4:	0800013a 	j	4e8 <iquant_func+0x90>
 4d8:	2403f800 	li	v1,-2048
 4dc:	14c00002 	bnez	a2,4e8 <iquant_func+0x90>
 4e0:	00000000 	nop
 4e4:	240307ff 	li	v1,2047
 4e8:	01635821 	addu	t3,t3,v1
 4ec:	ad030000 	sw	v1,0(t0)
 4f0:	258c0001 	addiu	t4,t4,1
 4f4:	25080004 	addiu	t0,t0,4
 4f8:	1598ffe7 	bne	t4,t8,498 <iquant_func+0x40>
 4fc:	25290001 	addiu	t1,t1,1
 500:	25ad0001 	addiu	t5,t5,1
 504:	15afffe0 	bne	t5,t7,488 <iquant_func+0x30>
 508:	014e5021 	addu	t2,t2,t6
 50c:	000510c0 	sll	v0,a1,0x3
 510:	31630001 	andi	v1,t3,0x1
 514:	14600007 	bnez	v1,534 <iquant_func+0xdc>
 518:	00451023 	subu	v0,v0,a1
 51c:	00021880 	sll	v1,v0,0x2
 520:	00831821 	addu	v1,a0,v1
 524:	8c62001c 	lw	v0,28(v1)
 528:	00000000 	nop
 52c:	38420001 	xori	v0,v0,0x1
 530:	ac62001c 	sw	v0,28(v1)
 534:	03e00008 	jr	ra
 538:	00000000 	nop

0000053c <main>:
 53c:	3c050000 	lui	a1,0x0
 540:	27bdfee0 	addiu	sp,sp,-288
 544:	24a506ec 	addiu	a1,a1,1772
 548:	24040004 	li	a0,4
 54c:	00003021 	move	a2,zero
 550:	00003821 	move	a3,zero
 554:	afbf011c 	sw	ra,284(sp)
 558:	afb10114 	sw	s1,276(sp)
 55c:	afb20118 	sw	s2,280(sp)
 560:	0c000008 	jal	20 <SystemCall>
 564:	afb00110 	sw	s0,272(sp)
 568:	00002821 	move	a1,zero
 56c:	00003021 	move	a2,zero
 570:	00003821 	move	a3,zero
 574:	0c000008 	jal	20 <SystemCall>
 578:	24040003 	li	a0,3
 57c:	0c00000c 	jal	30 <itoa>
 580:	00402021 	move	a0,v0
 584:	00402821 	move	a1,v0
 588:	24040004 	li	a0,4
 58c:	00003021 	move	a2,zero
 590:	0c000008 	jal	20 <SystemCall>
 594:	00003821 	move	a3,zero
 598:	00008821 	move	s1,zero
 59c:	3c100004 	lui	s0,0x4
 5a0:	261207a0 	addiu	s2,s0,1952
 5a4:	24040002 	li	a0,2
 5a8:	02402821 	move	a1,s2
 5ac:	24060002 	li	a2,2
 5b0:	0c000008 	jal	20 <SystemCall>
 5b4:	00003821 	move	a3,zero
 5b8:	1040fff8 	beqz	v0,59c <main+0x60>
 5bc:	3c020004 	lui	v0,0x4
 5c0:	8e0607a0 	lw	a2,1952(s0)
 5c4:	244507a4 	addiu	a1,v0,1956
 5c8:	00002021 	move	a0,zero
 5cc:	08000178 	j	5e0 <main+0xa4>
 5d0:	27a30010 	addiu	v1,sp,16
 5d4:	8ca2fffc 	lw	v0,-4(a1)
 5d8:	00000000 	nop
 5dc:	ac62fffc 	sw	v0,-4(v1)
 5e0:	0086102a 	slt	v0,a0,a2
 5e4:	24a50004 	addiu	a1,a1,4
 5e8:	24840001 	addiu	a0,a0,1
 5ec:	1440fff9 	bnez	v0,5d4 <main+0x98>
 5f0:	24630004 	addiu	v1,v1,4
 5f4:	27b00010 	addiu	s0,sp,16
 5f8:	02002021 	move	a0,s0
 5fc:	24050008 	li	a1,8
 600:	00003021 	move	a2,zero
 604:	0c000116 	jal	458 <iquant_func>
 608:	24070001 	li	a3,1
 60c:	3c020004 	lui	v0,0x4
 610:	24030040 	li	v1,64
 614:	ac4307a0 	sw	v1,1952(v0)
 618:	3c020004 	lui	v0,0x4
 61c:	244507a4 	addiu	a1,v0,1956
 620:	00002021 	move	a0,zero
 624:	24060040 	li	a2,64
 628:	8e020000 	lw	v0,0(s0)
 62c:	24840001 	addiu	a0,a0,1
 630:	0086182a 	slt	v1,a0,a2
 634:	aca20000 	sw	v0,0(a1)
 638:	26100004 	addiu	s0,s0,4
 63c:	1460fffa 	bnez	v1,628 <main+0xec>
 640:	24a50004 	addiu	a1,a1,4
 644:	24040001 	li	a0,1
 648:	02402821 	move	a1,s2
 64c:	00003021 	move	a2,zero
 650:	0c000008 	jal	20 <SystemCall>
 654:	00003821 	move	a3,zero
 658:	1040fffb 	beqz	v0,648 <main+0x10c>
 65c:	24040001 	li	a0,1
 660:	26310001 	addiu	s1,s1,1
 664:	2a220014 	slti	v0,s1,20
 668:	1440ffcc 	bnez	v0,59c <main+0x60>
 66c:	00002821 	move	a1,zero
 670:	00003021 	move	a2,zero
 674:	00003821 	move	a3,zero
 678:	0c000008 	jal	20 <SystemCall>
 67c:	24040003 	li	a0,3
 680:	0c00000c 	jal	30 <itoa>
 684:	00402021 	move	a0,v0
 688:	00402821 	move	a1,v0
 68c:	24040004 	li	a0,4
 690:	00003021 	move	a2,zero
 694:	0c000008 	jal	20 <SystemCall>
 698:	00003821 	move	a3,zero
 69c:	3c050000 	lui	a1,0x0
 6a0:	24a50708 	addiu	a1,a1,1800
 6a4:	24040004 	li	a0,4
 6a8:	00003021 	move	a2,zero
 6ac:	0c000008 	jal	20 <SystemCall>
 6b0:	00003821 	move	a3,zero
 6b4:	00002021 	move	a0,zero
 6b8:	00002821 	move	a1,zero
 6bc:	00003021 	move	a2,zero
 6c0:	0c000008 	jal	20 <SystemCall>
 6c4:	00003821 	move	a3,zero
 6c8:	1040fffb 	beqz	v0,6b8 <main+0x17c>
 6cc:	00002021 	move	a0,zero
 6d0:	8fbf011c 	lw	ra,284(sp)
 6d4:	8fb20118 	lw	s2,280(sp)
 6d8:	8fb10114 	lw	s1,276(sp)
 6dc:	8fb00110 	lw	s0,272(sp)
 6e0:	00001021 	move	v0,zero
 6e4:	03e00008 	jr	ra
 6e8:	27bd0120 	addiu	sp,sp,288
