
modelo_0_debug.bin:     file format elf32-bigmips

Disassembly of section .text:

00000000 <main>:
       0:	00021040 	sll	v0,v0,0x1
       4:	27bdff48 	addiu	sp,sp,-184
       8:	00421021 	addu	v0,v0,v0
       c:	afbe0080 	sw	s8,128(sp)
      10:	afb7007c 	sw	s7,124(sp)
      14:	afb60078 	sw	s6,120(sp)
      18:	afb50074 	sw	s5,116(sp)
      1c:	afb40070 	sw	s4,112(sp)
      20:	afb3006c 	sw	s3,108(sp)
      24:	afb20068 	sw	s2,104(sp)
      28:	afb10064 	sw	s1,100(sp)
      2c:	afb00060 	sw	s0,96(sp)
      30:	e7be00b4 	swc1	$f30,180(sp)
      34:	e7bf00b0 	swc1	$f31,176(sp)
      38:	e7bc00ac 	swc1	$f28,172(sp)
      3c:	e7bd00a8 	swc1	$f29,168(sp)
      40:	e7ba00a4 	swc1	$f26,164(sp)
      44:	e7bb00a0 	swc1	$f27,160(sp)
      48:	e7b8009c 	swc1	$f24,156(sp)
      4c:	e7b90098 	swc1	$f25,152(sp)
      50:	e7b60094 	swc1	$f22,148(sp)
      54:	e7b70090 	swc1	$f23,144(sp)
      58:	e7b4008c 	swc1	$f20,140(sp)
      5c:	e7b50088 	swc1	$f21,136(sp)
      60:	14400005 	bnez	v0,78 <main+0x78>
      64:	afa2002c 	sw	v0,44(sp)
      68:	104000d0 	beqz	v0,3ac <main+0x3ac>
      6c:	3c130005 	lui	s3,0x5
      70:	080016bd 	j	5af4 <main+0x5af4>
      74:	3c020005 	lui	v0,0x5
      78:	3c020005 	lui	v0,0x5
      7c:	8c43be0c 	lw	v1,-16884(v0)
      80:	3c040005 	lui	a0,0x5
      84:	00031140 	sll	v0,v1,0x5
      88:	00031880 	sll	v1,v1,0x2
      8c:	00621821 	addu	v1,v1,v0
      90:	3c020005 	lui	v0,0x5
      94:	2442bb3c 	addiu	v0,v0,-17604
      98:	00621821 	addu	v1,v1,v0
      9c:	3c020000 	lui	v0,0x0
      a0:	c4405c28 	lwc1	$f0,23592(v0)
      a4:	c4640000 	lwc1	$f4,0(v1)
      a8:	c4660004 	lwc1	$f6,4(v1)
      ac:	c4680008 	lwc1	$f8,8(v1)
      b0:	c46a000c 	lwc1	$f10,12(v1)
      b4:	c46c0010 	lwc1	$f12,16(v1)
      b8:	c46e0014 	lwc1	$f14,20(v1)
      bc:	c4700018 	lwc1	$f16,24(v1)
      c0:	c462001c 	lwc1	$f2,28(v1)
      c4:	46002103 	div.s	$f4,$f4,$f0
      c8:	46001083 	div.s	$f2,$f2,$f0
      cc:	46003183 	div.s	$f6,$f6,$f0
      d0:	46004203 	div.s	$f8,$f8,$f0
      d4:	46005283 	div.s	$f10,$f10,$f0
      d8:	46006303 	div.s	$f12,$f12,$f0
      dc:	46007383 	div.s	$f14,$f14,$f0
      e0:	46008403 	div.s	$f16,$f16,$f0
      e4:	2482bb18 	addiu	v0,a0,-17640
      e8:	c480bb18 	lwc1	$f0,-17640(a0)
      ec:	c4520004 	lwc1	$f18,4(v0)
      f0:	c4540008 	lwc1	$f20,8(v0)
      f4:	c456000c 	lwc1	$f22,12(v0)
      f8:	c4580010 	lwc1	$f24,16(v0)
      fc:	c45a0014 	lwc1	$f26,20(v0)
     100:	c45c0018 	lwc1	$f28,24(v0)
     104:	c45e001c 	lwc1	$f30,28(v0)
     108:	46002100 	add.s	$f4,$f4,$f0
     10c:	46123180 	add.s	$f6,$f6,$f18
     110:	46144200 	add.s	$f8,$f8,$f20
     114:	46165280 	add.s	$f10,$f10,$f22
     118:	46186300 	add.s	$f12,$f12,$f24
     11c:	461a7380 	add.s	$f14,$f14,$f26
     120:	461c8400 	add.s	$f16,$f16,$f28
     124:	461e1080 	add.s	$f2,$f2,$f30
     128:	e484bb18 	swc1	$f4,-17640(a0)
     12c:	e442001c 	swc1	$f2,28(v0)
     130:	e4460004 	swc1	$f6,4(v0)
     134:	e4480008 	swc1	$f8,8(v0)
     138:	e44a000c 	swc1	$f10,12(v0)
     13c:	e44c0010 	swc1	$f12,16(v0)
     140:	e44e0014 	swc1	$f14,20(v0)
     144:	e4500018 	swc1	$f16,24(v0)
     148:	ac600000 	sw	zero,0(v1)
     14c:	ac600004 	sw	zero,4(v1)
     150:	ac600008 	sw	zero,8(v1)
     154:	ac60000c 	sw	zero,12(v1)
     158:	ac600010 	sw	zero,16(v1)
     15c:	ac600014 	sw	zero,20(v1)
     160:	ac600018 	sw	zero,24(v1)
     164:	080016e0 	j	5b80 <main+0x5b80>
     168:	ac60001c 	sw	zero,28(v1)
     16c:	46001080 	add.s	$f2,$f2,$f0
     170:	ac600000 	sw	zero,0(v1)
     174:	e482bb18 	swc1	$f2,-17640(a0)
     178:	104002fd 	beqz	v0,d70 <main+0xd70>
     17c:	3c150005 	lui	s5,0x5
     180:	3c020005 	lui	v0,0x5
     184:	8c52be0c 	lw	s2,-16884(v0)
     188:	26a4bb3c 	addiu	a0,s5,-17604
     18c:	00121140 	sll	v0,s2,0x5
     190:	00121880 	sll	v1,s2,0x2
     194:	00621821 	addu	v1,v1,v0
     198:	00641821 	addu	v1,v1,a0
     19c:	3c040000 	lui	a0,0x0
     1a0:	c4825c28 	lwc1	$f2,23592(a0)
     1a4:	c4600004 	lwc1	$f0,4(v1)
     1a8:	3c050005 	lui	a1,0x5
     1ac:	24a4bb18 	addiu	a0,a1,-17640
     1b0:	8fa6002c 	lw	a2,44(sp)
     1b4:	46020003 	div.s	$f0,$f0,$f2
     1b8:	24020002 	li	v0,2
     1bc:	c4820004 	lwc1	$f2,4(a0)
     1c0:	ac600004 	sw	zero,4(v1)
     1c4:	00461023 	subu	v0,v0,a2
     1c8:	46020000 	add.s	$f0,$f0,$f2
     1cc:	10400558 	beqz	v0,1730 <main+0x1730>
     1d0:	e4800004 	swc1	$f0,4(a0)
     1d4:	080016ce 	j	5b38 <main+0x5b38>
     1d8:	3c020005 	lui	v0,0x5
     1dc:	46001080 	add.s	$f2,$f2,$f0
     1e0:	ac800008 	sw	zero,8(a0)
     1e4:	e4620008 	swc1	$f2,8(v1)
     1e8:	10a007c1 	beqz	a1,20f0 <main+0x20f0>
     1ec:	3c150005 	lui	s5,0x5
     1f0:	3c080005 	lui	t0,0x5
     1f4:	8d12be0c 	lw	s2,-16884(t0)
     1f8:	26a4bb3c 	addiu	a0,s5,-17604
     1fc:	00121140 	sll	v0,s2,0x5
     200:	00121880 	sll	v1,s2,0x2
     204:	00621821 	addu	v1,v1,v0
     208:	00641821 	addu	v1,v1,a0
     20c:	3c090000 	lui	t1,0x0
     210:	c5225c28 	lwc1	$f2,23592(t1)
     214:	c460000c 	lwc1	$f0,12(v1)
     218:	3c0a0005 	lui	t2,0x5
     21c:	2544bb18 	addiu	a0,t2,-17640
     220:	8fab002c 	lw	t3,44(sp)
     224:	46020003 	div.s	$f0,$f0,$f2
     228:	24020004 	li	v0,4
     22c:	c482000c 	lwc1	$f2,12(a0)
     230:	ac60000c 	sw	zero,12(v1)
     234:	004b1023 	subu	v0,v0,t3
     238:	46020000 	add.s	$f0,$f0,$f2
     23c:	3c150005 	lui	s5,0x5
     240:	10400a1b 	beqz	v0,2ab0 <main+0x2ab0>
     244:	e480000c 	swc1	$f0,12(a0)
     248:	3c0c0005 	lui	t4,0x5
     24c:	8d92be0c 	lw	s2,-16884(t4)
     250:	26a4bb3c 	addiu	a0,s5,-17604
     254:	00121140 	sll	v0,s2,0x5
     258:	00121880 	sll	v1,s2,0x2
     25c:	00621821 	addu	v1,v1,v0
     260:	00641821 	addu	v1,v1,a0
     264:	3c0d0000 	lui	t5,0x0
     268:	c4600010 	lwc1	$f0,16(v1)
     26c:	c5a25c28 	lwc1	$f2,23592(t5)
     270:	3c020005 	lui	v0,0x5
     274:	2444bb18 	addiu	a0,v0,-17640
     278:	ac600010 	sw	zero,16(v1)
     27c:	8fa3002c 	lw	v1,44(sp)
     280:	46020003 	div.s	$f0,$f0,$f2
     284:	24020005 	li	v0,5
     288:	c4820010 	lwc1	$f2,16(a0)
     28c:	00431023 	subu	v0,v0,v1
     290:	46020000 	add.s	$f0,$f0,$f2
     294:	3c150005 	lui	s5,0x5
     298:	10400c75 	beqz	v0,3470 <main+0x3470>
     29c:	e4800010 	swc1	$f0,16(a0)
     2a0:	3c040005 	lui	a0,0x5
     2a4:	8c92be0c 	lw	s2,-16884(a0)
     2a8:	26a4bb3c 	addiu	a0,s5,-17604
     2ac:	00121140 	sll	v0,s2,0x5
     2b0:	00121880 	sll	v1,s2,0x2
     2b4:	00621821 	addu	v1,v1,v0
     2b8:	00641821 	addu	v1,v1,a0
     2bc:	3c050000 	lui	a1,0x0
     2c0:	c4a25c28 	lwc1	$f2,23592(a1)
     2c4:	c4600014 	lwc1	$f0,20(v1)
     2c8:	3c060005 	lui	a2,0x5
     2cc:	24c4bb18 	addiu	a0,a2,-17640
     2d0:	8fa8002c 	lw	t0,44(sp)
     2d4:	46020003 	div.s	$f0,$f0,$f2
     2d8:	24020006 	li	v0,6
     2dc:	c4820014 	lwc1	$f2,20(a0)
     2e0:	ac600014 	sw	zero,20(v1)
     2e4:	00481023 	subu	v0,v0,t0
     2e8:	46020000 	add.s	$f0,$f0,$f2
     2ec:	3c150005 	lui	s5,0x5
     2f0:	10400ecf 	beqz	v0,3e30 <main+0x3e30>
     2f4:	e4800014 	swc1	$f0,20(a0)
     2f8:	3c090005 	lui	t1,0x5
     2fc:	8d32be0c 	lw	s2,-16884(t1)
     300:	26a4bb3c 	addiu	a0,s5,-17604
     304:	00121140 	sll	v0,s2,0x5
     308:	00121880 	sll	v1,s2,0x2
     30c:	00621821 	addu	v1,v1,v0
     310:	00641821 	addu	v1,v1,a0
     314:	3c0a0000 	lui	t2,0x0
     318:	c5425c28 	lwc1	$f2,23592(t2)
     31c:	c4600018 	lwc1	$f0,24(v1)
     320:	3c0b0005 	lui	t3,0x5
     324:	2564bb18 	addiu	a0,t3,-17640
     328:	8fac002c 	lw	t4,44(sp)
     32c:	46020003 	div.s	$f0,$f0,$f2
     330:	24020007 	li	v0,7
     334:	c4820018 	lwc1	$f2,24(a0)
     338:	ac600018 	sw	zero,24(v1)
     33c:	004c1023 	subu	v0,v0,t4
     340:	46020000 	add.s	$f0,$f0,$f2
     344:	3c150005 	lui	s5,0x5
     348:	10401129 	beqz	v0,47f0 <main+0x47f0>
     34c:	e4800018 	swc1	$f0,24(a0)
     350:	3c0d0005 	lui	t5,0x5
     354:	8db2be0c 	lw	s2,-16884(t5)
     358:	26a4bb3c 	addiu	a0,s5,-17604
     35c:	00121140 	sll	v0,s2,0x5
     360:	00121880 	sll	v1,s2,0x2
     364:	00621821 	addu	v1,v1,v0
     368:	00641821 	addu	v1,v1,a0
     36c:	3c020000 	lui	v0,0x0
     370:	c4425c28 	lwc1	$f2,23592(v0)
     374:	c460001c 	lwc1	$f0,28(v1)
     378:	3c050005 	lui	a1,0x5
     37c:	24a4bb18 	addiu	a0,a1,-17640
     380:	8fa6002c 	lw	a2,44(sp)
     384:	46020003 	div.s	$f0,$f0,$f2
     388:	24020008 	li	v0,8
     38c:	c482001c 	lwc1	$f2,28(a0)
     390:	ac60001c 	sw	zero,28(v1)
     394:	00461023 	subu	v0,v0,a2
     398:	46020000 	add.s	$f0,$f0,$f2
     39c:	10401384 	beqz	v0,51b0 <main+0x51b0>
     3a0:	e480001c 	swc1	$f0,28(a0)
     3a4:	080016e1 	j	5b84 <main+0x5b84>
     3a8:	3c020005 	lui	v0,0x5
     3ac:	8e72be0c 	lw	s2,-16884(s3)
     3b0:	3c026666 	lui	v0,0x6666
     3b4:	26470001 	addiu	a3,s2,1
     3b8:	34426667 	ori	v0,v0,0x6667
     3bc:	00e20018 	mult	a3,v0
     3c0:	00021880 	sll	v1,v0,0x2
     3c4:	00021140 	sll	v0,v0,0x5
     3c8:	00621821 	addu	v1,v1,v0
     3cc:	3c020005 	lui	v0,0x5
     3d0:	000757c3 	sra	t2,a3,0x1f
     3d4:	2442b8fc 	addiu	v0,v0,-18180
     3d8:	00621821 	addu	v1,v1,v0
     3dc:	8c690010 	lw	t1,16(v1)
     3e0:	8c650000 	lw	a1,0(v1)
     3e4:	8c66fffc 	lw	a2,-4(v1)
     3e8:	8c68000c 	lw	t0,12(v1)
     3ec:	00002010 	mfhi	a0
     3f0:	000420c3 	sra	a0,a0,0x3
     3f4:	008ac023 	subu	t8,a0,t2
     3f8:	00181900 	sll	v1,t8,0x4
     3fc:	00181080 	sll	v0,t8,0x2
     400:	00431021 	addu	v0,v0,v1
     404:	00e2c023 	subu	t8,a3,v0
     408:	3c036666 	lui	v1,0x6666
     40c:	27040001 	addiu	a0,t8,1
     410:	34636667 	ori	v1,v1,0x6667
     414:	00830018 	mult	a0,v1
     418:	00041fc3 	sra	v1,a0,0x1f
     41c:	00053980 	sll	a3,a1,0x6
     420:	00052900 	sll	a1,a1,0x4
     424:	00e53823 	subu	a3,a3,a1
     428:	00065180 	sll	t2,a2,0x6
     42c:	00095980 	sll	t3,t1,0x6
     430:	00086180 	sll	t4,t0,0x6
     434:	00063100 	sll	a2,a2,0x4
     438:	00094900 	sll	t1,t1,0x4
     43c:	00084100 	sll	t0,t0,0x4
     440:	00076900 	sll	t5,a3,0x4
     444:	00001010 	mfhi	v0
     448:	000210c3 	sra	v0,v0,0x3
     44c:	0043c823 	subu	t9,v0,v1
     450:	00191900 	sll	v1,t9,0x4
     454:	00191080 	sll	v0,t9,0x2
     458:	00431021 	addu	v0,v0,v1
     45c:	0082c823 	subu	t9,a0,v0
     460:	3c036666 	lui	v1,0x6666
     464:	27240001 	addiu	a0,t9,1
     468:	34636667 	ori	v1,v1,0x6667
     46c:	00830018 	mult	a0,v1
     470:	00041fc3 	sra	v1,a0,0x1f
     474:	01465023 	subu	t2,t2,a2
     478:	01695823 	subu	t3,t3,t1
     47c:	01886023 	subu	t4,t4,t0
     480:	01a76823 	subu	t5,t5,a3
     484:	000a7100 	sll	t6,t2,0x4
     488:	000b7900 	sll	t7,t3,0x4
     48c:	000c8100 	sll	s0,t4,0x4
     490:	01ca7023 	subu	t6,t6,t2
     494:	01eb7823 	subu	t7,t7,t3
     498:	020c8023 	subu	s0,s0,t4
     49c:	00001010 	mfhi	v0
     4a0:	000210c3 	sra	v0,v0,0x3
     4a4:	0043a023 	subu	s4,v0,v1
     4a8:	00141900 	sll	v1,s4,0x4
     4ac:	00141080 	sll	v0,s4,0x2
     4b0:	00431021 	addu	v0,v0,v1
     4b4:	0082a023 	subu	s4,a0,v0
     4b8:	3c026666 	lui	v0,0x6666
     4bc:	26850001 	addiu	a1,s4,1
     4c0:	34426667 	ori	v0,v0,0x6667
     4c4:	00a20018 	mult	a1,v0
     4c8:	3c020005 	lui	v0,0x5
     4cc:	24429a0c 	addiu	v0,v0,-26100
     4d0:	01a26821 	addu	t5,t5,v0
     4d4:	000537c3 	sra	a2,a1,0x1f
     4d8:	3c030004 	lui	v1,0x4
     4dc:	3c020004 	lui	v0,0x4
     4e0:	24637b1c 	addiu	v1,v1,31516
     4e4:	24425c2c 	addiu	v0,v0,23596
     4e8:	01e27821 	addu	t7,t7,v0
     4ec:	02038021 	addu	s0,s0,v1
     4f0:	01c37021 	addu	t6,t6,v1
     4f4:	00002010 	mfhi	a0
     4f8:	000420c3 	sra	a0,a0,0x3
     4fc:	0086a823 	subu	s5,a0,a2
     500:	00151900 	sll	v1,s5,0x4
     504:	00151080 	sll	v0,s5,0x2
     508:	00431021 	addu	v0,v0,v1
     50c:	00a2a823 	subu	s5,a1,v0
     510:	3c036666 	lui	v1,0x6666
     514:	26a40001 	addiu	a0,s5,1
     518:	34636667 	ori	v1,v1,0x6667
     51c:	00830018 	mult	a0,v1
     520:	00043fc3 	sra	a3,a0,0x1f
     524:	8dc3000c 	lw	v1,12(t6)
     528:	8da60010 	lw	a2,16(t5)
     52c:	00124080 	sll	t0,s2,0x2
     530:	00129140 	sll	s2,s2,0x5
     534:	01124021 	addu	t0,t0,s2
     538:	00c33021 	addu	a2,a2,v1
     53c:	8e090004 	lw	t1,4(s0)
     540:	8de50000 	lw	a1,0(t7)
     544:	8dcc0030 	lw	t4,48(t6)
     548:	00a92821 	addu	a1,a1,t1
     54c:	00001010 	mfhi	v0
     550:	000210c3 	sra	v0,v0,0x3
     554:	00479023 	subu	s2,v0,a3
     558:	00121900 	sll	v1,s2,0x4
     55c:	00121080 	sll	v0,s2,0x2
     560:	00431021 	addu	v0,v0,v1
     564:	00829023 	subu	s2,a0,v0
     568:	3c036666 	lui	v1,0x6666
     56c:	26440001 	addiu	a0,s2,1
     570:	34636667 	ori	v1,v1,0x6667
     574:	00830018 	mult	a0,v1
     578:	00041fc3 	sra	v1,a0,0x1f
     57c:	00c53021 	addu	a2,a2,a1
     580:	44860000 	mtc1	a2,$f0
     584:	8e0a0028 	lw	t2,40(s0)
     588:	8da70034 	lw	a3,52(t5)
     58c:	8de50024 	lw	a1,36(t7)
     590:	00ec3821 	addu	a3,a3,t4
     594:	00aa2821 	addu	a1,a1,t2
     598:	00e53821 	addu	a3,a3,a1
     59c:	3c0b0005 	lui	t3,0x5
     5a0:	256bbb3c 	addiu	t3,t3,-17604
     5a4:	00001010 	mfhi	v0
     5a8:	000210c3 	sra	v0,v0,0x3
     5ac:	0043b023 	subu	s6,v0,v1
     5b0:	00161900 	sll	v1,s6,0x4
     5b4:	00161080 	sll	v0,s6,0x2
     5b8:	00431021 	addu	v0,v0,v1
     5bc:	0082b023 	subu	s6,a0,v0
     5c0:	3c026666 	lui	v0,0x6666
     5c4:	26c60001 	addiu	a2,s6,1
     5c8:	34426667 	ori	v0,v0,0x6667
     5cc:	00c20018 	mult	a2,v0
     5d0:	00064fc3 	sra	t1,a2,0x1f
     5d4:	00181140 	sll	v0,t8,0x5
     5d8:	00182080 	sll	a0,t8,0x2
     5dc:	00822021 	addu	a0,a0,v0
     5e0:	010b4021 	addu	t0,t0,t3
     5e4:	c5020000 	lwc1	$f2,0(t0)
     5e8:	46800020 	cvt.s.w	$f0,$f0
     5ec:	46020000 	add.s	$f0,$f0,$f2
     5f0:	008b2021 	addu	a0,a0,t3
     5f4:	e5000000 	swc1	$f0,0(t0)
     5f8:	44870000 	mtc1	a3,$f0
     5fc:	00001810 	mfhi	v1
     600:	000318c3 	sra	v1,v1,0x3
     604:	0069b823 	subu	s7,v1,t1
     608:	00171900 	sll	v1,s7,0x4
     60c:	00171080 	sll	v0,s7,0x2
     610:	00431021 	addu	v0,v0,v1
     614:	00c2b823 	subu	s7,a2,v0
     618:	3c026666 	lui	v0,0x6666
     61c:	26e50001 	addiu	a1,s7,1
     620:	34426667 	ori	v0,v0,0x6667
     624:	00a20018 	mult	a1,v0
     628:	c4820000 	lwc1	$f2,0(a0)
     62c:	000557c3 	sra	t2,a1,0x1f
     630:	46800020 	cvt.s.w	$f0,$f0
     634:	46020000 	add.s	$f0,$f0,$f2
     638:	00191140 	sll	v0,t9,0x5
     63c:	e4800000 	swc1	$f0,0(a0)
     640:	00194080 	sll	t0,t9,0x2
     644:	01024021 	addu	t0,t0,v0
     648:	8dc90054 	lw	t1,84(t6)
     64c:	8e0c004c 	lw	t4,76(s0)
     650:	8da70058 	lw	a3,88(t5)
     654:	00001810 	mfhi	v1
     658:	000318c3 	sra	v1,v1,0x3
     65c:	006a1823 	subu	v1,v1,t2
     660:	afa30000 	sw	v1,0(sp)
     664:	8fa40000 	lw	a0,0(sp)
     668:	00031900 	sll	v1,v1,0x4
     66c:	00041080 	sll	v0,a0,0x2
     670:	00431021 	addu	v0,v0,v1
     674:	00a22823 	subu	a1,a1,v0
     678:	3c036666 	lui	v1,0x6666
     67c:	24a40001 	addiu	a0,a1,1
     680:	34636667 	ori	v1,v1,0x6667
     684:	00830018 	mult	a0,v1
     688:	00041fc3 	sra	v1,a0,0x1f
     68c:	8de60048 	lw	a2,72(t7)
     690:	00e93821 	addu	a3,a3,t1
     694:	00cc3021 	addu	a2,a2,t4
     698:	00e63821 	addu	a3,a3,a2
     69c:	8dcc0078 	lw	t4,120(t6)
     6a0:	8e0a0070 	lw	t2,112(s0)
     6a4:	44870000 	mtc1	a3,$f0
     6a8:	8de6006c 	lw	a2,108(t7)
     6ac:	8da7007c 	lw	a3,124(t5)
     6b0:	00ca3021 	addu	a2,a2,t2
     6b4:	00001010 	mfhi	v0
     6b8:	000210c3 	sra	v0,v0,0x3
     6bc:	00438823 	subu	s1,v0,v1
     6c0:	00111900 	sll	v1,s1,0x4
     6c4:	00111080 	sll	v0,s1,0x2
     6c8:	00431021 	addu	v0,v0,v1
     6cc:	00828823 	subu	s1,a0,v0
     6d0:	3c026666 	lui	v0,0x6666
     6d4:	26240001 	addiu	a0,s1,1
     6d8:	34426667 	ori	v0,v0,0x6667
     6dc:	00820018 	mult	a0,v0
     6e0:	00044fc3 	sra	t1,a0,0x1f
     6e4:	00ec3821 	addu	a3,a3,t4
     6e8:	00e63821 	addu	a3,a3,a2
     6ec:	00141140 	sll	v0,s4,0x5
     6f0:	afa50000 	sw	a1,0(sp)
     6f4:	00142880 	sll	a1,s4,0x2
     6f8:	00a22821 	addu	a1,a1,v0
     6fc:	010b4021 	addu	t0,t0,t3
     700:	c5020000 	lwc1	$f2,0(t0)
     704:	46800020 	cvt.s.w	$f0,$f0
     708:	46020000 	add.s	$f0,$f0,$f2
     70c:	00001810 	mfhi	v1
     710:	000318c3 	sra	v1,v1,0x3
     714:	00691823 	subu	v1,v1,t1
     718:	afa30004 	sw	v1,4(sp)
     71c:	8fa60004 	lw	a2,4(sp)
     720:	00031900 	sll	v1,v1,0x4
     724:	00061080 	sll	v0,a2,0x2
     728:	00431021 	addu	v0,v0,v1
     72c:	00822023 	subu	a0,a0,v0
     730:	3c026666 	lui	v0,0x6666
     734:	24860001 	addiu	a2,a0,1
     738:	34426667 	ori	v0,v0,0x6667
     73c:	00c20018 	mult	a2,v0
     740:	e5000000 	swc1	$f0,0(t0)
     744:	00ab2821 	addu	a1,a1,t3
     748:	000657c3 	sra	t2,a2,0x1f
     74c:	44870000 	mtc1	a3,$f0
     750:	c4a20000 	lwc1	$f2,0(a1)
     754:	00151140 	sll	v0,s5,0x5
     758:	afa40004 	sw	a0,4(sp)
     75c:	00152080 	sll	a0,s5,0x2
     760:	00822021 	addu	a0,a0,v0
     764:	46800020 	cvt.s.w	$f0,$f0
     768:	46020000 	add.s	$f0,$f0,$f2
     76c:	00001810 	mfhi	v1
     770:	000318c3 	sra	v1,v1,0x3
     774:	006ac823 	subu	t9,v1,t2
     778:	00191900 	sll	v1,t9,0x4
     77c:	00191080 	sll	v0,t9,0x2
     780:	00431021 	addu	v0,v0,v1
     784:	00c2c823 	subu	t9,a2,v0
     788:	3c036666 	lui	v1,0x6666
     78c:	e4a00000 	swc1	$f0,0(a1)
     790:	34636667 	ori	v1,v1,0x6667
     794:	27250001 	addiu	a1,t9,1
     798:	00a30018 	mult	a1,v1
     79c:	00051fc3 	sra	v1,a1,0x1f
     7a0:	8dc9009c 	lw	t1,156(t6)
     7a4:	8e0c0094 	lw	t4,148(s0)
     7a8:	8da800a0 	lw	t0,160(t5)
     7ac:	8de70090 	lw	a3,144(t7)
     7b0:	01094021 	addu	t0,t0,t1
     7b4:	00ec3821 	addu	a3,a3,t4
     7b8:	01074021 	addu	t0,t0,a3
     7bc:	008b2021 	addu	a0,a0,t3
     7c0:	44880000 	mtc1	t0,$f0
     7c4:	c4820000 	lwc1	$f2,0(a0)
     7c8:	00001010 	mfhi	v0
     7cc:	000210c3 	sra	v0,v0,0x3
     7d0:	0043c023 	subu	t8,v0,v1
     7d4:	00181900 	sll	v1,t8,0x4
     7d8:	00181080 	sll	v0,t8,0x2
     7dc:	00431021 	addu	v0,v0,v1
     7e0:	00a2c023 	subu	t8,a1,v0
     7e4:	3c026666 	lui	v0,0x6666
     7e8:	27070001 	addiu	a3,t8,1
     7ec:	34426667 	ori	v0,v0,0x6667
     7f0:	00e20018 	mult	a3,v0
     7f4:	46800020 	cvt.s.w	$f0,$f0
     7f8:	46020000 	add.s	$f0,$f0,$f2
     7fc:	8dc500c0 	lw	a1,192(t6)
     800:	e4800000 	swc1	$f0,0(a0)
     804:	8e0300b8 	lw	v1,184(s0)
     808:	8da600c4 	lw	a2,196(t5)
     80c:	8de200b4 	lw	v0,180(t7)
     810:	000747c3 	sra	t0,a3,0x1f
     814:	00431021 	addu	v0,v0,v1
     818:	00c53021 	addu	a2,a2,a1
     81c:	00c23021 	addu	a2,a2,v0
     820:	00002010 	mfhi	a0
     824:	000420c3 	sra	a0,a0,0x3
     828:	0088f023 	subu	s8,a0,t0
     82c:	001e1900 	sll	v1,s8,0x4
     830:	001e1080 	sll	v0,s8,0x2
     834:	00431021 	addu	v0,v0,v1
     838:	00e2f023 	subu	s8,a3,v0
     83c:	3c026666 	lui	v0,0x6666
     840:	27c40001 	addiu	a0,s8,1
     844:	34426667 	ori	v0,v0,0x6667
     848:	00820018 	mult	a0,v0
     84c:	00125140 	sll	t2,s2,0x5
     850:	00124880 	sll	t1,s2,0x2
     854:	012a4821 	addu	t1,t1,t2
     858:	000457c3 	sra	t2,a0,0x1f
     85c:	00161140 	sll	v0,s6,0x5
     860:	00164080 	sll	t0,s6,0x2
     864:	01024021 	addu	t0,t0,v0
     868:	012b4821 	addu	t1,t1,t3
     86c:	44860000 	mtc1	a2,$f0
     870:	c5220000 	lwc1	$f2,0(t1)
     874:	8dc700e4 	lw	a3,228(t6)
     878:	00001810 	mfhi	v1
     87c:	000318c3 	sra	v1,v1,0x3
     880:	006ab023 	subu	s6,v1,t2
     884:	00161900 	sll	v1,s6,0x4
     888:	00161080 	sll	v0,s6,0x2
     88c:	00431021 	addu	v0,v0,v1
     890:	0082b023 	subu	s6,a0,v0
     894:	3c036666 	lui	v1,0x6666
     898:	26c40001 	addiu	a0,s6,1
     89c:	34636667 	ori	v1,v1,0x6667
     8a0:	00830018 	mult	a0,v1
     8a4:	00041fc3 	sra	v1,a0,0x1f
     8a8:	8e0c00dc 	lw	t4,220(s0)
     8ac:	8da600e8 	lw	a2,232(t5)
     8b0:	8de500d8 	lw	a1,216(t7)
     8b4:	46800020 	cvt.s.w	$f0,$f0
     8b8:	46020000 	add.s	$f0,$f0,$f2
     8bc:	00ac2821 	addu	a1,a1,t4
     8c0:	00c73021 	addu	a2,a2,a3
     8c4:	e5200000 	swc1	$f0,0(t1)
     8c8:	00c53021 	addu	a2,a2,a1
     8cc:	44860000 	mtc1	a2,$f0
     8d0:	00001010 	mfhi	v0
     8d4:	000210c3 	sra	v0,v0,0x3
     8d8:	00439023 	subu	s2,v0,v1
     8dc:	00121900 	sll	v1,s2,0x4
     8e0:	00121080 	sll	v0,s2,0x2
     8e4:	00431021 	addu	v0,v0,v1
     8e8:	00829023 	subu	s2,a0,v0
     8ec:	3c026666 	lui	v0,0x6666
     8f0:	26440001 	addiu	a0,s2,1
     8f4:	34426667 	ori	v0,v0,0x6667
     8f8:	00820018 	mult	a0,v0
     8fc:	00044fc3 	sra	t1,a0,0x1f
     900:	00171140 	sll	v0,s7,0x5
     904:	00173080 	sll	a2,s7,0x2
     908:	00c23021 	addu	a2,a2,v0
     90c:	8dcc0108 	lw	t4,264(t6)
     910:	8da7010c 	lw	a3,268(t5)
     914:	010b4021 	addu	t0,t0,t3
     918:	00ec3821 	addu	a3,a3,t4
     91c:	c5020000 	lwc1	$f2,0(t0)
     920:	8e0a0100 	lw	t2,256(s0)
     924:	8de500fc 	lw	a1,252(t7)
     928:	00001810 	mfhi	v1
     92c:	000318c3 	sra	v1,v1,0x3
     930:	0069a823 	subu	s5,v1,t1
     934:	00151900 	sll	v1,s5,0x4
     938:	00151080 	sll	v0,s5,0x2
     93c:	00431021 	addu	v0,v0,v1
     940:	0082a823 	subu	s5,a0,v0
     944:	3c026666 	lui	v0,0x6666
     948:	26ac0001 	addiu	t4,s5,1
     94c:	34426667 	ori	v0,v0,0x6667
     950:	01820018 	mult	t4,v0
     954:	46800020 	cvt.s.w	$f0,$f0
     958:	46020000 	add.s	$f0,$f0,$f2
     95c:	00aa2821 	addu	a1,a1,t2
     960:	00e53821 	addu	a3,a3,a1
     964:	e5000000 	swc1	$f0,0(t0)
     968:	00cb3021 	addu	a2,a2,t3
     96c:	44870000 	mtc1	a3,$f0
     970:	c4c20000 	lwc1	$f2,0(a2)
     974:	8faa0000 	lw	t2,0(sp)
     978:	8dc9012c 	lw	t1,300(t6)
     97c:	8e070124 	lw	a3,292(s0)
     980:	8da40130 	lw	a0,304(t5)
     984:	8de30120 	lw	v1,288(t7)
     988:	46800020 	cvt.s.w	$f0,$f0
     98c:	46020000 	add.s	$f0,$f0,$f2
     990:	000a1140 	sll	v0,t2,0x5
     994:	00671821 	addu	v1,v1,a3
     998:	000a2880 	sll	a1,t2,0x2
     99c:	00892021 	addu	a0,a0,t1
     9a0:	00832021 	addu	a0,a0,v1
     9a4:	00a22821 	addu	a1,a1,v0
     9a8:	00004010 	mfhi	t0
     9ac:	e4c00000 	swc1	$f0,0(a2)
     9b0:	00ab2821 	addu	a1,a1,t3
     9b4:	44840000 	mtc1	a0,$f0
     9b8:	c4a20000 	lwc1	$f2,0(a1)
     9bc:	000c17c3 	sra	v0,t4,0x1f
     9c0:	000840c3 	sra	t0,t0,0x3
     9c4:	0102a023 	subu	s4,t0,v0
     9c8:	00111940 	sll	v1,s1,0x5
     9cc:	46800020 	cvt.s.w	$f0,$f0
     9d0:	00113080 	sll	a2,s1,0x2
     9d4:	46020000 	add.s	$f0,$f0,$f2
     9d8:	00c33021 	addu	a2,a2,v1
     9dc:	00141080 	sll	v0,s4,0x2
     9e0:	00141900 	sll	v1,s4,0x4
     9e4:	8dca0150 	lw	t2,336(t6)
     9e8:	8e090148 	lw	t1,328(s0)
     9ec:	00431021 	addu	v0,v0,v1
     9f0:	8da70154 	lw	a3,340(t5)
     9f4:	8de40144 	lw	a0,324(t7)
     9f8:	0182a023 	subu	s4,t4,v0
     9fc:	e4a00000 	swc1	$f0,0(a1)
     a00:	8fac0004 	lw	t4,4(sp)
     a04:	00892021 	addu	a0,a0,t1
     a08:	00ea3821 	addu	a3,a3,t2
     a0c:	00e43821 	addu	a3,a3,a0
     a10:	000c1140 	sll	v0,t4,0x5
     a14:	000c1880 	sll	v1,t4,0x2
     a18:	00cb3021 	addu	a2,a2,t3
     a1c:	44870000 	mtc1	a3,$f0
     a20:	00621821 	addu	v1,v1,v0
     a24:	3c026666 	lui	v0,0x6666
     a28:	c4c20000 	lwc1	$f2,0(a2)
     a2c:	268a0001 	addiu	t2,s4,1
     a30:	8dc80174 	lw	t0,372(t6)
     a34:	8e07016c 	lw	a3,364(s0)
     a38:	8da50178 	lw	a1,376(t5)
     a3c:	8de40168 	lw	a0,360(t7)
     a40:	34426667 	ori	v0,v0,0x6667
     a44:	01420018 	mult	t2,v0
     a48:	46800020 	cvt.s.w	$f0,$f0
     a4c:	46020000 	add.s	$f0,$f0,$f2
     a50:	00872021 	addu	a0,a0,a3
     a54:	00a82821 	addu	a1,a1,t0
     a58:	00a42821 	addu	a1,a1,a0
     a5c:	e4c00000 	swc1	$f0,0(a2)
     a60:	006b1821 	addu	v1,v1,t3
     a64:	44850000 	mtc1	a1,$f0
     a68:	c4620000 	lwc1	$f2,0(v1)
     a6c:	46800020 	cvt.s.w	$f0,$f0
     a70:	46020000 	add.s	$f0,$f0,$f2
     a74:	8dc60198 	lw	a2,408(t6)
     a78:	e4600000 	swc1	$f0,0(v1)
     a7c:	8e040190 	lw	a0,400(s0)
     a80:	8da3019c 	lw	v1,412(t5)
     a84:	8de2018c 	lw	v0,396(t7)
     a88:	00661821 	addu	v1,v1,a2
     a8c:	00441021 	addu	v0,v0,a0
     a90:	00621821 	addu	v1,v1,v0
     a94:	00193940 	sll	a3,t9,0x5
     a98:	00192880 	sll	a1,t9,0x2
     a9c:	00004810 	mfhi	t1
     aa0:	8dc801bc 	lw	t0,444(t6)
     aa4:	8e0601b4 	lw	a2,436(s0)
     aa8:	00a72821 	addu	a1,a1,a3
     aac:	44830000 	mtc1	v1,$f0
     ab0:	8da401c0 	lw	a0,448(t5)
     ab4:	8de301b0 	lw	v1,432(t7)
     ab8:	00181140 	sll	v0,t8,0x5
     abc:	00183880 	sll	a3,t8,0x2
     ac0:	00ab2821 	addu	a1,a1,t3
     ac4:	00e23821 	addu	a3,a3,v0
     ac8:	000948c3 	sra	t1,t1,0x3
     acc:	000a17c3 	sra	v0,t2,0x1f
     ad0:	c4a20000 	lwc1	$f2,0(a1)
     ad4:	01226023 	subu	t4,t1,v0
     ad8:	00661821 	addu	v1,v1,a2
     adc:	00882021 	addu	a0,a0,t0
     ae0:	00832021 	addu	a0,a0,v1
     ae4:	000c1080 	sll	v0,t4,0x2
     ae8:	000c1900 	sll	v1,t4,0x4
     aec:	46800020 	cvt.s.w	$f0,$f0
     af0:	46020000 	add.s	$f0,$f0,$f2
     af4:	00431021 	addu	v0,v0,v1
     af8:	01426023 	subu	t4,t2,v0
     afc:	001e3080 	sll	a2,s8,0x2
     b00:	001e1140 	sll	v0,s8,0x5
     b04:	e4a00000 	swc1	$f0,0(a1)
     b08:	00eb3821 	addu	a3,a3,t3
     b0c:	44840000 	mtc1	a0,$f0
     b10:	00c23021 	addu	a2,a2,v0
     b14:	3c026666 	lui	v0,0x6666
     b18:	c4e20000 	lwc1	$f2,0(a3)
     b1c:	258a0001 	addiu	t2,t4,1
     b20:	8dc801e0 	lw	t0,480(t6)
     b24:	8e0501d8 	lw	a1,472(s0)
     b28:	8da401e4 	lw	a0,484(t5)
     b2c:	8de301d4 	lw	v1,468(t7)
     b30:	34426667 	ori	v0,v0,0x6667
     b34:	01420018 	mult	t2,v0
     b38:	46800020 	cvt.s.w	$f0,$f0
     b3c:	46020000 	add.s	$f0,$f0,$f2
     b40:	00651821 	addu	v1,v1,a1
     b44:	00882021 	addu	a0,a0,t0
     b48:	00832021 	addu	a0,a0,v1
     b4c:	e4e00000 	swc1	$f0,0(a3)
     b50:	00cb3021 	addu	a2,a2,t3
     b54:	44840000 	mtc1	a0,$f0
     b58:	c4c20000 	lwc1	$f2,0(a2)
     b5c:	8dc80204 	lw	t0,516(t6)
     b60:	8e0701fc 	lw	a3,508(s0)
     b64:	8da50208 	lw	a1,520(t5)
     b68:	8de301f8 	lw	v1,504(t7)
     b6c:	46800020 	cvt.s.w	$f0,$f0
     b70:	46020000 	add.s	$f0,$f0,$f2
     b74:	00671821 	addu	v1,v1,a3
     b78:	00161140 	sll	v0,s6,0x5
     b7c:	00a82821 	addu	a1,a1,t0
     b80:	00162080 	sll	a0,s6,0x2
     b84:	00a32821 	addu	a1,a1,v1
     b88:	00822021 	addu	a0,a0,v0
     b8c:	e4c00000 	swc1	$f0,0(a2)
     b90:	008b2021 	addu	a0,a0,t3
     b94:	44850000 	mtc1	a1,$f0
     b98:	c4820000 	lwc1	$f2,0(a0)
     b9c:	8dc80228 	lw	t0,552(t6)
     ba0:	8e070220 	lw	a3,544(s0)
     ba4:	8da5022c 	lw	a1,556(t5)
     ba8:	8de3021c 	lw	v1,540(t7)
     bac:	46800020 	cvt.s.w	$f0,$f0
     bb0:	46020000 	add.s	$f0,$f0,$f2
     bb4:	00121140 	sll	v0,s2,0x5
     bb8:	00671821 	addu	v1,v1,a3
     bbc:	00123080 	sll	a2,s2,0x2
     bc0:	00a82821 	addu	a1,a1,t0
     bc4:	00a32821 	addu	a1,a1,v1
     bc8:	00004810 	mfhi	t1
     bcc:	00c23021 	addu	a2,a2,v0
     bd0:	e4800000 	swc1	$f0,0(a0)
     bd4:	00cb3021 	addu	a2,a2,t3
     bd8:	000a17c3 	sra	v0,t2,0x1f
     bdc:	44850000 	mtc1	a1,$f0
     be0:	000948c3 	sra	t1,t1,0x3
     be4:	c4c20000 	lwc1	$f2,0(a2)
     be8:	01229023 	subu	s2,t1,v0
     bec:	8e080244 	lw	t0,580(s0)
     bf0:	8dc9024c 	lw	t1,588(t6)
     bf4:	8da50250 	lw	a1,592(t5)
     bf8:	8de40240 	lw	a0,576(t7)
     bfc:	46800020 	cvt.s.w	$f0,$f0
     c00:	46020000 	add.s	$f0,$f0,$f2
     c04:	00151140 	sll	v0,s5,0x5
     c08:	00882021 	addu	a0,a0,t0
     c0c:	00151880 	sll	v1,s5,0x2
     c10:	00a92821 	addu	a1,a1,t1
     c14:	00a42821 	addu	a1,a1,a0
     c18:	00621821 	addu	v1,v1,v0
     c1c:	e4c00000 	swc1	$f0,0(a2)
     c20:	00123900 	sll	a3,s2,0x4
     c24:	006b1821 	addu	v1,v1,t3
     c28:	00121080 	sll	v0,s2,0x2
     c2c:	44850000 	mtc1	a1,$f0
     c30:	c4620000 	lwc1	$f2,0(v1)
     c34:	00471021 	addu	v0,v0,a3
     c38:	01429023 	subu	s2,t2,v0
     c3c:	46800020 	cvt.s.w	$f0,$f0
     c40:	3c026666 	lui	v0,0x6666
     c44:	264a0001 	addiu	t2,s2,1
     c48:	46020000 	add.s	$f0,$f0,$f2
     c4c:	34426667 	ori	v0,v0,0x6667
     c50:	01420018 	mult	t2,v0
     c54:	e4600000 	swc1	$f0,0(v1)
     c58:	8dc60270 	lw	a2,624(t6)
     c5c:	8e040268 	lw	a0,616(s0)
     c60:	8da30274 	lw	v1,628(t5)
     c64:	8de20264 	lw	v0,612(t7)
     c68:	00143940 	sll	a3,s4,0x5
     c6c:	00441021 	addu	v0,v0,a0
     c70:	00661821 	addu	v1,v1,a2
     c74:	00142880 	sll	a1,s4,0x2
     c78:	00621821 	addu	v1,v1,v0
     c7c:	00a72821 	addu	a1,a1,a3
     c80:	00ab2821 	addu	a1,a1,t3
     c84:	44830000 	mtc1	v1,$f0
     c88:	c4a20000 	lwc1	$f2,0(a1)
     c8c:	8dc80294 	lw	t0,660(t6)
     c90:	8e04028c 	lw	a0,652(s0)
     c94:	8da30298 	lw	v1,664(t5)
     c98:	8de20288 	lw	v0,648(t7)
     c9c:	46800020 	cvt.s.w	$f0,$f0
     ca0:	46020000 	add.s	$f0,$f0,$f2
     ca4:	00441021 	addu	v0,v0,a0
     ca8:	000c3940 	sll	a3,t4,0x5
     cac:	00681821 	addu	v1,v1,t0
     cb0:	000c3080 	sll	a2,t4,0x2
     cb4:	00621821 	addu	v1,v1,v0
     cb8:	00c73021 	addu	a2,a2,a3
     cbc:	e4a00000 	swc1	$f0,0(a1)
     cc0:	00cb3021 	addu	a2,a2,t3
     cc4:	44830000 	mtc1	v1,$f0
     cc8:	c4c20000 	lwc1	$f2,0(a2)
     ccc:	8da702bc 	lw	a3,700(t5)
     cd0:	8dc902b8 	lw	t1,696(t6)
     cd4:	8de502ac 	lw	a1,684(t7)
     cd8:	8e0802b0 	lw	t0,688(s0)
     cdc:	0000a810 	mfhi	s5
     ce0:	46800020 	cvt.s.w	$f0,$f0
     ce4:	46020000 	add.s	$f0,$f0,$f2
     ce8:	00121940 	sll	v1,s2,0x5
     cec:	0015a8c3 	sra	s5,s5,0x3
     cf0:	00122080 	sll	a0,s2,0x2
     cf4:	000a17c3 	sra	v0,t2,0x1f
     cf8:	00e93821 	addu	a3,a3,t1
     cfc:	00a82821 	addu	a1,a1,t0
     d00:	02a29023 	subu	s2,s5,v0
     d04:	00832021 	addu	a0,a0,v1
     d08:	00e53821 	addu	a3,a3,a1
     d0c:	e4c00000 	swc1	$f0,0(a2)
     d10:	008b2021 	addu	a0,a0,t3
     d14:	00121900 	sll	v1,s2,0x4
     d18:	00121080 	sll	v0,s2,0x2
     d1c:	44870000 	mtc1	a3,$f0
     d20:	c4820000 	lwc1	$f2,0(a0)
     d24:	00431021 	addu	v0,v0,v1
     d28:	01429023 	subu	s2,t2,v0
     d2c:	46800020 	cvt.s.w	$f0,$f0
     d30:	46020000 	add.s	$f0,$f0,$f2
     d34:	00121140 	sll	v0,s2,0x5
     d38:	00121880 	sll	v1,s2,0x2
     d3c:	00621821 	addu	v1,v1,v0
     d40:	e4800000 	swc1	$f0,0(a0)
     d44:	3c020000 	lui	v0,0x0
     d48:	006b1821 	addu	v1,v1,t3
     d4c:	c4405c28 	lwc1	$f0,23592(v0)
     d50:	c4620000 	lwc1	$f2,0(v1)
     d54:	3c040005 	lui	a0,0x5
     d58:	46001083 	div.s	$f2,$f2,$f0
     d5c:	c480bb18 	lwc1	$f0,-17640(a0)
     d60:	24020001 	li	v0,1
     d64:	afb50030 	sw	s5,48(sp)
     d68:	0800005b 	j	16c <main+0x16c>
     d6c:	ae72be0c 	sw	s2,-16884(s3)
     d70:	3c026666 	lui	v0,0x6666
     d74:	26470001 	addiu	a3,s2,1
     d78:	34426667 	ori	v0,v0,0x6667
     d7c:	00e20018 	mult	a3,v0
     d80:	00021880 	sll	v1,v0,0x2
     d84:	00021140 	sll	v0,v0,0x5
     d88:	00621821 	addu	v1,v1,v0
     d8c:	3c020005 	lui	v0,0x5
     d90:	000757c3 	sra	t2,a3,0x1f
     d94:	2442b8fc 	addiu	v0,v0,-18180
     d98:	00621821 	addu	v1,v1,v0
     d9c:	8c690014 	lw	t1,20(v1)
     da0:	8c650004 	lw	a1,4(v1)
     da4:	8c660000 	lw	a2,0(v1)
     da8:	8c680010 	lw	t0,16(v1)
     dac:	00002010 	mfhi	a0
     db0:	000420c3 	sra	a0,a0,0x3
     db4:	008a9823 	subu	s3,a0,t2
     db8:	00131900 	sll	v1,s3,0x4
     dbc:	00131080 	sll	v0,s3,0x2
     dc0:	00431021 	addu	v0,v0,v1
     dc4:	00e29823 	subu	s3,a3,v0
     dc8:	3c036666 	lui	v1,0x6666
     dcc:	26640001 	addiu	a0,s3,1
     dd0:	34636667 	ori	v1,v1,0x6667
     dd4:	00830018 	mult	a0,v1
     dd8:	00041fc3 	sra	v1,a0,0x1f
     ddc:	00053980 	sll	a3,a1,0x6
     de0:	00052900 	sll	a1,a1,0x4
     de4:	00e53823 	subu	a3,a3,a1
     de8:	00065180 	sll	t2,a2,0x6
     dec:	00095980 	sll	t3,t1,0x6
     df0:	00086180 	sll	t4,t0,0x6
     df4:	00063100 	sll	a2,a2,0x4
     df8:	00094900 	sll	t1,t1,0x4
     dfc:	00084100 	sll	t0,t0,0x4
     e00:	00076900 	sll	t5,a3,0x4
     e04:	00001010 	mfhi	v0
     e08:	000210c3 	sra	v0,v0,0x3
     e0c:	0043c023 	subu	t8,v0,v1
     e10:	00181900 	sll	v1,t8,0x4
     e14:	00181080 	sll	v0,t8,0x2
     e18:	00431021 	addu	v0,v0,v1
     e1c:	0082c023 	subu	t8,a0,v0
     e20:	3c036666 	lui	v1,0x6666
     e24:	27040001 	addiu	a0,t8,1
     e28:	34636667 	ori	v1,v1,0x6667
     e2c:	00830018 	mult	a0,v1
     e30:	00041fc3 	sra	v1,a0,0x1f
     e34:	01465023 	subu	t2,t2,a2
     e38:	01695823 	subu	t3,t3,t1
     e3c:	01886023 	subu	t4,t4,t0
     e40:	01a76823 	subu	t5,t5,a3
     e44:	000a7100 	sll	t6,t2,0x4
     e48:	000b7900 	sll	t7,t3,0x4
     e4c:	000c8100 	sll	s0,t4,0x4
     e50:	01ca7023 	subu	t6,t6,t2
     e54:	01eb7823 	subu	t7,t7,t3
     e58:	020c8023 	subu	s0,s0,t4
     e5c:	00001010 	mfhi	v0
     e60:	000210c3 	sra	v0,v0,0x3
     e64:	0043c823 	subu	t9,v0,v1
     e68:	00191900 	sll	v1,t9,0x4
     e6c:	00191080 	sll	v0,t9,0x2
     e70:	00431021 	addu	v0,v0,v1
     e74:	0082c823 	subu	t9,a0,v0
     e78:	3c026666 	lui	v0,0x6666
     e7c:	27250001 	addiu	a1,t9,1
     e80:	34426667 	ori	v0,v0,0x6667
     e84:	00a20018 	mult	a1,v0
     e88:	3c020005 	lui	v0,0x5
     e8c:	24429a0c 	addiu	v0,v0,-26100
     e90:	01a26821 	addu	t5,t5,v0
     e94:	000537c3 	sra	a2,a1,0x1f
     e98:	3c030004 	lui	v1,0x4
     e9c:	3c020004 	lui	v0,0x4
     ea0:	24637b1c 	addiu	v1,v1,31516
     ea4:	24425c2c 	addiu	v0,v0,23596
     ea8:	01e27821 	addu	t7,t7,v0
     eac:	02038021 	addu	s0,s0,v1
     eb0:	01c37021 	addu	t6,t6,v1
     eb4:	00002010 	mfhi	a0
     eb8:	000420c3 	sra	a0,a0,0x3
     ebc:	0086a023 	subu	s4,a0,a2
     ec0:	00141900 	sll	v1,s4,0x4
     ec4:	00141080 	sll	v0,s4,0x2
     ec8:	00431021 	addu	v0,v0,v1
     ecc:	00a2a023 	subu	s4,a1,v0
     ed0:	3c026666 	lui	v0,0x6666
     ed4:	26840001 	addiu	a0,s4,1
     ed8:	34426667 	ori	v0,v0,0x6667
     edc:	00820018 	mult	a0,v0
     ee0:	000457c3 	sra	t2,a0,0x1f
     ee4:	00121140 	sll	v0,s2,0x5
     ee8:	00123880 	sll	a3,s2,0x2
     eec:	00e23821 	addu	a3,a3,v0
     ef0:	26acbb3c 	addiu	t4,s5,-17604
     ef4:	8dc9000c 	lw	t1,12(t6)
     ef8:	8da60010 	lw	a2,16(t5)
     efc:	8e080004 	lw	t0,4(s0)
     f00:	8de50000 	lw	a1,0(t7)
     f04:	00c93021 	addu	a2,a2,t1
     f08:	00a82821 	addu	a1,a1,t0
     f0c:	00001810 	mfhi	v1
     f10:	000318c3 	sra	v1,v1,0x3
     f14:	006a9023 	subu	s2,v1,t2
     f18:	00121900 	sll	v1,s2,0x4
     f1c:	00121080 	sll	v0,s2,0x2
     f20:	00431021 	addu	v0,v0,v1
     f24:	00829023 	subu	s2,a0,v0
     f28:	3c036666 	lui	v1,0x6666
     f2c:	26440001 	addiu	a0,s2,1
     f30:	34636667 	ori	v1,v1,0x6667
     f34:	00830018 	mult	a0,v1
     f38:	00041fc3 	sra	v1,a0,0x1f
     f3c:	00134080 	sll	t0,s3,0x2
     f40:	00c53021 	addu	a2,a2,a1
     f44:	00ec3821 	addu	a3,a3,t4
     f48:	44860000 	mtc1	a2,$f0
     f4c:	c4e20004 	lwc1	$f2,4(a3)
     f50:	8dcb0030 	lw	t3,48(t6)
     f54:	8da60034 	lw	a2,52(t5)
     f58:	46800020 	cvt.s.w	$f0,$f0
     f5c:	46020000 	add.s	$f0,$f0,$f2
     f60:	00cb3021 	addu	a2,a2,t3
     f64:	00001010 	mfhi	v0
     f68:	000210c3 	sra	v0,v0,0x3
     f6c:	0043a823 	subu	s5,v0,v1
     f70:	00151900 	sll	v1,s5,0x4
     f74:	00151080 	sll	v0,s5,0x2
     f78:	00431021 	addu	v0,v0,v1
     f7c:	0082a823 	subu	s5,a0,v0
     f80:	3c026666 	lui	v0,0x6666
     f84:	26a40001 	addiu	a0,s5,1
     f88:	34426667 	ori	v0,v0,0x6667
     f8c:	00820018 	mult	a0,v0
     f90:	00044fc3 	sra	t1,a0,0x1f
     f94:	00131140 	sll	v0,s3,0x5
     f98:	01024021 	addu	t0,t0,v0
     f9c:	e4e00004 	swc1	$f0,4(a3)
     fa0:	00183880 	sll	a3,t8,0x2
     fa4:	8e0a0028 	lw	t2,40(s0)
     fa8:	8de50024 	lw	a1,36(t7)
     fac:	010c4021 	addu	t0,t0,t4
     fb0:	00aa2821 	addu	a1,a1,t2
     fb4:	00c53021 	addu	a2,a2,a1
     fb8:	44860000 	mtc1	a2,$f0
     fbc:	00001810 	mfhi	v1
     fc0:	000318c3 	sra	v1,v1,0x3
     fc4:	00699823 	subu	s3,v1,t1
     fc8:	00131900 	sll	v1,s3,0x4
     fcc:	00131080 	sll	v0,s3,0x2
     fd0:	00431021 	addu	v0,v0,v1
     fd4:	00829823 	subu	s3,a0,v0
     fd8:	3c026666 	lui	v0,0x6666
     fdc:	26640001 	addiu	a0,s3,1
     fe0:	34426667 	ori	v0,v0,0x6667
     fe4:	00820018 	mult	a0,v0
     fe8:	00045fc3 	sra	t3,a0,0x1f
     fec:	00181140 	sll	v0,t8,0x5
     ff0:	00e23821 	addu	a3,a3,v0
     ff4:	c5020004 	lwc1	$f2,4(t0)
     ff8:	8dca0054 	lw	t2,84(t6)
     ffc:	8e09004c 	lw	t1,76(s0)
    1000:	8da60058 	lw	a2,88(t5)
    1004:	8de50048 	lw	a1,72(t7)
    1008:	46800020 	cvt.s.w	$f0,$f0
    100c:	46020000 	add.s	$f0,$f0,$f2
    1010:	00a92821 	addu	a1,a1,t1
    1014:	00001810 	mfhi	v1
    1018:	000318c3 	sra	v1,v1,0x3
    101c:	006bf023 	subu	s8,v1,t3
    1020:	001e1900 	sll	v1,s8,0x4
    1024:	001e1080 	sll	v0,s8,0x2
    1028:	00431021 	addu	v0,v0,v1
    102c:	0082f023 	subu	s8,a0,v0
    1030:	3c036666 	lui	v1,0x6666
    1034:	27c40001 	addiu	a0,s8,1
    1038:	34636667 	ori	v1,v1,0x6667
    103c:	00830018 	mult	a0,v1
    1040:	00041fc3 	sra	v1,a0,0x1f
    1044:	00ca3021 	addu	a2,a2,t2
    1048:	00c53021 	addu	a2,a2,a1
    104c:	e5000004 	swc1	$f0,4(t0)
    1050:	8dcb0078 	lw	t3,120(t6)
    1054:	8e0a0070 	lw	t2,112(s0)
    1058:	44860000 	mtc1	a2,$f0
    105c:	8de5006c 	lw	a1,108(t7)
    1060:	8da6007c 	lw	a2,124(t5)
    1064:	00aa2821 	addu	a1,a1,t2
    1068:	00cb3021 	addu	a2,a2,t3
    106c:	00001010 	mfhi	v0
    1070:	000210c3 	sra	v0,v0,0x3
    1074:	0043b823 	subu	s7,v0,v1
    1078:	00171900 	sll	v1,s7,0x4
    107c:	00171080 	sll	v0,s7,0x2
    1080:	00431021 	addu	v0,v0,v1
    1084:	0082b823 	subu	s7,a0,v0
    1088:	3c026666 	lui	v0,0x6666
    108c:	26e40001 	addiu	a0,s7,1
    1090:	34426667 	ori	v0,v0,0x6667
    1094:	00820018 	mult	a0,v0
    1098:	000447c3 	sra	t0,a0,0x1f
    109c:	00c53021 	addu	a2,a2,a1
    10a0:	00191140 	sll	v0,t9,0x5
    10a4:	00194880 	sll	t1,t9,0x2
    10a8:	01224821 	addu	t1,t1,v0
    10ac:	00ec3821 	addu	a3,a3,t4
    10b0:	c4e20004 	lwc1	$f2,4(a3)
    10b4:	46800020 	cvt.s.w	$f0,$f0
    10b8:	46020000 	add.s	$f0,$f0,$f2
    10bc:	012c4821 	addu	t1,t1,t4
    10c0:	e4e00004 	swc1	$f0,4(a3)
    10c4:	00001810 	mfhi	v1
    10c8:	000318c3 	sra	v1,v1,0x3
    10cc:	00681823 	subu	v1,v1,t0
    10d0:	afa30008 	sw	v1,8(sp)
    10d4:	8fa50008 	lw	a1,8(sp)
    10d8:	00031900 	sll	v1,v1,0x4
    10dc:	00051080 	sll	v0,a1,0x2
    10e0:	00431021 	addu	v0,v0,v1
    10e4:	00822023 	subu	a0,a0,v0
    10e8:	3c026666 	lui	v0,0x6666
    10ec:	24850001 	addiu	a1,a0,1
    10f0:	34426667 	ori	v0,v0,0x6667
    10f4:	00a20018 	mult	a1,v0
    10f8:	00055fc3 	sra	t3,a1,0x1f
    10fc:	00141140 	sll	v0,s4,0x5
    1100:	afa40008 	sw	a0,8(sp)
    1104:	00142080 	sll	a0,s4,0x2
    1108:	00822021 	addu	a0,a0,v0
    110c:	8e070094 	lw	a3,148(s0)
    1110:	44860000 	mtc1	a2,$f0
    1114:	8de60090 	lw	a2,144(t7)
    1118:	c5220004 	lwc1	$f2,4(t1)
    111c:	00c73021 	addu	a2,a2,a3
    1120:	46800020 	cvt.s.w	$f0,$f0
    1124:	00001810 	mfhi	v1
    1128:	000318c3 	sra	v1,v1,0x3
    112c:	006bb023 	subu	s6,v1,t3
    1130:	00161900 	sll	v1,s6,0x4
    1134:	00161080 	sll	v0,s6,0x2
    1138:	00431021 	addu	v0,v0,v1
    113c:	00a2b023 	subu	s6,a1,v0
    1140:	3c036666 	lui	v1,0x6666
    1144:	26c70001 	addiu	a3,s6,1
    1148:	34636667 	ori	v1,v1,0x6667
    114c:	00e30018 	mult	a3,v1
    1150:	46020000 	add.s	$f0,$f0,$f2
    1154:	8dca009c 	lw	t2,156(t6)
    1158:	8da800a0 	lw	t0,160(t5)
    115c:	00071fc3 	sra	v1,a3,0x1f
    1160:	e5200004 	swc1	$f0,4(t1)
    1164:	010a4021 	addu	t0,t0,t2
    1168:	00124880 	sll	t1,s2,0x2
    116c:	00125140 	sll	t2,s2,0x5
    1170:	01064021 	addu	t0,t0,a2
    1174:	008c2021 	addu	a0,a0,t4
    1178:	44880000 	mtc1	t0,$f0
    117c:	00001010 	mfhi	v0
    1180:	000210c3 	sra	v0,v0,0x3
    1184:	00439023 	subu	s2,v0,v1
    1188:	00121900 	sll	v1,s2,0x4
    118c:	00121080 	sll	v0,s2,0x2
    1190:	00431021 	addu	v0,v0,v1
    1194:	00e29023 	subu	s2,a3,v0
    1198:	3c026666 	lui	v0,0x6666
    119c:	26460001 	addiu	a2,s2,1
    11a0:	34426667 	ori	v0,v0,0x6667
    11a4:	00c20018 	mult	a2,v0
    11a8:	c4820004 	lwc1	$f2,4(a0)
    11ac:	46800020 	cvt.s.w	$f0,$f0
    11b0:	46020000 	add.s	$f0,$f0,$f2
    11b4:	8dc800c0 	lw	t0,192(t6)
    11b8:	e4800004 	swc1	$f0,4(a0)
    11bc:	8e0300b8 	lw	v1,184(s0)
    11c0:	8da500c4 	lw	a1,196(t5)
    11c4:	8de200b4 	lw	v0,180(t7)
    11c8:	00063fc3 	sra	a3,a2,0x1f
    11cc:	00431021 	addu	v0,v0,v1
    11d0:	00a82821 	addu	a1,a1,t0
    11d4:	00002010 	mfhi	a0
    11d8:	000420c3 	sra	a0,a0,0x3
    11dc:	0087c823 	subu	t9,a0,a3
    11e0:	00a22821 	addu	a1,a1,v0
    11e4:	00191900 	sll	v1,t9,0x4
    11e8:	00191080 	sll	v0,t9,0x2
    11ec:	00431021 	addu	v0,v0,v1
    11f0:	00c2c823 	subu	t9,a2,v0
    11f4:	3c026666 	lui	v0,0x6666
    11f8:	27240001 	addiu	a0,t9,1
    11fc:	34426667 	ori	v0,v0,0x6667
    1200:	00820018 	mult	a0,v0
    1204:	00045fc3 	sra	t3,a0,0x1f
    1208:	00151140 	sll	v0,s5,0x5
    120c:	00154080 	sll	t0,s5,0x2
    1210:	01024021 	addu	t0,t0,v0
    1214:	012a4821 	addu	t1,t1,t2
    1218:	012c4821 	addu	t1,t1,t4
    121c:	44850000 	mtc1	a1,$f0
    1220:	c5220004 	lwc1	$f2,4(t1)
    1224:	46800020 	cvt.s.w	$f0,$f0
    1228:	46020000 	add.s	$f0,$f0,$f2
    122c:	8e0700dc 	lw	a3,220(s0)
    1230:	00001810 	mfhi	v1
    1234:	000318c3 	sra	v1,v1,0x3
    1238:	006bc023 	subu	t8,v1,t3
    123c:	00181900 	sll	v1,t8,0x4
    1240:	00181080 	sll	v0,t8,0x2
    1244:	00431021 	addu	v0,v0,v1
    1248:	0082c023 	subu	t8,a0,v0
    124c:	3c036666 	lui	v1,0x6666
    1250:	27040001 	addiu	a0,t8,1
    1254:	34636667 	ori	v1,v1,0x6667
    1258:	00830018 	mult	a0,v1
    125c:	00041fc3 	sra	v1,a0,0x1f
    1260:	8de500d8 	lw	a1,216(t7)
    1264:	e5200004 	swc1	$f0,4(t1)
    1268:	8dca00e4 	lw	t2,228(t6)
    126c:	8da600e8 	lw	a2,232(t5)
    1270:	00a72821 	addu	a1,a1,a3
    1274:	00133880 	sll	a3,s3,0x2
    1278:	00ca3021 	addu	a2,a2,t2
    127c:	00c53021 	addu	a2,a2,a1
    1280:	8e0a0100 	lw	t2,256(s0)
    1284:	8de500fc 	lw	a1,252(t7)
    1288:	00001010 	mfhi	v0
    128c:	000210c3 	sra	v0,v0,0x3
    1290:	0043a823 	subu	s5,v0,v1
    1294:	00151900 	sll	v1,s5,0x4
    1298:	00151080 	sll	v0,s5,0x2
    129c:	00431021 	addu	v0,v0,v1
    12a0:	0082a823 	subu	s5,a0,v0
    12a4:	3c026666 	lui	v0,0x6666
    12a8:	26a40001 	addiu	a0,s5,1
    12ac:	34426667 	ori	v0,v0,0x6667
    12b0:	00820018 	mult	a0,v0
    12b4:	00044fc3 	sra	t1,a0,0x1f
    12b8:	00131140 	sll	v0,s3,0x5
    12bc:	00e23821 	addu	a3,a3,v0
    12c0:	00aa2821 	addu	a1,a1,t2
    12c4:	010c4021 	addu	t0,t0,t4
    12c8:	44860000 	mtc1	a2,$f0
    12cc:	c5020004 	lwc1	$f2,4(t0)
    12d0:	8dcb0108 	lw	t3,264(t6)
    12d4:	8da6010c 	lw	a2,268(t5)
    12d8:	46800020 	cvt.s.w	$f0,$f0
    12dc:	46020000 	add.s	$f0,$f0,$f2
    12e0:	00001810 	mfhi	v1
    12e4:	000318c3 	sra	v1,v1,0x3
    12e8:	0069a023 	subu	s4,v1,t1
    12ec:	00141900 	sll	v1,s4,0x4
    12f0:	00141080 	sll	v0,s4,0x2
    12f4:	00431021 	addu	v0,v0,v1
    12f8:	0082a023 	subu	s4,a0,v0
    12fc:	3c026666 	lui	v0,0x6666
    1300:	268a0001 	addiu	t2,s4,1
    1304:	34426667 	ori	v0,v0,0x6667
    1308:	01420018 	mult	t2,v0
    130c:	00cb3021 	addu	a2,a2,t3
    1310:	00c53021 	addu	a2,a2,a1
    1314:	e5000004 	swc1	$f0,4(t0)
    1318:	00ec3821 	addu	a3,a3,t4
    131c:	44860000 	mtc1	a2,$f0
    1320:	c4e20004 	lwc1	$f2,4(a3)
    1324:	8dc9012c 	lw	t1,300(t6)
    1328:	8e060124 	lw	a2,292(s0)
    132c:	8da40130 	lw	a0,304(t5)
    1330:	8de30120 	lw	v1,288(t7)
    1334:	46800020 	cvt.s.w	$f0,$f0
    1338:	46020000 	add.s	$f0,$f0,$f2
    133c:	00661821 	addu	v1,v1,a2
    1340:	001e1140 	sll	v0,s8,0x5
    1344:	00892021 	addu	a0,a0,t1
    1348:	001e2880 	sll	a1,s8,0x2
    134c:	00004010 	mfhi	t0
    1350:	00832021 	addu	a0,a0,v1
    1354:	00a22821 	addu	a1,a1,v0
    1358:	e4e00004 	swc1	$f0,4(a3)
    135c:	00ac2821 	addu	a1,a1,t4
    1360:	8e090148 	lw	t1,328(s0)
    1364:	000a17c3 	sra	v0,t2,0x1f
    1368:	44840000 	mtc1	a0,$f0
    136c:	000840c3 	sra	t0,t0,0x3
    1370:	8de40144 	lw	a0,324(t7)
    1374:	c4a20004 	lwc1	$f2,4(a1)
    1378:	01029823 	subu	s3,t0,v0
    137c:	8dcb0150 	lw	t3,336(t6)
    1380:	8da70154 	lw	a3,340(t5)
    1384:	00171940 	sll	v1,s7,0x5
    1388:	00173080 	sll	a2,s7,0x2
    138c:	00892021 	addu	a0,a0,t1
    1390:	00c33021 	addu	a2,a2,v1
    1394:	8fa90008 	lw	t1,8(sp)
    1398:	00131900 	sll	v1,s3,0x4
    139c:	00131080 	sll	v0,s3,0x2
    13a0:	46800020 	cvt.s.w	$f0,$f0
    13a4:	46020000 	add.s	$f0,$f0,$f2
    13a8:	00431021 	addu	v0,v0,v1
    13ac:	00eb3821 	addu	a3,a3,t3
    13b0:	01429823 	subu	s3,t2,v0
    13b4:	00e43821 	addu	a3,a3,a0
    13b8:	00091140 	sll	v0,t1,0x5
    13bc:	00091880 	sll	v1,t1,0x2
    13c0:	e4a00004 	swc1	$f0,4(a1)
    13c4:	00cc3021 	addu	a2,a2,t4
    13c8:	44870000 	mtc1	a3,$f0
    13cc:	00621821 	addu	v1,v1,v0
    13d0:	3c026666 	lui	v0,0x6666
    13d4:	c4c20004 	lwc1	$f2,4(a2)
    13d8:	266a0001 	addiu	t2,s3,1
    13dc:	8dc80174 	lw	t0,372(t6)
    13e0:	8e07016c 	lw	a3,364(s0)
    13e4:	8da50178 	lw	a1,376(t5)
    13e8:	8de40168 	lw	a0,360(t7)
    13ec:	34426667 	ori	v0,v0,0x6667
    13f0:	01420018 	mult	t2,v0
    13f4:	46800020 	cvt.s.w	$f0,$f0
    13f8:	46020000 	add.s	$f0,$f0,$f2
    13fc:	00872021 	addu	a0,a0,a3
    1400:	00a82821 	addu	a1,a1,t0
    1404:	00a42821 	addu	a1,a1,a0
    1408:	e4c00004 	swc1	$f0,4(a2)
    140c:	006c1821 	addu	v1,v1,t4
    1410:	44850000 	mtc1	a1,$f0
    1414:	c4620004 	lwc1	$f2,4(v1)
    1418:	46800020 	cvt.s.w	$f0,$f0
    141c:	46020000 	add.s	$f0,$f0,$f2
    1420:	8dc60198 	lw	a2,408(t6)
    1424:	e4600004 	swc1	$f0,4(v1)
    1428:	8e040190 	lw	a0,400(s0)
    142c:	8da3019c 	lw	v1,412(t5)
    1430:	8de2018c 	lw	v0,396(t7)
    1434:	00661821 	addu	v1,v1,a2
    1438:	00441021 	addu	v0,v0,a0
    143c:	00621821 	addu	v1,v1,v0
    1440:	00163940 	sll	a3,s6,0x5
    1444:	00162880 	sll	a1,s6,0x2
    1448:	00004810 	mfhi	t1
    144c:	8dc801bc 	lw	t0,444(t6)
    1450:	8e0601b4 	lw	a2,436(s0)
    1454:	00121140 	sll	v0,s2,0x5
    1458:	00a72821 	addu	a1,a1,a3
    145c:	44830000 	mtc1	v1,$f0
    1460:	8da401c0 	lw	a0,448(t5)
    1464:	8de301b0 	lw	v1,432(t7)
    1468:	00123880 	sll	a3,s2,0x2
    146c:	00ac2821 	addu	a1,a1,t4
    1470:	00e23821 	addu	a3,a3,v0
    1474:	000948c3 	sra	t1,t1,0x3
    1478:	000a17c3 	sra	v0,t2,0x1f
    147c:	c4a20004 	lwc1	$f2,4(a1)
    1480:	01229023 	subu	s2,t1,v0
    1484:	00661821 	addu	v1,v1,a2
    1488:	00882021 	addu	a0,a0,t0
    148c:	00832021 	addu	a0,a0,v1
    1490:	00121080 	sll	v0,s2,0x2
    1494:	00121900 	sll	v1,s2,0x4
    1498:	46800020 	cvt.s.w	$f0,$f0
    149c:	46020000 	add.s	$f0,$f0,$f2
    14a0:	00431021 	addu	v0,v0,v1
    14a4:	01429023 	subu	s2,t2,v0
    14a8:	00193080 	sll	a2,t9,0x2
    14ac:	00191140 	sll	v0,t9,0x5
    14b0:	e4a00004 	swc1	$f0,4(a1)
    14b4:	00ec3821 	addu	a3,a3,t4
    14b8:	44840000 	mtc1	a0,$f0
    14bc:	00c23021 	addu	a2,a2,v0
    14c0:	3c026666 	lui	v0,0x6666
    14c4:	c4e20004 	lwc1	$f2,4(a3)
    14c8:	264a0001 	addiu	t2,s2,1
    14cc:	8dc801e0 	lw	t0,480(t6)
    14d0:	8e0501d8 	lw	a1,472(s0)
    14d4:	8da401e4 	lw	a0,484(t5)
    14d8:	8de301d4 	lw	v1,468(t7)
    14dc:	34426667 	ori	v0,v0,0x6667
    14e0:	01420018 	mult	t2,v0
    14e4:	46800020 	cvt.s.w	$f0,$f0
    14e8:	46020000 	add.s	$f0,$f0,$f2
    14ec:	00651821 	addu	v1,v1,a1
    14f0:	00882021 	addu	a0,a0,t0
    14f4:	00832021 	addu	a0,a0,v1
    14f8:	e4e00004 	swc1	$f0,4(a3)
    14fc:	00cc3021 	addu	a2,a2,t4
    1500:	44840000 	mtc1	a0,$f0
    1504:	c4c20004 	lwc1	$f2,4(a2)
    1508:	8dc80204 	lw	t0,516(t6)
    150c:	8e0701fc 	lw	a3,508(s0)
    1510:	8da50208 	lw	a1,520(t5)
    1514:	8de301f8 	lw	v1,504(t7)
    1518:	46800020 	cvt.s.w	$f0,$f0
    151c:	46020000 	add.s	$f0,$f0,$f2
    1520:	00671821 	addu	v1,v1,a3
    1524:	00181140 	sll	v0,t8,0x5
    1528:	00a82821 	addu	a1,a1,t0
    152c:	00182080 	sll	a0,t8,0x2
    1530:	00a32821 	addu	a1,a1,v1
    1534:	00822021 	addu	a0,a0,v0
    1538:	e4c00004 	swc1	$f0,4(a2)
    153c:	008c2021 	addu	a0,a0,t4
    1540:	44850000 	mtc1	a1,$f0
    1544:	c4820004 	lwc1	$f2,4(a0)
    1548:	8dc80228 	lw	t0,552(t6)
    154c:	8e070220 	lw	a3,544(s0)
    1550:	8da5022c 	lw	a1,556(t5)
    1554:	8de3021c 	lw	v1,540(t7)
    1558:	46800020 	cvt.s.w	$f0,$f0
    155c:	46020000 	add.s	$f0,$f0,$f2
    1560:	00671821 	addu	v1,v1,a3
    1564:	00151140 	sll	v0,s5,0x5
    1568:	00a82821 	addu	a1,a1,t0
    156c:	00153080 	sll	a2,s5,0x2
    1570:	00a32821 	addu	a1,a1,v1
    1574:	00004810 	mfhi	t1
    1578:	00c23021 	addu	a2,a2,v0
    157c:	e4800004 	swc1	$f0,4(a0)
    1580:	00cc3021 	addu	a2,a2,t4
    1584:	000a17c3 	sra	v0,t2,0x1f
    1588:	44850000 	mtc1	a1,$f0
    158c:	000948c3 	sra	t1,t1,0x3
    1590:	01225823 	subu	t3,t1,v0
    1594:	c4c20004 	lwc1	$f2,4(a2)
    1598:	8dc9024c 	lw	t1,588(t6)
    159c:	8e080244 	lw	t0,580(s0)
    15a0:	8da50250 	lw	a1,592(t5)
    15a4:	8de40240 	lw	a0,576(t7)
    15a8:	46800020 	cvt.s.w	$f0,$f0
    15ac:	46020000 	add.s	$f0,$f0,$f2
    15b0:	00141140 	sll	v0,s4,0x5
    15b4:	00882021 	addu	a0,a0,t0
    15b8:	00141880 	sll	v1,s4,0x2
    15bc:	00a92821 	addu	a1,a1,t1
    15c0:	00a42821 	addu	a1,a1,a0
    15c4:	00621821 	addu	v1,v1,v0
    15c8:	e4c00004 	swc1	$f0,4(a2)
    15cc:	000b3900 	sll	a3,t3,0x4
    15d0:	006c1821 	addu	v1,v1,t4
    15d4:	000b1080 	sll	v0,t3,0x2
    15d8:	44850000 	mtc1	a1,$f0
    15dc:	c4620004 	lwc1	$f2,4(v1)
    15e0:	00471021 	addu	v0,v0,a3
    15e4:	01425823 	subu	t3,t2,v0
    15e8:	46800020 	cvt.s.w	$f0,$f0
    15ec:	3c026666 	lui	v0,0x6666
    15f0:	256a0001 	addiu	t2,t3,1
    15f4:	46020000 	add.s	$f0,$f0,$f2
    15f8:	34426667 	ori	v0,v0,0x6667
    15fc:	01420018 	mult	t2,v0
    1600:	e4600004 	swc1	$f0,4(v1)
    1604:	8dc60270 	lw	a2,624(t6)
    1608:	8e040268 	lw	a0,616(s0)
    160c:	8da30274 	lw	v1,628(t5)
    1610:	8de20264 	lw	v0,612(t7)
    1614:	00133940 	sll	a3,s3,0x5
    1618:	00441021 	addu	v0,v0,a0
    161c:	00661821 	addu	v1,v1,a2
    1620:	00132880 	sll	a1,s3,0x2
    1624:	00621821 	addu	v1,v1,v0
    1628:	00a72821 	addu	a1,a1,a3
    162c:	00ac2821 	addu	a1,a1,t4
    1630:	44830000 	mtc1	v1,$f0
    1634:	c4a20004 	lwc1	$f2,4(a1)
    1638:	8dc80294 	lw	t0,660(t6)
    163c:	8e04028c 	lw	a0,652(s0)
    1640:	8da30298 	lw	v1,664(t5)
    1644:	8de20288 	lw	v0,648(t7)
    1648:	46800020 	cvt.s.w	$f0,$f0
    164c:	46020000 	add.s	$f0,$f0,$f2
    1650:	00123940 	sll	a3,s2,0x5
    1654:	00441021 	addu	v0,v0,a0
    1658:	00123080 	sll	a2,s2,0x2
    165c:	00681821 	addu	v1,v1,t0
    1660:	00621821 	addu	v1,v1,v0
    1664:	00c73021 	addu	a2,a2,a3
    1668:	e4a00004 	swc1	$f0,4(a1)
    166c:	00cc3021 	addu	a2,a2,t4
    1670:	44830000 	mtc1	v1,$f0
    1674:	c4c20004 	lwc1	$f2,4(a2)
    1678:	8e0802b0 	lw	t0,688(s0)
    167c:	8da702bc 	lw	a3,700(t5)
    1680:	8dc902b8 	lw	t1,696(t6)
    1684:	8de502ac 	lw	a1,684(t7)
    1688:	0000a010 	mfhi	s4
    168c:	46800020 	cvt.s.w	$f0,$f0
    1690:	46020000 	add.s	$f0,$f0,$f2
    1694:	00a82821 	addu	a1,a1,t0
    1698:	0014a0c3 	sra	s4,s4,0x3
    169c:	000b1940 	sll	v1,t3,0x5
    16a0:	000a17c3 	sra	v0,t2,0x1f
    16a4:	000b2080 	sll	a0,t3,0x2
    16a8:	00e93821 	addu	a3,a3,t1
    16ac:	02829023 	subu	s2,s4,v0
    16b0:	00832021 	addu	a0,a0,v1
    16b4:	00e53821 	addu	a3,a3,a1
    16b8:	e4c00004 	swc1	$f0,4(a2)
    16bc:	008c2021 	addu	a0,a0,t4
    16c0:	00121900 	sll	v1,s2,0x4
    16c4:	00121080 	sll	v0,s2,0x2
    16c8:	44870000 	mtc1	a3,$f0
    16cc:	c4820004 	lwc1	$f2,4(a0)
    16d0:	00431021 	addu	v0,v0,v1
    16d4:	01429023 	subu	s2,t2,v0
    16d8:	46800020 	cvt.s.w	$f0,$f0
    16dc:	46020000 	add.s	$f0,$f0,$f2
    16e0:	00121140 	sll	v0,s2,0x5
    16e4:	00121880 	sll	v1,s2,0x2
    16e8:	00621821 	addu	v1,v1,v0
    16ec:	e4800004 	swc1	$f0,4(a0)
    16f0:	006c1821 	addu	v1,v1,t4
    16f4:	3c040000 	lui	a0,0x0
    16f8:	c4825c28 	lwc1	$f2,23592(a0)
    16fc:	c4600004 	lwc1	$f0,4(v1)
    1700:	3c050005 	lui	a1,0x5
    1704:	46020003 	div.s	$f0,$f0,$f2
    1708:	24a4bb18 	addiu	a0,a1,-17640
    170c:	8fa6002c 	lw	a2,44(sp)
    1710:	24020002 	li	v0,2
    1714:	c4820004 	lwc1	$f2,4(a0)
    1718:	3c080005 	lui	t0,0x5
    171c:	00461023 	subu	v0,v0,a2
    1720:	afb40034 	sw	s4,52(sp)
    1724:	ad12be0c 	sw	s2,-16884(t0)
    1728:	08000072 	j	1c8 <main+0x1c8>
    172c:	ac600004 	sw	zero,4(v1)
    1730:	3c026666 	lui	v0,0x6666
    1734:	26470001 	addiu	a3,s2,1
    1738:	34426667 	ori	v0,v0,0x6667
    173c:	00e20018 	mult	a3,v0
    1740:	00021880 	sll	v1,v0,0x2
    1744:	00021140 	sll	v0,v0,0x5
    1748:	00621821 	addu	v1,v1,v0
    174c:	3c020005 	lui	v0,0x5
    1750:	000757c3 	sra	t2,a3,0x1f
    1754:	2442b8fc 	addiu	v0,v0,-18180
    1758:	00621821 	addu	v1,v1,v0
    175c:	8c690018 	lw	t1,24(v1)
    1760:	8c650008 	lw	a1,8(v1)
    1764:	8c660004 	lw	a2,4(v1)
    1768:	8c680014 	lw	t0,20(v1)
    176c:	00002010 	mfhi	a0
    1770:	000420c3 	sra	a0,a0,0x3
    1774:	008a9823 	subu	s3,a0,t2
    1778:	00131900 	sll	v1,s3,0x4
    177c:	00131080 	sll	v0,s3,0x2
    1780:	00431021 	addu	v0,v0,v1
    1784:	00e29823 	subu	s3,a3,v0
    1788:	3c036666 	lui	v1,0x6666
    178c:	26640001 	addiu	a0,s3,1
    1790:	34636667 	ori	v1,v1,0x6667
    1794:	00830018 	mult	a0,v1
    1798:	00041fc3 	sra	v1,a0,0x1f
    179c:	00053980 	sll	a3,a1,0x6
    17a0:	00052900 	sll	a1,a1,0x4
    17a4:	00e53823 	subu	a3,a3,a1
    17a8:	00065180 	sll	t2,a2,0x6
    17ac:	00095980 	sll	t3,t1,0x6
    17b0:	00086180 	sll	t4,t0,0x6
    17b4:	00063100 	sll	a2,a2,0x4
    17b8:	00094900 	sll	t1,t1,0x4
    17bc:	00084100 	sll	t0,t0,0x4
    17c0:	00076900 	sll	t5,a3,0x4
    17c4:	00001010 	mfhi	v0
    17c8:	000210c3 	sra	v0,v0,0x3
    17cc:	0043c023 	subu	t8,v0,v1
    17d0:	00181900 	sll	v1,t8,0x4
    17d4:	00181080 	sll	v0,t8,0x2
    17d8:	00431021 	addu	v0,v0,v1
    17dc:	0082c023 	subu	t8,a0,v0
    17e0:	3c036666 	lui	v1,0x6666
    17e4:	27040001 	addiu	a0,t8,1
    17e8:	34636667 	ori	v1,v1,0x6667
    17ec:	00830018 	mult	a0,v1
    17f0:	00041fc3 	sra	v1,a0,0x1f
    17f4:	01465023 	subu	t2,t2,a2
    17f8:	01695823 	subu	t3,t3,t1
    17fc:	01886023 	subu	t4,t4,t0
    1800:	01a76823 	subu	t5,t5,a3
    1804:	000a7100 	sll	t6,t2,0x4
    1808:	000b7900 	sll	t7,t3,0x4
    180c:	000c8100 	sll	s0,t4,0x4
    1810:	01ca7023 	subu	t6,t6,t2
    1814:	01eb7823 	subu	t7,t7,t3
    1818:	020c8023 	subu	s0,s0,t4
    181c:	00001010 	mfhi	v0
    1820:	000210c3 	sra	v0,v0,0x3
    1824:	0043a023 	subu	s4,v0,v1
    1828:	00141900 	sll	v1,s4,0x4
    182c:	00141080 	sll	v0,s4,0x2
    1830:	00431021 	addu	v0,v0,v1
    1834:	0082a023 	subu	s4,a0,v0
    1838:	3c026666 	lui	v0,0x6666
    183c:	26850001 	addiu	a1,s4,1
    1840:	34426667 	ori	v0,v0,0x6667
    1844:	00a20018 	mult	a1,v0
    1848:	3c020005 	lui	v0,0x5
    184c:	24429a0c 	addiu	v0,v0,-26100
    1850:	01a26821 	addu	t5,t5,v0
    1854:	000537c3 	sra	a2,a1,0x1f
    1858:	3c030004 	lui	v1,0x4
    185c:	3c020004 	lui	v0,0x4
    1860:	24637b1c 	addiu	v1,v1,31516
    1864:	24425c2c 	addiu	v0,v0,23596
    1868:	01e27821 	addu	t7,t7,v0
    186c:	02038021 	addu	s0,s0,v1
    1870:	01c37021 	addu	t6,t6,v1
    1874:	00002010 	mfhi	a0
    1878:	000420c3 	sra	a0,a0,0x3
    187c:	0086a823 	subu	s5,a0,a2
    1880:	00151900 	sll	v1,s5,0x4
    1884:	00151080 	sll	v0,s5,0x2
    1888:	00431021 	addu	v0,v0,v1
    188c:	00a2a823 	subu	s5,a1,v0
    1890:	3c026666 	lui	v0,0x6666
    1894:	26a40001 	addiu	a0,s5,1
    1898:	34426667 	ori	v0,v0,0x6667
    189c:	00820018 	mult	a0,v0
    18a0:	00044fc3 	sra	t1,a0,0x1f
    18a4:	00121140 	sll	v0,s2,0x5
    18a8:	00124080 	sll	t0,s2,0x2
    18ac:	01024021 	addu	t0,t0,v0
    18b0:	8dc7000c 	lw	a3,12(t6)
    18b4:	8e0a0004 	lw	t2,4(s0)
    18b8:	8da60010 	lw	a2,16(t5)
    18bc:	8de50000 	lw	a1,0(t7)
    18c0:	00c73021 	addu	a2,a2,a3
    18c4:	00aa2821 	addu	a1,a1,t2
    18c8:	00c53021 	addu	a2,a2,a1
    18cc:	00001810 	mfhi	v1
    18d0:	000318c3 	sra	v1,v1,0x3
    18d4:	00699023 	subu	s2,v1,t1
    18d8:	00121900 	sll	v1,s2,0x4
    18dc:	00121080 	sll	v0,s2,0x2
    18e0:	00431021 	addu	v0,v0,v1
    18e4:	00829023 	subu	s2,a0,v0
    18e8:	3c036666 	lui	v1,0x6666
    18ec:	26440001 	addiu	a0,s2,1
    18f0:	34636667 	ori	v1,v1,0x6667
    18f4:	00830018 	mult	a0,v1
    18f8:	00041fc3 	sra	v1,a0,0x1f
    18fc:	44860000 	mtc1	a2,$f0
    1900:	8dcc0030 	lw	t4,48(t6)
    1904:	8e0a0028 	lw	t2,40(s0)
    1908:	8da70034 	lw	a3,52(t5)
    190c:	8de50024 	lw	a1,36(t7)
    1910:	00ec3821 	addu	a3,a3,t4
    1914:	00aa2821 	addu	a1,a1,t2
    1918:	00e53821 	addu	a3,a3,a1
    191c:	3c0b0005 	lui	t3,0x5
    1920:	256bbb3c 	addiu	t3,t3,-17604
    1924:	00001010 	mfhi	v0
    1928:	000210c3 	sra	v0,v0,0x3
    192c:	0043b023 	subu	s6,v0,v1
    1930:	00161900 	sll	v1,s6,0x4
    1934:	00161080 	sll	v0,s6,0x2
    1938:	00431021 	addu	v0,v0,v1
    193c:	0082b023 	subu	s6,a0,v0
    1940:	3c026666 	lui	v0,0x6666
    1944:	26c60001 	addiu	a2,s6,1
    1948:	34426667 	ori	v0,v0,0x6667
    194c:	00c20018 	mult	a2,v0
    1950:	00064fc3 	sra	t1,a2,0x1f
    1954:	00131140 	sll	v0,s3,0x5
    1958:	00132080 	sll	a0,s3,0x2
    195c:	00822021 	addu	a0,a0,v0
    1960:	010b4021 	addu	t0,t0,t3
    1964:	c5020008 	lwc1	$f2,8(t0)
    1968:	46800020 	cvt.s.w	$f0,$f0
    196c:	46020000 	add.s	$f0,$f0,$f2
    1970:	008b2021 	addu	a0,a0,t3
    1974:	e5000008 	swc1	$f0,8(t0)
    1978:	44870000 	mtc1	a3,$f0
    197c:	00001810 	mfhi	v1
    1980:	000318c3 	sra	v1,v1,0x3
    1984:	00699823 	subu	s3,v1,t1
    1988:	00131900 	sll	v1,s3,0x4
    198c:	00131080 	sll	v0,s3,0x2
    1990:	00431021 	addu	v0,v0,v1
    1994:	00c29823 	subu	s3,a2,v0
    1998:	3c026666 	lui	v0,0x6666
    199c:	26650001 	addiu	a1,s3,1
    19a0:	34426667 	ori	v0,v0,0x6667
    19a4:	00a20018 	mult	a1,v0
    19a8:	000557c3 	sra	t2,a1,0x1f
    19ac:	c4820008 	lwc1	$f2,8(a0)
    19b0:	00181140 	sll	v0,t8,0x5
    19b4:	00184080 	sll	t0,t8,0x2
    19b8:	01024021 	addu	t0,t0,v0
    19bc:	46800020 	cvt.s.w	$f0,$f0
    19c0:	46020000 	add.s	$f0,$f0,$f2
    19c4:	8dc90054 	lw	t1,84(t6)
    19c8:	e4800008 	swc1	$f0,8(a0)
    19cc:	8e0c004c 	lw	t4,76(s0)
    19d0:	8da70058 	lw	a3,88(t5)
    19d4:	00001810 	mfhi	v1
    19d8:	000318c3 	sra	v1,v1,0x3
    19dc:	006af023 	subu	s8,v1,t2
    19e0:	001e1900 	sll	v1,s8,0x4
    19e4:	001e1080 	sll	v0,s8,0x2
    19e8:	00431021 	addu	v0,v0,v1
    19ec:	00a2f023 	subu	s8,a1,v0
    19f0:	3c036666 	lui	v1,0x6666
    19f4:	27c40001 	addiu	a0,s8,1
    19f8:	34636667 	ori	v1,v1,0x6667
    19fc:	00830018 	mult	a0,v1
    1a00:	00041fc3 	sra	v1,a0,0x1f
    1a04:	8de60048 	lw	a2,72(t7)
    1a08:	00e93821 	addu	a3,a3,t1
    1a0c:	00cc3021 	addu	a2,a2,t4
    1a10:	00e63821 	addu	a3,a3,a2
    1a14:	8dcc0078 	lw	t4,120(t6)
    1a18:	8e0a0070 	lw	t2,112(s0)
    1a1c:	44870000 	mtc1	a3,$f0
    1a20:	8de6006c 	lw	a2,108(t7)
    1a24:	8da7007c 	lw	a3,124(t5)
    1a28:	00ca3021 	addu	a2,a2,t2
    1a2c:	00001010 	mfhi	v0
    1a30:	000210c3 	sra	v0,v0,0x3
    1a34:	0043c823 	subu	t9,v0,v1
    1a38:	00191900 	sll	v1,t9,0x4
    1a3c:	00191080 	sll	v0,t9,0x2
    1a40:	00431021 	addu	v0,v0,v1
    1a44:	0082c823 	subu	t9,a0,v0
    1a48:	3c026666 	lui	v0,0x6666
    1a4c:	27240001 	addiu	a0,t9,1
    1a50:	34426667 	ori	v0,v0,0x6667
    1a54:	00820018 	mult	a0,v0
    1a58:	00044fc3 	sra	t1,a0,0x1f
    1a5c:	00ec3821 	addu	a3,a3,t4
    1a60:	00e63821 	addu	a3,a3,a2
    1a64:	00141140 	sll	v0,s4,0x5
    1a68:	00142880 	sll	a1,s4,0x2
    1a6c:	00a22821 	addu	a1,a1,v0
    1a70:	010b4021 	addu	t0,t0,t3
    1a74:	c5020008 	lwc1	$f2,8(t0)
    1a78:	46800020 	cvt.s.w	$f0,$f0
    1a7c:	46020000 	add.s	$f0,$f0,$f2
    1a80:	00ab2821 	addu	a1,a1,t3
    1a84:	00001810 	mfhi	v1
    1a88:	000318c3 	sra	v1,v1,0x3
    1a8c:	00691823 	subu	v1,v1,t1
    1a90:	afa3000c 	sw	v1,12(sp)
    1a94:	8fa6000c 	lw	a2,12(sp)
    1a98:	00031900 	sll	v1,v1,0x4
    1a9c:	00061080 	sll	v0,a2,0x2
    1aa0:	00431021 	addu	v0,v0,v1
    1aa4:	00822023 	subu	a0,a0,v0
    1aa8:	3c026666 	lui	v0,0x6666
    1aac:	24860001 	addiu	a2,a0,1
    1ab0:	34426667 	ori	v0,v0,0x6667
    1ab4:	00c20018 	mult	a2,v0
    1ab8:	e5000008 	swc1	$f0,8(t0)
    1abc:	000657c3 	sra	t2,a2,0x1f
    1ac0:	44870000 	mtc1	a3,$f0
    1ac4:	c4a20008 	lwc1	$f2,8(a1)
    1ac8:	00151140 	sll	v0,s5,0x5
    1acc:	afa4000c 	sw	a0,12(sp)
    1ad0:	00152080 	sll	a0,s5,0x2
    1ad4:	00822021 	addu	a0,a0,v0
    1ad8:	46800020 	cvt.s.w	$f0,$f0
    1adc:	46020000 	add.s	$f0,$f0,$f2
    1ae0:	8dc9009c 	lw	t1,156(t6)
    1ae4:	00001810 	mfhi	v1
    1ae8:	000318c3 	sra	v1,v1,0x3
    1aec:	006ac023 	subu	t8,v1,t2
    1af0:	00181900 	sll	v1,t8,0x4
    1af4:	00181080 	sll	v0,t8,0x2
    1af8:	00431021 	addu	v0,v0,v1
    1afc:	00c2c023 	subu	t8,a2,v0
    1b00:	3c036666 	lui	v1,0x6666
    1b04:	8e0c0094 	lw	t4,148(s0)
    1b08:	8da800a0 	lw	t0,160(t5)
    1b0c:	8de70090 	lw	a3,144(t7)
    1b10:	34636667 	ori	v1,v1,0x6667
    1b14:	e4a00008 	swc1	$f0,8(a1)
    1b18:	27050001 	addiu	a1,t8,1
    1b1c:	00a30018 	mult	a1,v1
    1b20:	00051fc3 	sra	v1,a1,0x1f
    1b24:	00ec3821 	addu	a3,a3,t4
    1b28:	01094021 	addu	t0,t0,t1
    1b2c:	01074021 	addu	t0,t0,a3
    1b30:	008b2021 	addu	a0,a0,t3
    1b34:	44880000 	mtc1	t0,$f0
    1b38:	c4820008 	lwc1	$f2,8(a0)
    1b3c:	46800020 	cvt.s.w	$f0,$f0
    1b40:	46020000 	add.s	$f0,$f0,$f2
    1b44:	8da600c4 	lw	a2,196(t5)
    1b48:	e4800008 	swc1	$f0,8(a0)
    1b4c:	00001010 	mfhi	v0
    1b50:	000210c3 	sra	v0,v0,0x3
    1b54:	0043a823 	subu	s5,v0,v1
    1b58:	00151900 	sll	v1,s5,0x4
    1b5c:	00151080 	sll	v0,s5,0x2
    1b60:	00431021 	addu	v0,v0,v1
    1b64:	00a2a823 	subu	s5,a1,v0
    1b68:	3c026666 	lui	v0,0x6666
    1b6c:	26a70001 	addiu	a3,s5,1
    1b70:	34426667 	ori	v0,v0,0x6667
    1b74:	00e20018 	mult	a3,v0
    1b78:	8dc500c0 	lw	a1,192(t6)
    1b7c:	8e0300b8 	lw	v1,184(s0)
    1b80:	8de200b4 	lw	v0,180(t7)
    1b84:	000747c3 	sra	t0,a3,0x1f
    1b88:	00431021 	addu	v0,v0,v1
    1b8c:	00c53021 	addu	a2,a2,a1
    1b90:	00c23021 	addu	a2,a2,v0
    1b94:	00125140 	sll	t2,s2,0x5
    1b98:	00124880 	sll	t1,s2,0x2
    1b9c:	012a4821 	addu	t1,t1,t2
    1ba0:	012b4821 	addu	t1,t1,t3
    1ba4:	00002010 	mfhi	a0
    1ba8:	000420c3 	sra	a0,a0,0x3
    1bac:	0088b823 	subu	s7,a0,t0
    1bb0:	00171900 	sll	v1,s7,0x4
    1bb4:	00171080 	sll	v0,s7,0x2
    1bb8:	00431021 	addu	v0,v0,v1
    1bbc:	00e2b823 	subu	s7,a3,v0
    1bc0:	3c026666 	lui	v0,0x6666
    1bc4:	26e40001 	addiu	a0,s7,1
    1bc8:	34426667 	ori	v0,v0,0x6667
    1bcc:	00820018 	mult	a0,v0
    1bd0:	000457c3 	sra	t2,a0,0x1f
    1bd4:	00161140 	sll	v0,s6,0x5
    1bd8:	00164080 	sll	t0,s6,0x2
    1bdc:	01024021 	addu	t0,t0,v0
    1be0:	44860000 	mtc1	a2,$f0
    1be4:	c5220008 	lwc1	$f2,8(t1)
    1be8:	8dc700e4 	lw	a3,228(t6)
    1bec:	8e0c00dc 	lw	t4,220(s0)
    1bf0:	8da600e8 	lw	a2,232(t5)
    1bf4:	8de500d8 	lw	a1,216(t7)
    1bf8:	46800020 	cvt.s.w	$f0,$f0
    1bfc:	00001810 	mfhi	v1
    1c00:	000318c3 	sra	v1,v1,0x3
    1c04:	006ab023 	subu	s6,v1,t2
    1c08:	00161900 	sll	v1,s6,0x4
    1c0c:	00161080 	sll	v0,s6,0x2
    1c10:	00431021 	addu	v0,v0,v1
    1c14:	0082b023 	subu	s6,a0,v0
    1c18:	3c036666 	lui	v1,0x6666
    1c1c:	26c40001 	addiu	a0,s6,1
    1c20:	34636667 	ori	v1,v1,0x6667
    1c24:	00830018 	mult	a0,v1
    1c28:	00041fc3 	sra	v1,a0,0x1f
    1c2c:	46020000 	add.s	$f0,$f0,$f2
    1c30:	00ac2821 	addu	a1,a1,t4
    1c34:	00c73021 	addu	a2,a2,a3
    1c38:	e5200008 	swc1	$f0,8(t1)
    1c3c:	00c53021 	addu	a2,a2,a1
    1c40:	44860000 	mtc1	a2,$f0
    1c44:	00133080 	sll	a2,s3,0x2
    1c48:	8dcc0108 	lw	t4,264(t6)
    1c4c:	8da7010c 	lw	a3,268(t5)
    1c50:	010b4021 	addu	t0,t0,t3
    1c54:	00001010 	mfhi	v0
    1c58:	000210c3 	sra	v0,v0,0x3
    1c5c:	00439023 	subu	s2,v0,v1
    1c60:	00121900 	sll	v1,s2,0x4
    1c64:	00121080 	sll	v0,s2,0x2
    1c68:	00431021 	addu	v0,v0,v1
    1c6c:	00829023 	subu	s2,a0,v0
    1c70:	3c026666 	lui	v0,0x6666
    1c74:	26440001 	addiu	a0,s2,1
    1c78:	34426667 	ori	v0,v0,0x6667
    1c7c:	00820018 	mult	a0,v0
    1c80:	00044fc3 	sra	t1,a0,0x1f
    1c84:	00131140 	sll	v0,s3,0x5
    1c88:	00c23021 	addu	a2,a2,v0
    1c8c:	00ec3821 	addu	a3,a3,t4
    1c90:	c5020008 	lwc1	$f2,8(t0)
    1c94:	8e0a0100 	lw	t2,256(s0)
    1c98:	8de500fc 	lw	a1,252(t7)
    1c9c:	46800020 	cvt.s.w	$f0,$f0
    1ca0:	46020000 	add.s	$f0,$f0,$f2
    1ca4:	00aa2821 	addu	a1,a1,t2
    1ca8:	00e53821 	addu	a3,a3,a1
    1cac:	00001810 	mfhi	v1
    1cb0:	000318c3 	sra	v1,v1,0x3
    1cb4:	0069a023 	subu	s4,v1,t1
    1cb8:	00141900 	sll	v1,s4,0x4
    1cbc:	00141080 	sll	v0,s4,0x2
    1cc0:	00431021 	addu	v0,v0,v1
    1cc4:	0082a023 	subu	s4,a0,v0
    1cc8:	3c026666 	lui	v0,0x6666
    1ccc:	268c0001 	addiu	t4,s4,1
    1cd0:	34426667 	ori	v0,v0,0x6667
    1cd4:	01820018 	mult	t4,v0
    1cd8:	e5000008 	swc1	$f0,8(t0)
    1cdc:	00cb3021 	addu	a2,a2,t3
    1ce0:	44870000 	mtc1	a3,$f0
    1ce4:	c4c20008 	lwc1	$f2,8(a2)
    1ce8:	8dc9012c 	lw	t1,300(t6)
    1cec:	8e070124 	lw	a3,292(s0)
    1cf0:	8da40130 	lw	a0,304(t5)
    1cf4:	8de30120 	lw	v1,288(t7)
    1cf8:	46800020 	cvt.s.w	$f0,$f0
    1cfc:	46020000 	add.s	$f0,$f0,$f2
    1d00:	00671821 	addu	v1,v1,a3
    1d04:	001e1140 	sll	v0,s8,0x5
    1d08:	00892021 	addu	a0,a0,t1
    1d0c:	001e2880 	sll	a1,s8,0x2
    1d10:	00004010 	mfhi	t0
    1d14:	00832021 	addu	a0,a0,v1
    1d18:	00a22821 	addu	a1,a1,v0
    1d1c:	e4c00008 	swc1	$f0,8(a2)
    1d20:	00ab2821 	addu	a1,a1,t3
    1d24:	8e090148 	lw	t1,328(s0)
    1d28:	000c17c3 	sra	v0,t4,0x1f
    1d2c:	44840000 	mtc1	a0,$f0
    1d30:	000840c3 	sra	t0,t0,0x3
    1d34:	8de40144 	lw	a0,324(t7)
    1d38:	c4a20008 	lwc1	$f2,8(a1)
    1d3c:	01029823 	subu	s3,t0,v0
    1d40:	8dca0150 	lw	t2,336(t6)
    1d44:	8da70154 	lw	a3,340(t5)
    1d48:	00191940 	sll	v1,t9,0x5
    1d4c:	00193080 	sll	a2,t9,0x2
    1d50:	00892021 	addu	a0,a0,t1
    1d54:	00c33021 	addu	a2,a2,v1
    1d58:	8fa9000c 	lw	t1,12(sp)
    1d5c:	00131900 	sll	v1,s3,0x4
    1d60:	00131080 	sll	v0,s3,0x2
    1d64:	46800020 	cvt.s.w	$f0,$f0
    1d68:	46020000 	add.s	$f0,$f0,$f2
    1d6c:	00431021 	addu	v0,v0,v1
    1d70:	00ea3821 	addu	a3,a3,t2
    1d74:	01829823 	subu	s3,t4,v0
    1d78:	00e43821 	addu	a3,a3,a0
    1d7c:	00091140 	sll	v0,t1,0x5
    1d80:	00091880 	sll	v1,t1,0x2
    1d84:	e4a00008 	swc1	$f0,8(a1)
    1d88:	00cb3021 	addu	a2,a2,t3
    1d8c:	44870000 	mtc1	a3,$f0
    1d90:	00621821 	addu	v1,v1,v0
    1d94:	3c026666 	lui	v0,0x6666
    1d98:	c4c20008 	lwc1	$f2,8(a2)
    1d9c:	266a0001 	addiu	t2,s3,1
    1da0:	8dc80174 	lw	t0,372(t6)
    1da4:	8e07016c 	lw	a3,364(s0)
    1da8:	8da50178 	lw	a1,376(t5)
    1dac:	8de40168 	lw	a0,360(t7)
    1db0:	34426667 	ori	v0,v0,0x6667
    1db4:	01420018 	mult	t2,v0
    1db8:	46800020 	cvt.s.w	$f0,$f0
    1dbc:	46020000 	add.s	$f0,$f0,$f2
    1dc0:	00872021 	addu	a0,a0,a3
    1dc4:	00a82821 	addu	a1,a1,t0
    1dc8:	00a42821 	addu	a1,a1,a0
    1dcc:	e4c00008 	swc1	$f0,8(a2)
    1dd0:	006b1821 	addu	v1,v1,t3
    1dd4:	44850000 	mtc1	a1,$f0
    1dd8:	c4620008 	lwc1	$f2,8(v1)
    1ddc:	46800020 	cvt.s.w	$f0,$f0
    1de0:	46020000 	add.s	$f0,$f0,$f2
    1de4:	8dc60198 	lw	a2,408(t6)
    1de8:	e4600008 	swc1	$f0,8(v1)
    1dec:	8e040190 	lw	a0,400(s0)
    1df0:	8da3019c 	lw	v1,412(t5)
    1df4:	8de2018c 	lw	v0,396(t7)
    1df8:	00661821 	addu	v1,v1,a2
    1dfc:	00441021 	addu	v0,v0,a0
    1e00:	00621821 	addu	v1,v1,v0
    1e04:	00183940 	sll	a3,t8,0x5
    1e08:	00182880 	sll	a1,t8,0x2
    1e0c:	00004810 	mfhi	t1
    1e10:	8dc801bc 	lw	t0,444(t6)
    1e14:	8e0601b4 	lw	a2,436(s0)
    1e18:	00a72821 	addu	a1,a1,a3
    1e1c:	44830000 	mtc1	v1,$f0
    1e20:	8da401c0 	lw	a0,448(t5)
    1e24:	8de301b0 	lw	v1,432(t7)
    1e28:	00151140 	sll	v0,s5,0x5
    1e2c:	00153880 	sll	a3,s5,0x2
    1e30:	00ab2821 	addu	a1,a1,t3
    1e34:	00e23821 	addu	a3,a3,v0
    1e38:	000948c3 	sra	t1,t1,0x3
    1e3c:	000a17c3 	sra	v0,t2,0x1f
    1e40:	c4a20008 	lwc1	$f2,8(a1)
    1e44:	01226023 	subu	t4,t1,v0
    1e48:	00661821 	addu	v1,v1,a2
    1e4c:	00882021 	addu	a0,a0,t0
    1e50:	00832021 	addu	a0,a0,v1
    1e54:	000c1080 	sll	v0,t4,0x2
    1e58:	000c1900 	sll	v1,t4,0x4
    1e5c:	46800020 	cvt.s.w	$f0,$f0
    1e60:	46020000 	add.s	$f0,$f0,$f2
    1e64:	00431021 	addu	v0,v0,v1
    1e68:	01426023 	subu	t4,t2,v0
    1e6c:	00173080 	sll	a2,s7,0x2
    1e70:	00171140 	sll	v0,s7,0x5
    1e74:	e4a00008 	swc1	$f0,8(a1)
    1e78:	00eb3821 	addu	a3,a3,t3
    1e7c:	44840000 	mtc1	a0,$f0
    1e80:	00c23021 	addu	a2,a2,v0
    1e84:	3c026666 	lui	v0,0x6666
    1e88:	c4e20008 	lwc1	$f2,8(a3)
    1e8c:	258a0001 	addiu	t2,t4,1
    1e90:	8dc801e0 	lw	t0,480(t6)
    1e94:	8e0501d8 	lw	a1,472(s0)
    1e98:	8da401e4 	lw	a0,484(t5)
    1e9c:	8de301d4 	lw	v1,468(t7)
    1ea0:	34426667 	ori	v0,v0,0x6667
    1ea4:	01420018 	mult	t2,v0
    1ea8:	46800020 	cvt.s.w	$f0,$f0
    1eac:	46020000 	add.s	$f0,$f0,$f2
    1eb0:	00651821 	addu	v1,v1,a1
    1eb4:	00882021 	addu	a0,a0,t0
    1eb8:	00832021 	addu	a0,a0,v1
    1ebc:	e4e00008 	swc1	$f0,8(a3)
    1ec0:	00cb3021 	addu	a2,a2,t3
    1ec4:	44840000 	mtc1	a0,$f0
    1ec8:	c4c20008 	lwc1	$f2,8(a2)
    1ecc:	8dc80204 	lw	t0,516(t6)
    1ed0:	8e0701fc 	lw	a3,508(s0)
    1ed4:	8da50208 	lw	a1,520(t5)
    1ed8:	8de301f8 	lw	v1,504(t7)
    1edc:	46800020 	cvt.s.w	$f0,$f0
    1ee0:	46020000 	add.s	$f0,$f0,$f2
    1ee4:	00671821 	addu	v1,v1,a3
    1ee8:	00161140 	sll	v0,s6,0x5
    1eec:	00a82821 	addu	a1,a1,t0
    1ef0:	00162080 	sll	a0,s6,0x2
    1ef4:	00a32821 	addu	a1,a1,v1
    1ef8:	00822021 	addu	a0,a0,v0
    1efc:	e4c00008 	swc1	$f0,8(a2)
    1f00:	008b2021 	addu	a0,a0,t3
    1f04:	44850000 	mtc1	a1,$f0
    1f08:	c4820008 	lwc1	$f2,8(a0)
    1f0c:	8dc80228 	lw	t0,552(t6)
    1f10:	8e070220 	lw	a3,544(s0)
    1f14:	8da5022c 	lw	a1,556(t5)
    1f18:	8de3021c 	lw	v1,540(t7)
    1f1c:	46800020 	cvt.s.w	$f0,$f0
    1f20:	46020000 	add.s	$f0,$f0,$f2
    1f24:	00121140 	sll	v0,s2,0x5
    1f28:	00671821 	addu	v1,v1,a3
    1f2c:	00123080 	sll	a2,s2,0x2
    1f30:	00a82821 	addu	a1,a1,t0
    1f34:	00a32821 	addu	a1,a1,v1
    1f38:	00004810 	mfhi	t1
    1f3c:	00c23021 	addu	a2,a2,v0
    1f40:	e4800008 	swc1	$f0,8(a0)
    1f44:	00cb3021 	addu	a2,a2,t3
    1f48:	000a17c3 	sra	v0,t2,0x1f
    1f4c:	44850000 	mtc1	a1,$f0
    1f50:	000948c3 	sra	t1,t1,0x3
    1f54:	01229023 	subu	s2,t1,v0
    1f58:	c4c20008 	lwc1	$f2,8(a2)
    1f5c:	8dc9024c 	lw	t1,588(t6)
    1f60:	8e080244 	lw	t0,580(s0)
    1f64:	8da50250 	lw	a1,592(t5)
    1f68:	8de40240 	lw	a0,576(t7)
    1f6c:	46800020 	cvt.s.w	$f0,$f0
    1f70:	46020000 	add.s	$f0,$f0,$f2
    1f74:	00141140 	sll	v0,s4,0x5
    1f78:	00882021 	addu	a0,a0,t0
    1f7c:	00141880 	sll	v1,s4,0x2
    1f80:	00a92821 	addu	a1,a1,t1
    1f84:	00a42821 	addu	a1,a1,a0
    1f88:	00621821 	addu	v1,v1,v0
    1f8c:	e4c00008 	swc1	$f0,8(a2)
    1f90:	00123900 	sll	a3,s2,0x4
    1f94:	006b1821 	addu	v1,v1,t3
    1f98:	00121080 	sll	v0,s2,0x2
    1f9c:	44850000 	mtc1	a1,$f0
    1fa0:	c4620008 	lwc1	$f2,8(v1)
    1fa4:	00471021 	addu	v0,v0,a3
    1fa8:	01429023 	subu	s2,t2,v0
    1fac:	46800020 	cvt.s.w	$f0,$f0
    1fb0:	3c026666 	lui	v0,0x6666
    1fb4:	264a0001 	addiu	t2,s2,1
    1fb8:	46020000 	add.s	$f0,$f0,$f2
    1fbc:	34426667 	ori	v0,v0,0x6667
    1fc0:	01420018 	mult	t2,v0
    1fc4:	e4600008 	swc1	$f0,8(v1)
    1fc8:	8dc60270 	lw	a2,624(t6)
    1fcc:	8e040268 	lw	a0,616(s0)
    1fd0:	8da30274 	lw	v1,628(t5)
    1fd4:	8de20264 	lw	v0,612(t7)
    1fd8:	00133940 	sll	a3,s3,0x5
    1fdc:	00441021 	addu	v0,v0,a0
    1fe0:	00661821 	addu	v1,v1,a2
    1fe4:	00132880 	sll	a1,s3,0x2
    1fe8:	00621821 	addu	v1,v1,v0
    1fec:	00a72821 	addu	a1,a1,a3
    1ff0:	00ab2821 	addu	a1,a1,t3
    1ff4:	44830000 	mtc1	v1,$f0
    1ff8:	c4a20008 	lwc1	$f2,8(a1)
    1ffc:	8dc80294 	lw	t0,660(t6)
    2000:	8e04028c 	lw	a0,652(s0)
    2004:	8da30298 	lw	v1,664(t5)
    2008:	8de20288 	lw	v0,648(t7)
    200c:	46800020 	cvt.s.w	$f0,$f0
    2010:	46020000 	add.s	$f0,$f0,$f2
    2014:	00441021 	addu	v0,v0,a0
    2018:	000c3940 	sll	a3,t4,0x5
    201c:	00681821 	addu	v1,v1,t0
    2020:	000c3080 	sll	a2,t4,0x2
    2024:	00621821 	addu	v1,v1,v0
    2028:	00c73021 	addu	a2,a2,a3
    202c:	e4a00008 	swc1	$f0,8(a1)
    2030:	00cb3021 	addu	a2,a2,t3
    2034:	44830000 	mtc1	v1,$f0
    2038:	c4c20008 	lwc1	$f2,8(a2)
    203c:	8da702bc 	lw	a3,700(t5)
    2040:	8dc902b8 	lw	t1,696(t6)
    2044:	8de502ac 	lw	a1,684(t7)
    2048:	8e0802b0 	lw	t0,688(s0)
    204c:	0000a010 	mfhi	s4
    2050:	46800020 	cvt.s.w	$f0,$f0
    2054:	46020000 	add.s	$f0,$f0,$f2
    2058:	00122140 	sll	a0,s2,0x5
    205c:	0014a0c3 	sra	s4,s4,0x3
    2060:	00121880 	sll	v1,s2,0x2
    2064:	000a17c3 	sra	v0,t2,0x1f
    2068:	00a82821 	addu	a1,a1,t0
    206c:	00e93821 	addu	a3,a3,t1
    2070:	02829023 	subu	s2,s4,v0
    2074:	00641821 	addu	v1,v1,a0
    2078:	00e53821 	addu	a3,a3,a1
    207c:	e4c00008 	swc1	$f0,8(a2)
    2080:	006b1821 	addu	v1,v1,t3
    2084:	00122100 	sll	a0,s2,0x4
    2088:	00121080 	sll	v0,s2,0x2
    208c:	44870000 	mtc1	a3,$f0
    2090:	c4620008 	lwc1	$f2,8(v1)
    2094:	00441021 	addu	v0,v0,a0
    2098:	01429023 	subu	s2,t2,v0
    209c:	46800020 	cvt.s.w	$f0,$f0
    20a0:	46020000 	add.s	$f0,$f0,$f2
    20a4:	00121140 	sll	v0,s2,0x5
    20a8:	00122080 	sll	a0,s2,0x2
    20ac:	00822021 	addu	a0,a0,v0
    20b0:	e4600008 	swc1	$f0,8(v1)
    20b4:	3c020000 	lui	v0,0x0
    20b8:	008b2021 	addu	a0,a0,t3
    20bc:	c4405c28 	lwc1	$f0,23592(v0)
    20c0:	c4820008 	lwc1	$f2,8(a0)
    20c4:	3c030005 	lui	v1,0x5
    20c8:	46001083 	div.s	$f2,$f2,$f0
    20cc:	2463bb18 	addiu	v1,v1,-17640
    20d0:	8fa6002c 	lw	a2,44(sp)
    20d4:	24020003 	li	v0,3
    20d8:	c4600008 	lwc1	$f0,8(v1)
    20dc:	00462823 	subu	a1,v0,a2
    20e0:	3c020005 	lui	v0,0x5
    20e4:	afb40038 	sw	s4,56(sp)
    20e8:	08000077 	j	1dc <main+0x1dc>
    20ec:	ac52be0c 	sw	s2,-16884(v0)
    20f0:	3c026666 	lui	v0,0x6666
    20f4:	26470001 	addiu	a3,s2,1
    20f8:	34426667 	ori	v0,v0,0x6667
    20fc:	00e20018 	mult	a3,v0
    2100:	00021880 	sll	v1,v0,0x2
    2104:	00021140 	sll	v0,v0,0x5
    2108:	00621821 	addu	v1,v1,v0
    210c:	3c020005 	lui	v0,0x5
    2110:	000757c3 	sra	t2,a3,0x1f
    2114:	2442b8fc 	addiu	v0,v0,-18180
    2118:	00621821 	addu	v1,v1,v0
    211c:	8c69001c 	lw	t1,28(v1)
    2120:	8c65000c 	lw	a1,12(v1)
    2124:	8c660008 	lw	a2,8(v1)
    2128:	8c680018 	lw	t0,24(v1)
    212c:	00002010 	mfhi	a0
    2130:	000420c3 	sra	a0,a0,0x3
    2134:	008a9823 	subu	s3,a0,t2
    2138:	00131900 	sll	v1,s3,0x4
    213c:	00131080 	sll	v0,s3,0x2
    2140:	00431021 	addu	v0,v0,v1
    2144:	00e29823 	subu	s3,a3,v0
    2148:	3c036666 	lui	v1,0x6666
    214c:	26640001 	addiu	a0,s3,1
    2150:	34636667 	ori	v1,v1,0x6667
    2154:	00830018 	mult	a0,v1
    2158:	00041fc3 	sra	v1,a0,0x1f
    215c:	00053980 	sll	a3,a1,0x6
    2160:	00052900 	sll	a1,a1,0x4
    2164:	00e53823 	subu	a3,a3,a1
    2168:	00065180 	sll	t2,a2,0x6
    216c:	00095980 	sll	t3,t1,0x6
    2170:	00086180 	sll	t4,t0,0x6
    2174:	00063100 	sll	a2,a2,0x4
    2178:	00094900 	sll	t1,t1,0x4
    217c:	00084100 	sll	t0,t0,0x4
    2180:	00076900 	sll	t5,a3,0x4
    2184:	00001010 	mfhi	v0
    2188:	000210c3 	sra	v0,v0,0x3
    218c:	0043c023 	subu	t8,v0,v1
    2190:	00181900 	sll	v1,t8,0x4
    2194:	00181080 	sll	v0,t8,0x2
    2198:	00431021 	addu	v0,v0,v1
    219c:	0082c023 	subu	t8,a0,v0
    21a0:	3c036666 	lui	v1,0x6666
    21a4:	27040001 	addiu	a0,t8,1
    21a8:	34636667 	ori	v1,v1,0x6667
    21ac:	00830018 	mult	a0,v1
    21b0:	00041fc3 	sra	v1,a0,0x1f
    21b4:	01465023 	subu	t2,t2,a2
    21b8:	01695823 	subu	t3,t3,t1
    21bc:	01886023 	subu	t4,t4,t0
    21c0:	01a76823 	subu	t5,t5,a3
    21c4:	000a7100 	sll	t6,t2,0x4
    21c8:	000b7900 	sll	t7,t3,0x4
    21cc:	000c8100 	sll	s0,t4,0x4
    21d0:	01ca7023 	subu	t6,t6,t2
    21d4:	01eb7823 	subu	t7,t7,t3
    21d8:	020c8023 	subu	s0,s0,t4
    21dc:	00001010 	mfhi	v0
    21e0:	000210c3 	sra	v0,v0,0x3
    21e4:	0043c823 	subu	t9,v0,v1
    21e8:	00191900 	sll	v1,t9,0x4
    21ec:	00191080 	sll	v0,t9,0x2
    21f0:	00431021 	addu	v0,v0,v1
    21f4:	0082c823 	subu	t9,a0,v0
    21f8:	3c026666 	lui	v0,0x6666
    21fc:	27250001 	addiu	a1,t9,1
    2200:	34426667 	ori	v0,v0,0x6667
    2204:	00a20018 	mult	a1,v0
    2208:	3c020005 	lui	v0,0x5
    220c:	24429a0c 	addiu	v0,v0,-26100
    2210:	01a26821 	addu	t5,t5,v0
    2214:	000537c3 	sra	a2,a1,0x1f
    2218:	3c030004 	lui	v1,0x4
    221c:	3c020004 	lui	v0,0x4
    2220:	24637b1c 	addiu	v1,v1,31516
    2224:	24425c2c 	addiu	v0,v0,23596
    2228:	01e27821 	addu	t7,t7,v0
    222c:	02038021 	addu	s0,s0,v1
    2230:	01c37021 	addu	t6,t6,v1
    2234:	00002010 	mfhi	a0
    2238:	000420c3 	sra	a0,a0,0x3
    223c:	0086a023 	subu	s4,a0,a2
    2240:	00141900 	sll	v1,s4,0x4
    2244:	00141080 	sll	v0,s4,0x2
    2248:	00431021 	addu	v0,v0,v1
    224c:	00a2a023 	subu	s4,a1,v0
    2250:	3c026666 	lui	v0,0x6666
    2254:	26840001 	addiu	a0,s4,1
    2258:	34426667 	ori	v0,v0,0x6667
    225c:	00820018 	mult	a0,v0
    2260:	000457c3 	sra	t2,a0,0x1f
    2264:	00121140 	sll	v0,s2,0x5
    2268:	00123880 	sll	a3,s2,0x2
    226c:	00e23821 	addu	a3,a3,v0
    2270:	26acbb3c 	addiu	t4,s5,-17604
    2274:	8dc9000c 	lw	t1,12(t6)
    2278:	8da60010 	lw	a2,16(t5)
    227c:	8e080004 	lw	t0,4(s0)
    2280:	8de50000 	lw	a1,0(t7)
    2284:	00c93021 	addu	a2,a2,t1
    2288:	00a82821 	addu	a1,a1,t0
    228c:	00001810 	mfhi	v1
    2290:	000318c3 	sra	v1,v1,0x3
    2294:	006a9023 	subu	s2,v1,t2
    2298:	00121900 	sll	v1,s2,0x4
    229c:	00121080 	sll	v0,s2,0x2
    22a0:	00431021 	addu	v0,v0,v1
    22a4:	00829023 	subu	s2,a0,v0
    22a8:	3c036666 	lui	v1,0x6666
    22ac:	26440001 	addiu	a0,s2,1
    22b0:	34636667 	ori	v1,v1,0x6667
    22b4:	00830018 	mult	a0,v1
    22b8:	00041fc3 	sra	v1,a0,0x1f
    22bc:	00134080 	sll	t0,s3,0x2
    22c0:	00c53021 	addu	a2,a2,a1
    22c4:	00ec3821 	addu	a3,a3,t4
    22c8:	44860000 	mtc1	a2,$f0
    22cc:	c4e2000c 	lwc1	$f2,12(a3)
    22d0:	8dcb0030 	lw	t3,48(t6)
    22d4:	8da60034 	lw	a2,52(t5)
    22d8:	46800020 	cvt.s.w	$f0,$f0
    22dc:	46020000 	add.s	$f0,$f0,$f2
    22e0:	00cb3021 	addu	a2,a2,t3
    22e4:	00001010 	mfhi	v0
    22e8:	000210c3 	sra	v0,v0,0x3
    22ec:	0043a823 	subu	s5,v0,v1
    22f0:	00151900 	sll	v1,s5,0x4
    22f4:	00151080 	sll	v0,s5,0x2
    22f8:	00431021 	addu	v0,v0,v1
    22fc:	0082a823 	subu	s5,a0,v0
    2300:	3c026666 	lui	v0,0x6666
    2304:	26a40001 	addiu	a0,s5,1
    2308:	34426667 	ori	v0,v0,0x6667
    230c:	00820018 	mult	a0,v0
    2310:	00044fc3 	sra	t1,a0,0x1f
    2314:	00131140 	sll	v0,s3,0x5
    2318:	01024021 	addu	t0,t0,v0
    231c:	e4e0000c 	swc1	$f0,12(a3)
    2320:	00183880 	sll	a3,t8,0x2
    2324:	8e0a0028 	lw	t2,40(s0)
    2328:	8de50024 	lw	a1,36(t7)
    232c:	010c4021 	addu	t0,t0,t4
    2330:	00aa2821 	addu	a1,a1,t2
    2334:	00c53021 	addu	a2,a2,a1
    2338:	44860000 	mtc1	a2,$f0
    233c:	00001810 	mfhi	v1
    2340:	000318c3 	sra	v1,v1,0x3
    2344:	00699823 	subu	s3,v1,t1
    2348:	00131900 	sll	v1,s3,0x4
    234c:	00131080 	sll	v0,s3,0x2
    2350:	00431021 	addu	v0,v0,v1
    2354:	00829823 	subu	s3,a0,v0
    2358:	3c026666 	lui	v0,0x6666
    235c:	26640001 	addiu	a0,s3,1
    2360:	34426667 	ori	v0,v0,0x6667
    2364:	00820018 	mult	a0,v0
    2368:	00045fc3 	sra	t3,a0,0x1f
    236c:	00181140 	sll	v0,t8,0x5
    2370:	00e23821 	addu	a3,a3,v0
    2374:	c502000c 	lwc1	$f2,12(t0)
    2378:	8dca0054 	lw	t2,84(t6)
    237c:	8e09004c 	lw	t1,76(s0)
    2380:	8da60058 	lw	a2,88(t5)
    2384:	8de50048 	lw	a1,72(t7)
    2388:	46800020 	cvt.s.w	$f0,$f0
    238c:	46020000 	add.s	$f0,$f0,$f2
    2390:	00a92821 	addu	a1,a1,t1
    2394:	00001810 	mfhi	v1
    2398:	000318c3 	sra	v1,v1,0x3
    239c:	006bf023 	subu	s8,v1,t3
    23a0:	001e1900 	sll	v1,s8,0x4
    23a4:	001e1080 	sll	v0,s8,0x2
    23a8:	00431021 	addu	v0,v0,v1
    23ac:	0082f023 	subu	s8,a0,v0
    23b0:	3c036666 	lui	v1,0x6666
    23b4:	27c40001 	addiu	a0,s8,1
    23b8:	34636667 	ori	v1,v1,0x6667
    23bc:	00830018 	mult	a0,v1
    23c0:	00041fc3 	sra	v1,a0,0x1f
    23c4:	00ca3021 	addu	a2,a2,t2
    23c8:	00c53021 	addu	a2,a2,a1
    23cc:	e500000c 	swc1	$f0,12(t0)
    23d0:	8dcb0078 	lw	t3,120(t6)
    23d4:	8e0a0070 	lw	t2,112(s0)
    23d8:	44860000 	mtc1	a2,$f0
    23dc:	8de5006c 	lw	a1,108(t7)
    23e0:	8da6007c 	lw	a2,124(t5)
    23e4:	00aa2821 	addu	a1,a1,t2
    23e8:	00cb3021 	addu	a2,a2,t3
    23ec:	00001010 	mfhi	v0
    23f0:	000210c3 	sra	v0,v0,0x3
    23f4:	0043b823 	subu	s7,v0,v1
    23f8:	00171900 	sll	v1,s7,0x4
    23fc:	00171080 	sll	v0,s7,0x2
    2400:	00431021 	addu	v0,v0,v1
    2404:	0082b823 	subu	s7,a0,v0
    2408:	3c026666 	lui	v0,0x6666
    240c:	26e40001 	addiu	a0,s7,1
    2410:	34426667 	ori	v0,v0,0x6667
    2414:	00820018 	mult	a0,v0
    2418:	000447c3 	sra	t0,a0,0x1f
    241c:	00c53021 	addu	a2,a2,a1
    2420:	00191140 	sll	v0,t9,0x5
    2424:	00194880 	sll	t1,t9,0x2
    2428:	01224821 	addu	t1,t1,v0
    242c:	00ec3821 	addu	a3,a3,t4
    2430:	c4e2000c 	lwc1	$f2,12(a3)
    2434:	46800020 	cvt.s.w	$f0,$f0
    2438:	46020000 	add.s	$f0,$f0,$f2
    243c:	012c4821 	addu	t1,t1,t4
    2440:	e4e0000c 	swc1	$f0,12(a3)
    2444:	00001810 	mfhi	v1
    2448:	000318c3 	sra	v1,v1,0x3
    244c:	00681823 	subu	v1,v1,t0
    2450:	afa30010 	sw	v1,16(sp)
    2454:	8fa50010 	lw	a1,16(sp)
    2458:	00031900 	sll	v1,v1,0x4
    245c:	00051080 	sll	v0,a1,0x2
    2460:	00431021 	addu	v0,v0,v1
    2464:	00822023 	subu	a0,a0,v0
    2468:	3c026666 	lui	v0,0x6666
    246c:	24850001 	addiu	a1,a0,1
    2470:	34426667 	ori	v0,v0,0x6667
    2474:	00a20018 	mult	a1,v0
    2478:	00055fc3 	sra	t3,a1,0x1f
    247c:	00141140 	sll	v0,s4,0x5
    2480:	afa40010 	sw	a0,16(sp)
    2484:	00142080 	sll	a0,s4,0x2
    2488:	00822021 	addu	a0,a0,v0
    248c:	8e070094 	lw	a3,148(s0)
    2490:	44860000 	mtc1	a2,$f0
    2494:	8de60090 	lw	a2,144(t7)
    2498:	c522000c 	lwc1	$f2,12(t1)
    249c:	00c73021 	addu	a2,a2,a3
    24a0:	46800020 	cvt.s.w	$f0,$f0
    24a4:	00001810 	mfhi	v1
    24a8:	000318c3 	sra	v1,v1,0x3
    24ac:	006bb023 	subu	s6,v1,t3
    24b0:	00161900 	sll	v1,s6,0x4
    24b4:	00161080 	sll	v0,s6,0x2
    24b8:	00431021 	addu	v0,v0,v1
    24bc:	00a2b023 	subu	s6,a1,v0
    24c0:	3c036666 	lui	v1,0x6666
    24c4:	26c70001 	addiu	a3,s6,1
    24c8:	34636667 	ori	v1,v1,0x6667
    24cc:	00e30018 	mult	a3,v1
    24d0:	46020000 	add.s	$f0,$f0,$f2
    24d4:	8dca009c 	lw	t2,156(t6)
    24d8:	8da800a0 	lw	t0,160(t5)
    24dc:	00071fc3 	sra	v1,a3,0x1f
    24e0:	e520000c 	swc1	$f0,12(t1)
    24e4:	010a4021 	addu	t0,t0,t2
    24e8:	00124880 	sll	t1,s2,0x2
    24ec:	00125140 	sll	t2,s2,0x5
    24f0:	01064021 	addu	t0,t0,a2
    24f4:	008c2021 	addu	a0,a0,t4
    24f8:	44880000 	mtc1	t0,$f0
    24fc:	00001010 	mfhi	v0
    2500:	000210c3 	sra	v0,v0,0x3
    2504:	00439023 	subu	s2,v0,v1
    2508:	00121900 	sll	v1,s2,0x4
    250c:	00121080 	sll	v0,s2,0x2
    2510:	00431021 	addu	v0,v0,v1
    2514:	00e29023 	subu	s2,a3,v0
    2518:	3c026666 	lui	v0,0x6666
    251c:	26460001 	addiu	a2,s2,1
    2520:	34426667 	ori	v0,v0,0x6667
    2524:	00c20018 	mult	a2,v0
    2528:	c482000c 	lwc1	$f2,12(a0)
    252c:	46800020 	cvt.s.w	$f0,$f0
    2530:	46020000 	add.s	$f0,$f0,$f2
    2534:	8dc800c0 	lw	t0,192(t6)
    2538:	e480000c 	swc1	$f0,12(a0)
    253c:	8e0300b8 	lw	v1,184(s0)
    2540:	8da500c4 	lw	a1,196(t5)
    2544:	8de200b4 	lw	v0,180(t7)
    2548:	00063fc3 	sra	a3,a2,0x1f
    254c:	00431021 	addu	v0,v0,v1
    2550:	00a82821 	addu	a1,a1,t0
    2554:	00002010 	mfhi	a0
    2558:	000420c3 	sra	a0,a0,0x3
    255c:	0087c823 	subu	t9,a0,a3
    2560:	00a22821 	addu	a1,a1,v0
    2564:	00191900 	sll	v1,t9,0x4
    2568:	00191080 	sll	v0,t9,0x2
    256c:	00431021 	addu	v0,v0,v1
    2570:	00c2c823 	subu	t9,a2,v0
    2574:	3c026666 	lui	v0,0x6666
    2578:	27240001 	addiu	a0,t9,1
    257c:	34426667 	ori	v0,v0,0x6667
    2580:	00820018 	mult	a0,v0
    2584:	00045fc3 	sra	t3,a0,0x1f
    2588:	00151140 	sll	v0,s5,0x5
    258c:	00154080 	sll	t0,s5,0x2
    2590:	01024021 	addu	t0,t0,v0
    2594:	012a4821 	addu	t1,t1,t2
    2598:	012c4821 	addu	t1,t1,t4
    259c:	44850000 	mtc1	a1,$f0
    25a0:	c522000c 	lwc1	$f2,12(t1)
    25a4:	46800020 	cvt.s.w	$f0,$f0
    25a8:	46020000 	add.s	$f0,$f0,$f2
    25ac:	8e0700dc 	lw	a3,220(s0)
    25b0:	00001810 	mfhi	v1
    25b4:	000318c3 	sra	v1,v1,0x3
    25b8:	006bc023 	subu	t8,v1,t3
    25bc:	00181900 	sll	v1,t8,0x4
    25c0:	00181080 	sll	v0,t8,0x2
    25c4:	00431021 	addu	v0,v0,v1
    25c8:	0082c023 	subu	t8,a0,v0
    25cc:	3c036666 	lui	v1,0x6666
    25d0:	27040001 	addiu	a0,t8,1
    25d4:	34636667 	ori	v1,v1,0x6667
    25d8:	00830018 	mult	a0,v1
    25dc:	00041fc3 	sra	v1,a0,0x1f
    25e0:	8de500d8 	lw	a1,216(t7)
    25e4:	e520000c 	swc1	$f0,12(t1)
    25e8:	8dca00e4 	lw	t2,228(t6)
    25ec:	8da600e8 	lw	a2,232(t5)
    25f0:	00a72821 	addu	a1,a1,a3
    25f4:	00133880 	sll	a3,s3,0x2
    25f8:	00ca3021 	addu	a2,a2,t2
    25fc:	00c53021 	addu	a2,a2,a1
    2600:	8e0a0100 	lw	t2,256(s0)
    2604:	8de500fc 	lw	a1,252(t7)
    2608:	00001010 	mfhi	v0
    260c:	000210c3 	sra	v0,v0,0x3
    2610:	0043a823 	subu	s5,v0,v1
    2614:	00151900 	sll	v1,s5,0x4
    2618:	00151080 	sll	v0,s5,0x2
    261c:	00431021 	addu	v0,v0,v1
    2620:	0082a823 	subu	s5,a0,v0
    2624:	3c026666 	lui	v0,0x6666
    2628:	26a40001 	addiu	a0,s5,1
    262c:	34426667 	ori	v0,v0,0x6667
    2630:	00820018 	mult	a0,v0
    2634:	00044fc3 	sra	t1,a0,0x1f
    2638:	00131140 	sll	v0,s3,0x5
    263c:	00e23821 	addu	a3,a3,v0
    2640:	00aa2821 	addu	a1,a1,t2
    2644:	010c4021 	addu	t0,t0,t4
    2648:	44860000 	mtc1	a2,$f0
    264c:	c502000c 	lwc1	$f2,12(t0)
    2650:	8dcb0108 	lw	t3,264(t6)
    2654:	8da6010c 	lw	a2,268(t5)
    2658:	46800020 	cvt.s.w	$f0,$f0
    265c:	46020000 	add.s	$f0,$f0,$f2
    2660:	00001810 	mfhi	v1
    2664:	000318c3 	sra	v1,v1,0x3
    2668:	0069a023 	subu	s4,v1,t1
    266c:	00141900 	sll	v1,s4,0x4
    2670:	00141080 	sll	v0,s4,0x2
    2674:	00431021 	addu	v0,v0,v1
    2678:	0082a023 	subu	s4,a0,v0
    267c:	3c026666 	lui	v0,0x6666
    2680:	268a0001 	addiu	t2,s4,1
    2684:	34426667 	ori	v0,v0,0x6667
    2688:	01420018 	mult	t2,v0
    268c:	00cb3021 	addu	a2,a2,t3
    2690:	00c53021 	addu	a2,a2,a1
    2694:	e500000c 	swc1	$f0,12(t0)
    2698:	00ec3821 	addu	a3,a3,t4
    269c:	44860000 	mtc1	a2,$f0
    26a0:	c4e2000c 	lwc1	$f2,12(a3)
    26a4:	8dc9012c 	lw	t1,300(t6)
    26a8:	8e060124 	lw	a2,292(s0)
    26ac:	8da40130 	lw	a0,304(t5)
    26b0:	8de30120 	lw	v1,288(t7)
    26b4:	46800020 	cvt.s.w	$f0,$f0
    26b8:	46020000 	add.s	$f0,$f0,$f2
    26bc:	00661821 	addu	v1,v1,a2
    26c0:	001e1140 	sll	v0,s8,0x5
    26c4:	00892021 	addu	a0,a0,t1
    26c8:	001e2880 	sll	a1,s8,0x2
    26cc:	00004010 	mfhi	t0
    26d0:	00832021 	addu	a0,a0,v1
    26d4:	00a22821 	addu	a1,a1,v0
    26d8:	e4e0000c 	swc1	$f0,12(a3)
    26dc:	00ac2821 	addu	a1,a1,t4
    26e0:	8e090148 	lw	t1,328(s0)
    26e4:	000a17c3 	sra	v0,t2,0x1f
    26e8:	44840000 	mtc1	a0,$f0
    26ec:	000840c3 	sra	t0,t0,0x3
    26f0:	8de40144 	lw	a0,324(t7)
    26f4:	c4a2000c 	lwc1	$f2,12(a1)
    26f8:	01029823 	subu	s3,t0,v0
    26fc:	8dcb0150 	lw	t3,336(t6)
    2700:	8da70154 	lw	a3,340(t5)
    2704:	00171940 	sll	v1,s7,0x5
    2708:	00173080 	sll	a2,s7,0x2
    270c:	00892021 	addu	a0,a0,t1
    2710:	00c33021 	addu	a2,a2,v1
    2714:	8fa90010 	lw	t1,16(sp)
    2718:	00131900 	sll	v1,s3,0x4
    271c:	00131080 	sll	v0,s3,0x2
    2720:	46800020 	cvt.s.w	$f0,$f0
    2724:	46020000 	add.s	$f0,$f0,$f2
    2728:	00431021 	addu	v0,v0,v1
    272c:	00eb3821 	addu	a3,a3,t3
    2730:	01429823 	subu	s3,t2,v0
    2734:	00e43821 	addu	a3,a3,a0
    2738:	00091140 	sll	v0,t1,0x5
    273c:	00091880 	sll	v1,t1,0x2
    2740:	e4a0000c 	swc1	$f0,12(a1)
    2744:	00cc3021 	addu	a2,a2,t4
    2748:	44870000 	mtc1	a3,$f0
    274c:	00621821 	addu	v1,v1,v0
    2750:	3c026666 	lui	v0,0x6666
    2754:	c4c2000c 	lwc1	$f2,12(a2)
    2758:	266a0001 	addiu	t2,s3,1
    275c:	8dc80174 	lw	t0,372(t6)
    2760:	8e07016c 	lw	a3,364(s0)
    2764:	8da50178 	lw	a1,376(t5)
    2768:	8de40168 	lw	a0,360(t7)
    276c:	34426667 	ori	v0,v0,0x6667
    2770:	01420018 	mult	t2,v0
    2774:	46800020 	cvt.s.w	$f0,$f0
    2778:	46020000 	add.s	$f0,$f0,$f2
    277c:	00872021 	addu	a0,a0,a3
    2780:	00a82821 	addu	a1,a1,t0
    2784:	00a42821 	addu	a1,a1,a0
    2788:	e4c0000c 	swc1	$f0,12(a2)
    278c:	006c1821 	addu	v1,v1,t4
    2790:	44850000 	mtc1	a1,$f0
    2794:	c462000c 	lwc1	$f2,12(v1)
    2798:	46800020 	cvt.s.w	$f0,$f0
    279c:	46020000 	add.s	$f0,$f0,$f2
    27a0:	8dc60198 	lw	a2,408(t6)
    27a4:	e460000c 	swc1	$f0,12(v1)
    27a8:	8e040190 	lw	a0,400(s0)
    27ac:	8da3019c 	lw	v1,412(t5)
    27b0:	8de2018c 	lw	v0,396(t7)
    27b4:	00661821 	addu	v1,v1,a2
    27b8:	00441021 	addu	v0,v0,a0
    27bc:	00621821 	addu	v1,v1,v0
    27c0:	00163940 	sll	a3,s6,0x5
    27c4:	00162880 	sll	a1,s6,0x2
    27c8:	00004810 	mfhi	t1
    27cc:	8dc801bc 	lw	t0,444(t6)
    27d0:	8e0601b4 	lw	a2,436(s0)
    27d4:	00121140 	sll	v0,s2,0x5
    27d8:	00a72821 	addu	a1,a1,a3
    27dc:	44830000 	mtc1	v1,$f0
    27e0:	8da401c0 	lw	a0,448(t5)
    27e4:	8de301b0 	lw	v1,432(t7)
    27e8:	00123880 	sll	a3,s2,0x2
    27ec:	00ac2821 	addu	a1,a1,t4
    27f0:	00e23821 	addu	a3,a3,v0
    27f4:	000948c3 	sra	t1,t1,0x3
    27f8:	000a17c3 	sra	v0,t2,0x1f
    27fc:	c4a2000c 	lwc1	$f2,12(a1)
    2800:	01229023 	subu	s2,t1,v0
    2804:	00661821 	addu	v1,v1,a2
    2808:	00882021 	addu	a0,a0,t0
    280c:	00832021 	addu	a0,a0,v1
    2810:	00121080 	sll	v0,s2,0x2
    2814:	00121900 	sll	v1,s2,0x4
    2818:	46800020 	cvt.s.w	$f0,$f0
    281c:	46020000 	add.s	$f0,$f0,$f2
    2820:	00431021 	addu	v0,v0,v1
    2824:	01429023 	subu	s2,t2,v0
    2828:	00193080 	sll	a2,t9,0x2
    282c:	00191140 	sll	v0,t9,0x5
    2830:	e4a0000c 	swc1	$f0,12(a1)
    2834:	00ec3821 	addu	a3,a3,t4
    2838:	44840000 	mtc1	a0,$f0
    283c:	00c23021 	addu	a2,a2,v0
    2840:	3c026666 	lui	v0,0x6666
    2844:	c4e2000c 	lwc1	$f2,12(a3)
    2848:	264a0001 	addiu	t2,s2,1
    284c:	8dc801e0 	lw	t0,480(t6)
    2850:	8e0501d8 	lw	a1,472(s0)
    2854:	8da401e4 	lw	a0,484(t5)
    2858:	8de301d4 	lw	v1,468(t7)
    285c:	34426667 	ori	v0,v0,0x6667
    2860:	01420018 	mult	t2,v0
    2864:	46800020 	cvt.s.w	$f0,$f0
    2868:	46020000 	add.s	$f0,$f0,$f2
    286c:	00651821 	addu	v1,v1,a1
    2870:	00882021 	addu	a0,a0,t0
    2874:	00832021 	addu	a0,a0,v1
    2878:	e4e0000c 	swc1	$f0,12(a3)
    287c:	00cc3021 	addu	a2,a2,t4
    2880:	44840000 	mtc1	a0,$f0
    2884:	c4c2000c 	lwc1	$f2,12(a2)
    2888:	8dc80204 	lw	t0,516(t6)
    288c:	8e0701fc 	lw	a3,508(s0)
    2890:	8da50208 	lw	a1,520(t5)
    2894:	8de301f8 	lw	v1,504(t7)
    2898:	46800020 	cvt.s.w	$f0,$f0
    289c:	46020000 	add.s	$f0,$f0,$f2
    28a0:	00671821 	addu	v1,v1,a3
    28a4:	00181140 	sll	v0,t8,0x5
    28a8:	00a82821 	addu	a1,a1,t0
    28ac:	00182080 	sll	a0,t8,0x2
    28b0:	00a32821 	addu	a1,a1,v1
    28b4:	00822021 	addu	a0,a0,v0
    28b8:	e4c0000c 	swc1	$f0,12(a2)
    28bc:	008c2021 	addu	a0,a0,t4
    28c0:	44850000 	mtc1	a1,$f0
    28c4:	c482000c 	lwc1	$f2,12(a0)
    28c8:	8dc80228 	lw	t0,552(t6)
    28cc:	8e070220 	lw	a3,544(s0)
    28d0:	8da5022c 	lw	a1,556(t5)
    28d4:	8de3021c 	lw	v1,540(t7)
    28d8:	46800020 	cvt.s.w	$f0,$f0
    28dc:	46020000 	add.s	$f0,$f0,$f2
    28e0:	00671821 	addu	v1,v1,a3
    28e4:	00151140 	sll	v0,s5,0x5
    28e8:	00a82821 	addu	a1,a1,t0
    28ec:	00153080 	sll	a2,s5,0x2
    28f0:	00a32821 	addu	a1,a1,v1
    28f4:	00004810 	mfhi	t1
    28f8:	00c23021 	addu	a2,a2,v0
    28fc:	e480000c 	swc1	$f0,12(a0)
    2900:	00cc3021 	addu	a2,a2,t4
    2904:	000a17c3 	sra	v0,t2,0x1f
    2908:	44850000 	mtc1	a1,$f0
    290c:	000948c3 	sra	t1,t1,0x3
    2910:	01225823 	subu	t3,t1,v0
    2914:	c4c2000c 	lwc1	$f2,12(a2)
    2918:	8dc9024c 	lw	t1,588(t6)
    291c:	8e080244 	lw	t0,580(s0)
    2920:	8da50250 	lw	a1,592(t5)
    2924:	8de40240 	lw	a0,576(t7)
    2928:	46800020 	cvt.s.w	$f0,$f0
    292c:	46020000 	add.s	$f0,$f0,$f2
    2930:	00141140 	sll	v0,s4,0x5
    2934:	00882021 	addu	a0,a0,t0
    2938:	00141880 	sll	v1,s4,0x2
    293c:	00a92821 	addu	a1,a1,t1
    2940:	00a42821 	addu	a1,a1,a0
    2944:	00621821 	addu	v1,v1,v0
    2948:	e4c0000c 	swc1	$f0,12(a2)
    294c:	000b3900 	sll	a3,t3,0x4
    2950:	006c1821 	addu	v1,v1,t4
    2954:	000b1080 	sll	v0,t3,0x2
    2958:	44850000 	mtc1	a1,$f0
    295c:	c462000c 	lwc1	$f2,12(v1)
    2960:	00471021 	addu	v0,v0,a3
    2964:	01425823 	subu	t3,t2,v0
    2968:	46800020 	cvt.s.w	$f0,$f0
    296c:	3c026666 	lui	v0,0x6666
    2970:	256a0001 	addiu	t2,t3,1
    2974:	46020000 	add.s	$f0,$f0,$f2
    2978:	34426667 	ori	v0,v0,0x6667
    297c:	01420018 	mult	t2,v0
    2980:	e460000c 	swc1	$f0,12(v1)
    2984:	8dc60270 	lw	a2,624(t6)
    2988:	8e040268 	lw	a0,616(s0)
    298c:	8da30274 	lw	v1,628(t5)
    2990:	8de20264 	lw	v0,612(t7)
    2994:	00133940 	sll	a3,s3,0x5
    2998:	00441021 	addu	v0,v0,a0
    299c:	00661821 	addu	v1,v1,a2
    29a0:	00132880 	sll	a1,s3,0x2
    29a4:	00621821 	addu	v1,v1,v0
    29a8:	00a72821 	addu	a1,a1,a3
    29ac:	00ac2821 	addu	a1,a1,t4
    29b0:	44830000 	mtc1	v1,$f0
    29b4:	c4a2000c 	lwc1	$f2,12(a1)
    29b8:	8dc80294 	lw	t0,660(t6)
    29bc:	8e04028c 	lw	a0,652(s0)
    29c0:	8da30298 	lw	v1,664(t5)
    29c4:	8de20288 	lw	v0,648(t7)
    29c8:	46800020 	cvt.s.w	$f0,$f0
    29cc:	46020000 	add.s	$f0,$f0,$f2
    29d0:	00123940 	sll	a3,s2,0x5
    29d4:	00441021 	addu	v0,v0,a0
    29d8:	00123080 	sll	a2,s2,0x2
    29dc:	00681821 	addu	v1,v1,t0
    29e0:	00621821 	addu	v1,v1,v0
    29e4:	00c73021 	addu	a2,a2,a3
    29e8:	e4a0000c 	swc1	$f0,12(a1)
    29ec:	00cc3021 	addu	a2,a2,t4
    29f0:	44830000 	mtc1	v1,$f0
    29f4:	c4c2000c 	lwc1	$f2,12(a2)
    29f8:	8e0802b0 	lw	t0,688(s0)
    29fc:	8da702bc 	lw	a3,700(t5)
    2a00:	8dc902b8 	lw	t1,696(t6)
    2a04:	8de502ac 	lw	a1,684(t7)
    2a08:	0000a010 	mfhi	s4
    2a0c:	46800020 	cvt.s.w	$f0,$f0
    2a10:	46020000 	add.s	$f0,$f0,$f2
    2a14:	00a82821 	addu	a1,a1,t0
    2a18:	0014a0c3 	sra	s4,s4,0x3
    2a1c:	000b1940 	sll	v1,t3,0x5
    2a20:	000a17c3 	sra	v0,t2,0x1f
    2a24:	000b2080 	sll	a0,t3,0x2
    2a28:	00e93821 	addu	a3,a3,t1
    2a2c:	02829023 	subu	s2,s4,v0
    2a30:	00832021 	addu	a0,a0,v1
    2a34:	00e53821 	addu	a3,a3,a1
    2a38:	e4c0000c 	swc1	$f0,12(a2)
    2a3c:	008c2021 	addu	a0,a0,t4
    2a40:	00121900 	sll	v1,s2,0x4
    2a44:	00121080 	sll	v0,s2,0x2
    2a48:	44870000 	mtc1	a3,$f0
    2a4c:	c482000c 	lwc1	$f2,12(a0)
    2a50:	00431021 	addu	v0,v0,v1
    2a54:	01429023 	subu	s2,t2,v0
    2a58:	46800020 	cvt.s.w	$f0,$f0
    2a5c:	46020000 	add.s	$f0,$f0,$f2
    2a60:	00121140 	sll	v0,s2,0x5
    2a64:	00121880 	sll	v1,s2,0x2
    2a68:	00621821 	addu	v1,v1,v0
    2a6c:	e480000c 	swc1	$f0,12(a0)
    2a70:	006c1821 	addu	v1,v1,t4
    2a74:	3c040000 	lui	a0,0x0
    2a78:	c4825c28 	lwc1	$f2,23592(a0)
    2a7c:	c460000c 	lwc1	$f0,12(v1)
    2a80:	3c050005 	lui	a1,0x5
    2a84:	46020003 	div.s	$f0,$f0,$f2
    2a88:	24a4bb18 	addiu	a0,a1,-17640
    2a8c:	8fa6002c 	lw	a2,44(sp)
    2a90:	24020004 	li	v0,4
    2a94:	c482000c 	lwc1	$f2,12(a0)
    2a98:	3c080005 	lui	t0,0x5
    2a9c:	00461023 	subu	v0,v0,a2
    2aa0:	afb4003c 	sw	s4,60(sp)
    2aa4:	ad12be0c 	sw	s2,-16884(t0)
    2aa8:	0800008e 	j	238 <main+0x238>
    2aac:	ac60000c 	sw	zero,12(v1)
    2ab0:	3c026666 	lui	v0,0x6666
    2ab4:	26470001 	addiu	a3,s2,1
    2ab8:	34426667 	ori	v0,v0,0x6667
    2abc:	00e20018 	mult	a3,v0
    2ac0:	00021880 	sll	v1,v0,0x2
    2ac4:	00021140 	sll	v0,v0,0x5
    2ac8:	00621821 	addu	v1,v1,v0
    2acc:	3c020005 	lui	v0,0x5
    2ad0:	000757c3 	sra	t2,a3,0x1f
    2ad4:	2442b8fc 	addiu	v0,v0,-18180
    2ad8:	00621821 	addu	v1,v1,v0
    2adc:	8c690020 	lw	t1,32(v1)
    2ae0:	8c650010 	lw	a1,16(v1)
    2ae4:	8c66000c 	lw	a2,12(v1)
    2ae8:	8c68001c 	lw	t0,28(v1)
    2aec:	00002010 	mfhi	a0
    2af0:	000420c3 	sra	a0,a0,0x3
    2af4:	008a9823 	subu	s3,a0,t2
    2af8:	00131900 	sll	v1,s3,0x4
    2afc:	00131080 	sll	v0,s3,0x2
    2b00:	00431021 	addu	v0,v0,v1
    2b04:	00e29823 	subu	s3,a3,v0
    2b08:	3c036666 	lui	v1,0x6666
    2b0c:	26640001 	addiu	a0,s3,1
    2b10:	34636667 	ori	v1,v1,0x6667
    2b14:	00830018 	mult	a0,v1
    2b18:	00041fc3 	sra	v1,a0,0x1f
    2b1c:	00053980 	sll	a3,a1,0x6
    2b20:	00052900 	sll	a1,a1,0x4
    2b24:	00e53823 	subu	a3,a3,a1
    2b28:	00065180 	sll	t2,a2,0x6
    2b2c:	00095980 	sll	t3,t1,0x6
    2b30:	00086180 	sll	t4,t0,0x6
    2b34:	00063100 	sll	a2,a2,0x4
    2b38:	00094900 	sll	t1,t1,0x4
    2b3c:	00084100 	sll	t0,t0,0x4
    2b40:	00076900 	sll	t5,a3,0x4
    2b44:	00001010 	mfhi	v0
    2b48:	000210c3 	sra	v0,v0,0x3
    2b4c:	0043c023 	subu	t8,v0,v1
    2b50:	00181900 	sll	v1,t8,0x4
    2b54:	00181080 	sll	v0,t8,0x2
    2b58:	00431021 	addu	v0,v0,v1
    2b5c:	0082c023 	subu	t8,a0,v0
    2b60:	3c036666 	lui	v1,0x6666
    2b64:	27040001 	addiu	a0,t8,1
    2b68:	34636667 	ori	v1,v1,0x6667
    2b6c:	00830018 	mult	a0,v1
    2b70:	00041fc3 	sra	v1,a0,0x1f
    2b74:	01465023 	subu	t2,t2,a2
    2b78:	01695823 	subu	t3,t3,t1
    2b7c:	01886023 	subu	t4,t4,t0
    2b80:	01a76823 	subu	t5,t5,a3
    2b84:	000a7100 	sll	t6,t2,0x4
    2b88:	000b7900 	sll	t7,t3,0x4
    2b8c:	000c8100 	sll	s0,t4,0x4
    2b90:	01ca7023 	subu	t6,t6,t2
    2b94:	01eb7823 	subu	t7,t7,t3
    2b98:	020c8023 	subu	s0,s0,t4
    2b9c:	00001010 	mfhi	v0
    2ba0:	000210c3 	sra	v0,v0,0x3
    2ba4:	0043c823 	subu	t9,v0,v1
    2ba8:	00191900 	sll	v1,t9,0x4
    2bac:	00191080 	sll	v0,t9,0x2
    2bb0:	00431021 	addu	v0,v0,v1
    2bb4:	0082c823 	subu	t9,a0,v0
    2bb8:	3c026666 	lui	v0,0x6666
    2bbc:	27250001 	addiu	a1,t9,1
    2bc0:	34426667 	ori	v0,v0,0x6667
    2bc4:	00a20018 	mult	a1,v0
    2bc8:	3c020005 	lui	v0,0x5
    2bcc:	24429a0c 	addiu	v0,v0,-26100
    2bd0:	01a26821 	addu	t5,t5,v0
    2bd4:	000537c3 	sra	a2,a1,0x1f
    2bd8:	3c030004 	lui	v1,0x4
    2bdc:	3c020004 	lui	v0,0x4
    2be0:	24637b1c 	addiu	v1,v1,31516
    2be4:	24425c2c 	addiu	v0,v0,23596
    2be8:	01e27821 	addu	t7,t7,v0
    2bec:	02038021 	addu	s0,s0,v1
    2bf0:	01c37021 	addu	t6,t6,v1
    2bf4:	00002010 	mfhi	a0
    2bf8:	000420c3 	sra	a0,a0,0x3
    2bfc:	0086a023 	subu	s4,a0,a2
    2c00:	00141900 	sll	v1,s4,0x4
    2c04:	00141080 	sll	v0,s4,0x2
    2c08:	00431021 	addu	v0,v0,v1
    2c0c:	00a2a023 	subu	s4,a1,v0
    2c10:	3c026666 	lui	v0,0x6666
    2c14:	26840001 	addiu	a0,s4,1
    2c18:	34426667 	ori	v0,v0,0x6667
    2c1c:	00820018 	mult	a0,v0
    2c20:	000457c3 	sra	t2,a0,0x1f
    2c24:	00121140 	sll	v0,s2,0x5
    2c28:	00123880 	sll	a3,s2,0x2
    2c2c:	00e23821 	addu	a3,a3,v0
    2c30:	26acbb3c 	addiu	t4,s5,-17604
    2c34:	8dc9000c 	lw	t1,12(t6)
    2c38:	8da60010 	lw	a2,16(t5)
    2c3c:	8e080004 	lw	t0,4(s0)
    2c40:	8de50000 	lw	a1,0(t7)
    2c44:	00c93021 	addu	a2,a2,t1
    2c48:	00a82821 	addu	a1,a1,t0
    2c4c:	00001810 	mfhi	v1
    2c50:	000318c3 	sra	v1,v1,0x3
    2c54:	006a9023 	subu	s2,v1,t2
    2c58:	00121900 	sll	v1,s2,0x4
    2c5c:	00121080 	sll	v0,s2,0x2
    2c60:	00431021 	addu	v0,v0,v1
    2c64:	00829023 	subu	s2,a0,v0
    2c68:	3c036666 	lui	v1,0x6666
    2c6c:	26440001 	addiu	a0,s2,1
    2c70:	34636667 	ori	v1,v1,0x6667
    2c74:	00830018 	mult	a0,v1
    2c78:	00041fc3 	sra	v1,a0,0x1f
    2c7c:	00134080 	sll	t0,s3,0x2
    2c80:	00c53021 	addu	a2,a2,a1
    2c84:	00ec3821 	addu	a3,a3,t4
    2c88:	44860000 	mtc1	a2,$f0
    2c8c:	c4e20010 	lwc1	$f2,16(a3)
    2c90:	8dcb0030 	lw	t3,48(t6)
    2c94:	8da60034 	lw	a2,52(t5)
    2c98:	46800020 	cvt.s.w	$f0,$f0
    2c9c:	46020000 	add.s	$f0,$f0,$f2
    2ca0:	00cb3021 	addu	a2,a2,t3
    2ca4:	00001010 	mfhi	v0
    2ca8:	000210c3 	sra	v0,v0,0x3
    2cac:	0043a823 	subu	s5,v0,v1
    2cb0:	00151900 	sll	v1,s5,0x4
    2cb4:	00151080 	sll	v0,s5,0x2
    2cb8:	00431021 	addu	v0,v0,v1
    2cbc:	0082a823 	subu	s5,a0,v0
    2cc0:	3c026666 	lui	v0,0x6666
    2cc4:	26a40001 	addiu	a0,s5,1
    2cc8:	34426667 	ori	v0,v0,0x6667
    2ccc:	00820018 	mult	a0,v0
    2cd0:	00044fc3 	sra	t1,a0,0x1f
    2cd4:	00131140 	sll	v0,s3,0x5
    2cd8:	01024021 	addu	t0,t0,v0
    2cdc:	e4e00010 	swc1	$f0,16(a3)
    2ce0:	00183880 	sll	a3,t8,0x2
    2ce4:	8e0a0028 	lw	t2,40(s0)
    2ce8:	8de50024 	lw	a1,36(t7)
    2cec:	010c4021 	addu	t0,t0,t4
    2cf0:	00aa2821 	addu	a1,a1,t2
    2cf4:	00c53021 	addu	a2,a2,a1
    2cf8:	44860000 	mtc1	a2,$f0
    2cfc:	00001810 	mfhi	v1
    2d00:	000318c3 	sra	v1,v1,0x3
    2d04:	00699823 	subu	s3,v1,t1
    2d08:	00131900 	sll	v1,s3,0x4
    2d0c:	00131080 	sll	v0,s3,0x2
    2d10:	00431021 	addu	v0,v0,v1
    2d14:	00829823 	subu	s3,a0,v0
    2d18:	3c026666 	lui	v0,0x6666
    2d1c:	26640001 	addiu	a0,s3,1
    2d20:	34426667 	ori	v0,v0,0x6667
    2d24:	00820018 	mult	a0,v0
    2d28:	00045fc3 	sra	t3,a0,0x1f
    2d2c:	00181140 	sll	v0,t8,0x5
    2d30:	00e23821 	addu	a3,a3,v0
    2d34:	c5020010 	lwc1	$f2,16(t0)
    2d38:	8dca0054 	lw	t2,84(t6)
    2d3c:	8e09004c 	lw	t1,76(s0)
    2d40:	8da60058 	lw	a2,88(t5)
    2d44:	8de50048 	lw	a1,72(t7)
    2d48:	46800020 	cvt.s.w	$f0,$f0
    2d4c:	46020000 	add.s	$f0,$f0,$f2
    2d50:	00a92821 	addu	a1,a1,t1
    2d54:	00001810 	mfhi	v1
    2d58:	000318c3 	sra	v1,v1,0x3
    2d5c:	006bf023 	subu	s8,v1,t3
    2d60:	001e1900 	sll	v1,s8,0x4
    2d64:	001e1080 	sll	v0,s8,0x2
    2d68:	00431021 	addu	v0,v0,v1
    2d6c:	0082f023 	subu	s8,a0,v0
    2d70:	3c036666 	lui	v1,0x6666
    2d74:	27c40001 	addiu	a0,s8,1
    2d78:	34636667 	ori	v1,v1,0x6667
    2d7c:	00830018 	mult	a0,v1
    2d80:	00041fc3 	sra	v1,a0,0x1f
    2d84:	00ca3021 	addu	a2,a2,t2
    2d88:	00c53021 	addu	a2,a2,a1
    2d8c:	e5000010 	swc1	$f0,16(t0)
    2d90:	8dcb0078 	lw	t3,120(t6)
    2d94:	8e0a0070 	lw	t2,112(s0)
    2d98:	44860000 	mtc1	a2,$f0
    2d9c:	8de5006c 	lw	a1,108(t7)
    2da0:	8da6007c 	lw	a2,124(t5)
    2da4:	00aa2821 	addu	a1,a1,t2
    2da8:	00cb3021 	addu	a2,a2,t3
    2dac:	00001010 	mfhi	v0
    2db0:	000210c3 	sra	v0,v0,0x3
    2db4:	0043b823 	subu	s7,v0,v1
    2db8:	00171900 	sll	v1,s7,0x4
    2dbc:	00171080 	sll	v0,s7,0x2
    2dc0:	00431021 	addu	v0,v0,v1
    2dc4:	0082b823 	subu	s7,a0,v0
    2dc8:	3c026666 	lui	v0,0x6666
    2dcc:	26e40001 	addiu	a0,s7,1
    2dd0:	34426667 	ori	v0,v0,0x6667
    2dd4:	00820018 	mult	a0,v0
    2dd8:	000447c3 	sra	t0,a0,0x1f
    2ddc:	00c53021 	addu	a2,a2,a1
    2de0:	00191140 	sll	v0,t9,0x5
    2de4:	00194880 	sll	t1,t9,0x2
    2de8:	01224821 	addu	t1,t1,v0
    2dec:	00ec3821 	addu	a3,a3,t4
    2df0:	c4e20010 	lwc1	$f2,16(a3)
    2df4:	46800020 	cvt.s.w	$f0,$f0
    2df8:	46020000 	add.s	$f0,$f0,$f2
    2dfc:	012c4821 	addu	t1,t1,t4
    2e00:	e4e00010 	swc1	$f0,16(a3)
    2e04:	00001810 	mfhi	v1
    2e08:	000318c3 	sra	v1,v1,0x3
    2e0c:	00681823 	subu	v1,v1,t0
    2e10:	afa30014 	sw	v1,20(sp)
    2e14:	8fa50014 	lw	a1,20(sp)
    2e18:	00031900 	sll	v1,v1,0x4
    2e1c:	00051080 	sll	v0,a1,0x2
    2e20:	00431021 	addu	v0,v0,v1
    2e24:	00822023 	subu	a0,a0,v0
    2e28:	3c026666 	lui	v0,0x6666
    2e2c:	24850001 	addiu	a1,a0,1
    2e30:	34426667 	ori	v0,v0,0x6667
    2e34:	00a20018 	mult	a1,v0
    2e38:	00055fc3 	sra	t3,a1,0x1f
    2e3c:	00141140 	sll	v0,s4,0x5
    2e40:	afa40014 	sw	a0,20(sp)
    2e44:	00142080 	sll	a0,s4,0x2
    2e48:	00822021 	addu	a0,a0,v0
    2e4c:	8e070094 	lw	a3,148(s0)
    2e50:	44860000 	mtc1	a2,$f0
    2e54:	8de60090 	lw	a2,144(t7)
    2e58:	c5220010 	lwc1	$f2,16(t1)
    2e5c:	00c73021 	addu	a2,a2,a3
    2e60:	46800020 	cvt.s.w	$f0,$f0
    2e64:	00001810 	mfhi	v1
    2e68:	000318c3 	sra	v1,v1,0x3
    2e6c:	006bb023 	subu	s6,v1,t3
    2e70:	00161900 	sll	v1,s6,0x4
    2e74:	00161080 	sll	v0,s6,0x2
    2e78:	00431021 	addu	v0,v0,v1
    2e7c:	00a2b023 	subu	s6,a1,v0
    2e80:	3c036666 	lui	v1,0x6666
    2e84:	26c70001 	addiu	a3,s6,1
    2e88:	34636667 	ori	v1,v1,0x6667
    2e8c:	00e30018 	mult	a3,v1
    2e90:	46020000 	add.s	$f0,$f0,$f2
    2e94:	8dca009c 	lw	t2,156(t6)
    2e98:	8da800a0 	lw	t0,160(t5)
    2e9c:	00071fc3 	sra	v1,a3,0x1f
    2ea0:	e5200010 	swc1	$f0,16(t1)
    2ea4:	010a4021 	addu	t0,t0,t2
    2ea8:	00124880 	sll	t1,s2,0x2
    2eac:	00125140 	sll	t2,s2,0x5
    2eb0:	01064021 	addu	t0,t0,a2
    2eb4:	008c2021 	addu	a0,a0,t4
    2eb8:	44880000 	mtc1	t0,$f0
    2ebc:	00001010 	mfhi	v0
    2ec0:	000210c3 	sra	v0,v0,0x3
    2ec4:	00439023 	subu	s2,v0,v1
    2ec8:	00121900 	sll	v1,s2,0x4
    2ecc:	00121080 	sll	v0,s2,0x2
    2ed0:	00431021 	addu	v0,v0,v1
    2ed4:	00e29023 	subu	s2,a3,v0
    2ed8:	3c026666 	lui	v0,0x6666
    2edc:	26460001 	addiu	a2,s2,1
    2ee0:	34426667 	ori	v0,v0,0x6667
    2ee4:	00c20018 	mult	a2,v0
    2ee8:	c4820010 	lwc1	$f2,16(a0)
    2eec:	46800020 	cvt.s.w	$f0,$f0
    2ef0:	46020000 	add.s	$f0,$f0,$f2
    2ef4:	8dc800c0 	lw	t0,192(t6)
    2ef8:	e4800010 	swc1	$f0,16(a0)
    2efc:	8e0300b8 	lw	v1,184(s0)
    2f00:	8da500c4 	lw	a1,196(t5)
    2f04:	8de200b4 	lw	v0,180(t7)
    2f08:	00063fc3 	sra	a3,a2,0x1f
    2f0c:	00431021 	addu	v0,v0,v1
    2f10:	00a82821 	addu	a1,a1,t0
    2f14:	00002010 	mfhi	a0
    2f18:	000420c3 	sra	a0,a0,0x3
    2f1c:	0087c823 	subu	t9,a0,a3
    2f20:	00a22821 	addu	a1,a1,v0
    2f24:	00191900 	sll	v1,t9,0x4
    2f28:	00191080 	sll	v0,t9,0x2
    2f2c:	00431021 	addu	v0,v0,v1
    2f30:	00c2c823 	subu	t9,a2,v0
    2f34:	3c026666 	lui	v0,0x6666
    2f38:	27240001 	addiu	a0,t9,1
    2f3c:	34426667 	ori	v0,v0,0x6667
    2f40:	00820018 	mult	a0,v0
    2f44:	00045fc3 	sra	t3,a0,0x1f
    2f48:	00151140 	sll	v0,s5,0x5
    2f4c:	00154080 	sll	t0,s5,0x2
    2f50:	01024021 	addu	t0,t0,v0
    2f54:	012a4821 	addu	t1,t1,t2
    2f58:	012c4821 	addu	t1,t1,t4
    2f5c:	44850000 	mtc1	a1,$f0
    2f60:	c5220010 	lwc1	$f2,16(t1)
    2f64:	46800020 	cvt.s.w	$f0,$f0
    2f68:	46020000 	add.s	$f0,$f0,$f2
    2f6c:	8e0700dc 	lw	a3,220(s0)
    2f70:	00001810 	mfhi	v1
    2f74:	000318c3 	sra	v1,v1,0x3
    2f78:	006bc023 	subu	t8,v1,t3
    2f7c:	00181900 	sll	v1,t8,0x4
    2f80:	00181080 	sll	v0,t8,0x2
    2f84:	00431021 	addu	v0,v0,v1
    2f88:	0082c023 	subu	t8,a0,v0
    2f8c:	3c036666 	lui	v1,0x6666
    2f90:	27040001 	addiu	a0,t8,1
    2f94:	34636667 	ori	v1,v1,0x6667
    2f98:	00830018 	mult	a0,v1
    2f9c:	00041fc3 	sra	v1,a0,0x1f
    2fa0:	8de500d8 	lw	a1,216(t7)
    2fa4:	e5200010 	swc1	$f0,16(t1)
    2fa8:	8dca00e4 	lw	t2,228(t6)
    2fac:	8da600e8 	lw	a2,232(t5)
    2fb0:	00a72821 	addu	a1,a1,a3
    2fb4:	00133880 	sll	a3,s3,0x2
    2fb8:	00ca3021 	addu	a2,a2,t2
    2fbc:	00c53021 	addu	a2,a2,a1
    2fc0:	8e0a0100 	lw	t2,256(s0)
    2fc4:	8de500fc 	lw	a1,252(t7)
    2fc8:	00001010 	mfhi	v0
    2fcc:	000210c3 	sra	v0,v0,0x3
    2fd0:	0043a823 	subu	s5,v0,v1
    2fd4:	00151900 	sll	v1,s5,0x4
    2fd8:	00151080 	sll	v0,s5,0x2
    2fdc:	00431021 	addu	v0,v0,v1
    2fe0:	0082a823 	subu	s5,a0,v0
    2fe4:	3c026666 	lui	v0,0x6666
    2fe8:	26a40001 	addiu	a0,s5,1
    2fec:	34426667 	ori	v0,v0,0x6667
    2ff0:	00820018 	mult	a0,v0
    2ff4:	00044fc3 	sra	t1,a0,0x1f
    2ff8:	00131140 	sll	v0,s3,0x5
    2ffc:	00e23821 	addu	a3,a3,v0
    3000:	00aa2821 	addu	a1,a1,t2
    3004:	010c4021 	addu	t0,t0,t4
    3008:	44860000 	mtc1	a2,$f0
    300c:	c5020010 	lwc1	$f2,16(t0)
    3010:	8dcb0108 	lw	t3,264(t6)
    3014:	8da6010c 	lw	a2,268(t5)
    3018:	46800020 	cvt.s.w	$f0,$f0
    301c:	46020000 	add.s	$f0,$f0,$f2
    3020:	00001810 	mfhi	v1
    3024:	000318c3 	sra	v1,v1,0x3
    3028:	0069a023 	subu	s4,v1,t1
    302c:	00141900 	sll	v1,s4,0x4
    3030:	00141080 	sll	v0,s4,0x2
    3034:	00431021 	addu	v0,v0,v1
    3038:	0082a023 	subu	s4,a0,v0
    303c:	3c026666 	lui	v0,0x6666
    3040:	268a0001 	addiu	t2,s4,1
    3044:	34426667 	ori	v0,v0,0x6667
    3048:	01420018 	mult	t2,v0
    304c:	00cb3021 	addu	a2,a2,t3
    3050:	00c53021 	addu	a2,a2,a1
    3054:	e5000010 	swc1	$f0,16(t0)
    3058:	00ec3821 	addu	a3,a3,t4
    305c:	44860000 	mtc1	a2,$f0
    3060:	c4e20010 	lwc1	$f2,16(a3)
    3064:	8dc9012c 	lw	t1,300(t6)
    3068:	8e060124 	lw	a2,292(s0)
    306c:	8da40130 	lw	a0,304(t5)
    3070:	8de30120 	lw	v1,288(t7)
    3074:	46800020 	cvt.s.w	$f0,$f0
    3078:	46020000 	add.s	$f0,$f0,$f2
    307c:	00661821 	addu	v1,v1,a2
    3080:	001e1140 	sll	v0,s8,0x5
    3084:	00892021 	addu	a0,a0,t1
    3088:	001e2880 	sll	a1,s8,0x2
    308c:	00004010 	mfhi	t0
    3090:	00832021 	addu	a0,a0,v1
    3094:	00a22821 	addu	a1,a1,v0
    3098:	e4e00010 	swc1	$f0,16(a3)
    309c:	00ac2821 	addu	a1,a1,t4
    30a0:	8e090148 	lw	t1,328(s0)
    30a4:	000a17c3 	sra	v0,t2,0x1f
    30a8:	44840000 	mtc1	a0,$f0
    30ac:	000840c3 	sra	t0,t0,0x3
    30b0:	8de40144 	lw	a0,324(t7)
    30b4:	c4a20010 	lwc1	$f2,16(a1)
    30b8:	01029823 	subu	s3,t0,v0
    30bc:	8dcb0150 	lw	t3,336(t6)
    30c0:	8da70154 	lw	a3,340(t5)
    30c4:	00171940 	sll	v1,s7,0x5
    30c8:	00173080 	sll	a2,s7,0x2
    30cc:	00892021 	addu	a0,a0,t1
    30d0:	00c33021 	addu	a2,a2,v1
    30d4:	8fa90014 	lw	t1,20(sp)
    30d8:	00131900 	sll	v1,s3,0x4
    30dc:	00131080 	sll	v0,s3,0x2
    30e0:	46800020 	cvt.s.w	$f0,$f0
    30e4:	46020000 	add.s	$f0,$f0,$f2
    30e8:	00431021 	addu	v0,v0,v1
    30ec:	00eb3821 	addu	a3,a3,t3
    30f0:	01429823 	subu	s3,t2,v0
    30f4:	00e43821 	addu	a3,a3,a0
    30f8:	00091140 	sll	v0,t1,0x5
    30fc:	00091880 	sll	v1,t1,0x2
    3100:	e4a00010 	swc1	$f0,16(a1)
    3104:	00cc3021 	addu	a2,a2,t4
    3108:	44870000 	mtc1	a3,$f0
    310c:	00621821 	addu	v1,v1,v0
    3110:	3c026666 	lui	v0,0x6666
    3114:	c4c20010 	lwc1	$f2,16(a2)
    3118:	266a0001 	addiu	t2,s3,1
    311c:	8dc80174 	lw	t0,372(t6)
    3120:	8e07016c 	lw	a3,364(s0)
    3124:	8da50178 	lw	a1,376(t5)
    3128:	8de40168 	lw	a0,360(t7)
    312c:	34426667 	ori	v0,v0,0x6667
    3130:	01420018 	mult	t2,v0
    3134:	46800020 	cvt.s.w	$f0,$f0
    3138:	46020000 	add.s	$f0,$f0,$f2
    313c:	00872021 	addu	a0,a0,a3
    3140:	00a82821 	addu	a1,a1,t0
    3144:	00a42821 	addu	a1,a1,a0
    3148:	e4c00010 	swc1	$f0,16(a2)
    314c:	006c1821 	addu	v1,v1,t4
    3150:	44850000 	mtc1	a1,$f0
    3154:	c4620010 	lwc1	$f2,16(v1)
    3158:	46800020 	cvt.s.w	$f0,$f0
    315c:	46020000 	add.s	$f0,$f0,$f2
    3160:	8dc60198 	lw	a2,408(t6)
    3164:	e4600010 	swc1	$f0,16(v1)
    3168:	8e040190 	lw	a0,400(s0)
    316c:	8da3019c 	lw	v1,412(t5)
    3170:	8de2018c 	lw	v0,396(t7)
    3174:	00661821 	addu	v1,v1,a2
    3178:	00441021 	addu	v0,v0,a0
    317c:	00621821 	addu	v1,v1,v0
    3180:	00163940 	sll	a3,s6,0x5
    3184:	00162880 	sll	a1,s6,0x2
    3188:	00004810 	mfhi	t1
    318c:	8dc801bc 	lw	t0,444(t6)
    3190:	8e0601b4 	lw	a2,436(s0)
    3194:	00121140 	sll	v0,s2,0x5
    3198:	00a72821 	addu	a1,a1,a3
    319c:	44830000 	mtc1	v1,$f0
    31a0:	8da401c0 	lw	a0,448(t5)
    31a4:	8de301b0 	lw	v1,432(t7)
    31a8:	00123880 	sll	a3,s2,0x2
    31ac:	00ac2821 	addu	a1,a1,t4
    31b0:	00e23821 	addu	a3,a3,v0
    31b4:	000948c3 	sra	t1,t1,0x3
    31b8:	000a17c3 	sra	v0,t2,0x1f
    31bc:	c4a20010 	lwc1	$f2,16(a1)
    31c0:	01229023 	subu	s2,t1,v0
    31c4:	00661821 	addu	v1,v1,a2
    31c8:	00882021 	addu	a0,a0,t0
    31cc:	00832021 	addu	a0,a0,v1
    31d0:	00121080 	sll	v0,s2,0x2
    31d4:	00121900 	sll	v1,s2,0x4
    31d8:	46800020 	cvt.s.w	$f0,$f0
    31dc:	46020000 	add.s	$f0,$f0,$f2
    31e0:	00431021 	addu	v0,v0,v1
    31e4:	01429023 	subu	s2,t2,v0
    31e8:	00193080 	sll	a2,t9,0x2
    31ec:	00191140 	sll	v0,t9,0x5
    31f0:	e4a00010 	swc1	$f0,16(a1)
    31f4:	00ec3821 	addu	a3,a3,t4
    31f8:	44840000 	mtc1	a0,$f0
    31fc:	00c23021 	addu	a2,a2,v0
    3200:	3c026666 	lui	v0,0x6666
    3204:	c4e20010 	lwc1	$f2,16(a3)
    3208:	264a0001 	addiu	t2,s2,1
    320c:	8dc801e0 	lw	t0,480(t6)
    3210:	8e0501d8 	lw	a1,472(s0)
    3214:	8da401e4 	lw	a0,484(t5)
    3218:	8de301d4 	lw	v1,468(t7)
    321c:	34426667 	ori	v0,v0,0x6667
    3220:	01420018 	mult	t2,v0
    3224:	46800020 	cvt.s.w	$f0,$f0
    3228:	46020000 	add.s	$f0,$f0,$f2
    322c:	00651821 	addu	v1,v1,a1
    3230:	00882021 	addu	a0,a0,t0
    3234:	00832021 	addu	a0,a0,v1
    3238:	e4e00010 	swc1	$f0,16(a3)
    323c:	00cc3021 	addu	a2,a2,t4
    3240:	44840000 	mtc1	a0,$f0
    3244:	c4c20010 	lwc1	$f2,16(a2)
    3248:	8dc80204 	lw	t0,516(t6)
    324c:	8e0701fc 	lw	a3,508(s0)
    3250:	8da50208 	lw	a1,520(t5)
    3254:	8de301f8 	lw	v1,504(t7)
    3258:	46800020 	cvt.s.w	$f0,$f0
    325c:	46020000 	add.s	$f0,$f0,$f2
    3260:	00671821 	addu	v1,v1,a3
    3264:	00181140 	sll	v0,t8,0x5
    3268:	00a82821 	addu	a1,a1,t0
    326c:	00182080 	sll	a0,t8,0x2
    3270:	00a32821 	addu	a1,a1,v1
    3274:	00822021 	addu	a0,a0,v0
    3278:	e4c00010 	swc1	$f0,16(a2)
    327c:	008c2021 	addu	a0,a0,t4
    3280:	44850000 	mtc1	a1,$f0
    3284:	c4820010 	lwc1	$f2,16(a0)
    3288:	8dc80228 	lw	t0,552(t6)
    328c:	8e070220 	lw	a3,544(s0)
    3290:	8da5022c 	lw	a1,556(t5)
    3294:	8de3021c 	lw	v1,540(t7)
    3298:	46800020 	cvt.s.w	$f0,$f0
    329c:	46020000 	add.s	$f0,$f0,$f2
    32a0:	00671821 	addu	v1,v1,a3
    32a4:	00151140 	sll	v0,s5,0x5
    32a8:	00a82821 	addu	a1,a1,t0
    32ac:	00153080 	sll	a2,s5,0x2
    32b0:	00a32821 	addu	a1,a1,v1
    32b4:	00004810 	mfhi	t1
    32b8:	00c23021 	addu	a2,a2,v0
    32bc:	e4800010 	swc1	$f0,16(a0)
    32c0:	00cc3021 	addu	a2,a2,t4
    32c4:	000a17c3 	sra	v0,t2,0x1f
    32c8:	44850000 	mtc1	a1,$f0
    32cc:	000948c3 	sra	t1,t1,0x3
    32d0:	01225823 	subu	t3,t1,v0
    32d4:	c4c20010 	lwc1	$f2,16(a2)
    32d8:	8dc9024c 	lw	t1,588(t6)
    32dc:	8e080244 	lw	t0,580(s0)
    32e0:	8da50250 	lw	a1,592(t5)
    32e4:	8de40240 	lw	a0,576(t7)
    32e8:	46800020 	cvt.s.w	$f0,$f0
    32ec:	46020000 	add.s	$f0,$f0,$f2
    32f0:	00141140 	sll	v0,s4,0x5
    32f4:	00882021 	addu	a0,a0,t0
    32f8:	00141880 	sll	v1,s4,0x2
    32fc:	00a92821 	addu	a1,a1,t1
    3300:	00a42821 	addu	a1,a1,a0
    3304:	00621821 	addu	v1,v1,v0
    3308:	e4c00010 	swc1	$f0,16(a2)
    330c:	000b3900 	sll	a3,t3,0x4
    3310:	006c1821 	addu	v1,v1,t4
    3314:	000b1080 	sll	v0,t3,0x2
    3318:	44850000 	mtc1	a1,$f0
    331c:	c4620010 	lwc1	$f2,16(v1)
    3320:	00471021 	addu	v0,v0,a3
    3324:	01425823 	subu	t3,t2,v0
    3328:	46800020 	cvt.s.w	$f0,$f0
    332c:	3c026666 	lui	v0,0x6666
    3330:	256a0001 	addiu	t2,t3,1
    3334:	46020000 	add.s	$f0,$f0,$f2
    3338:	34426667 	ori	v0,v0,0x6667
    333c:	01420018 	mult	t2,v0
    3340:	e4600010 	swc1	$f0,16(v1)
    3344:	8dc60270 	lw	a2,624(t6)
    3348:	8e040268 	lw	a0,616(s0)
    334c:	8da30274 	lw	v1,628(t5)
    3350:	8de20264 	lw	v0,612(t7)
    3354:	00133940 	sll	a3,s3,0x5
    3358:	00441021 	addu	v0,v0,a0
    335c:	00661821 	addu	v1,v1,a2
    3360:	00132880 	sll	a1,s3,0x2
    3364:	00621821 	addu	v1,v1,v0
    3368:	00a72821 	addu	a1,a1,a3
    336c:	00ac2821 	addu	a1,a1,t4
    3370:	44830000 	mtc1	v1,$f0
    3374:	c4a20010 	lwc1	$f2,16(a1)
    3378:	8dc80294 	lw	t0,660(t6)
    337c:	8e04028c 	lw	a0,652(s0)
    3380:	8da30298 	lw	v1,664(t5)
    3384:	8de20288 	lw	v0,648(t7)
    3388:	46800020 	cvt.s.w	$f0,$f0
    338c:	46020000 	add.s	$f0,$f0,$f2
    3390:	00123940 	sll	a3,s2,0x5
    3394:	00441021 	addu	v0,v0,a0
    3398:	00123080 	sll	a2,s2,0x2
    339c:	00681821 	addu	v1,v1,t0
    33a0:	00621821 	addu	v1,v1,v0
    33a4:	00c73021 	addu	a2,a2,a3
    33a8:	e4a00010 	swc1	$f0,16(a1)
    33ac:	00cc3021 	addu	a2,a2,t4
    33b0:	44830000 	mtc1	v1,$f0
    33b4:	c4c20010 	lwc1	$f2,16(a2)
    33b8:	8e0802b0 	lw	t0,688(s0)
    33bc:	8da702bc 	lw	a3,700(t5)
    33c0:	8dc902b8 	lw	t1,696(t6)
    33c4:	8de502ac 	lw	a1,684(t7)
    33c8:	0000a010 	mfhi	s4
    33cc:	46800020 	cvt.s.w	$f0,$f0
    33d0:	46020000 	add.s	$f0,$f0,$f2
    33d4:	00a82821 	addu	a1,a1,t0
    33d8:	0014a0c3 	sra	s4,s4,0x3
    33dc:	000b1940 	sll	v1,t3,0x5
    33e0:	000a17c3 	sra	v0,t2,0x1f
    33e4:	000b2080 	sll	a0,t3,0x2
    33e8:	00e93821 	addu	a3,a3,t1
    33ec:	02829023 	subu	s2,s4,v0
    33f0:	00832021 	addu	a0,a0,v1
    33f4:	00e53821 	addu	a3,a3,a1
    33f8:	e4c00010 	swc1	$f0,16(a2)
    33fc:	008c2021 	addu	a0,a0,t4
    3400:	00121900 	sll	v1,s2,0x4
    3404:	00121080 	sll	v0,s2,0x2
    3408:	44870000 	mtc1	a3,$f0
    340c:	c4820010 	lwc1	$f2,16(a0)
    3410:	00431021 	addu	v0,v0,v1
    3414:	01429023 	subu	s2,t2,v0
    3418:	46800020 	cvt.s.w	$f0,$f0
    341c:	46020000 	add.s	$f0,$f0,$f2
    3420:	00121140 	sll	v0,s2,0x5
    3424:	00121880 	sll	v1,s2,0x2
    3428:	00621821 	addu	v1,v1,v0
    342c:	e4800010 	swc1	$f0,16(a0)
    3430:	006c1821 	addu	v1,v1,t4
    3434:	3c040000 	lui	a0,0x0
    3438:	c4825c28 	lwc1	$f2,23592(a0)
    343c:	c4600010 	lwc1	$f0,16(v1)
    3440:	3c050005 	lui	a1,0x5
    3444:	46020003 	div.s	$f0,$f0,$f2
    3448:	24a4bb18 	addiu	a0,a1,-17640
    344c:	8fa6002c 	lw	a2,44(sp)
    3450:	24020005 	li	v0,5
    3454:	c4820010 	lwc1	$f2,16(a0)
    3458:	3c080005 	lui	t0,0x5
    345c:	00461023 	subu	v0,v0,a2
    3460:	afb40040 	sw	s4,64(sp)
    3464:	ad12be0c 	sw	s2,-16884(t0)
    3468:	080000a4 	j	290 <main+0x290>
    346c:	ac600010 	sw	zero,16(v1)
    3470:	3c026666 	lui	v0,0x6666
    3474:	26470001 	addiu	a3,s2,1
    3478:	34426667 	ori	v0,v0,0x6667
    347c:	00e20018 	mult	a3,v0
    3480:	00021880 	sll	v1,v0,0x2
    3484:	00021140 	sll	v0,v0,0x5
    3488:	00621821 	addu	v1,v1,v0
    348c:	3c020005 	lui	v0,0x5
    3490:	000757c3 	sra	t2,a3,0x1f
    3494:	2442b8fc 	addiu	v0,v0,-18180
    3498:	00621821 	addu	v1,v1,v0
    349c:	8c690024 	lw	t1,36(v1)
    34a0:	8c650014 	lw	a1,20(v1)
    34a4:	8c660010 	lw	a2,16(v1)
    34a8:	8c680020 	lw	t0,32(v1)
    34ac:	00002010 	mfhi	a0
    34b0:	000420c3 	sra	a0,a0,0x3
    34b4:	008a9823 	subu	s3,a0,t2
    34b8:	00131900 	sll	v1,s3,0x4
    34bc:	00131080 	sll	v0,s3,0x2
    34c0:	00431021 	addu	v0,v0,v1
    34c4:	00e29823 	subu	s3,a3,v0
    34c8:	3c036666 	lui	v1,0x6666
    34cc:	26640001 	addiu	a0,s3,1
    34d0:	34636667 	ori	v1,v1,0x6667
    34d4:	00830018 	mult	a0,v1
    34d8:	00041fc3 	sra	v1,a0,0x1f
    34dc:	00053980 	sll	a3,a1,0x6
    34e0:	00052900 	sll	a1,a1,0x4
    34e4:	00e53823 	subu	a3,a3,a1
    34e8:	00065180 	sll	t2,a2,0x6
    34ec:	00095980 	sll	t3,t1,0x6
    34f0:	00086180 	sll	t4,t0,0x6
    34f4:	00063100 	sll	a2,a2,0x4
    34f8:	00094900 	sll	t1,t1,0x4
    34fc:	00084100 	sll	t0,t0,0x4
    3500:	00076900 	sll	t5,a3,0x4
    3504:	00001010 	mfhi	v0
    3508:	000210c3 	sra	v0,v0,0x3
    350c:	0043c023 	subu	t8,v0,v1
    3510:	00181900 	sll	v1,t8,0x4
    3514:	00181080 	sll	v0,t8,0x2
    3518:	00431021 	addu	v0,v0,v1
    351c:	0082c023 	subu	t8,a0,v0
    3520:	3c036666 	lui	v1,0x6666
    3524:	27040001 	addiu	a0,t8,1
    3528:	34636667 	ori	v1,v1,0x6667
    352c:	00830018 	mult	a0,v1
    3530:	00041fc3 	sra	v1,a0,0x1f
    3534:	01465023 	subu	t2,t2,a2
    3538:	01695823 	subu	t3,t3,t1
    353c:	01886023 	subu	t4,t4,t0
    3540:	01a76823 	subu	t5,t5,a3
    3544:	000a7100 	sll	t6,t2,0x4
    3548:	000b7900 	sll	t7,t3,0x4
    354c:	000c8100 	sll	s0,t4,0x4
    3550:	01ca7023 	subu	t6,t6,t2
    3554:	01eb7823 	subu	t7,t7,t3
    3558:	020c8023 	subu	s0,s0,t4
    355c:	00001010 	mfhi	v0
    3560:	000210c3 	sra	v0,v0,0x3
    3564:	0043c823 	subu	t9,v0,v1
    3568:	00191900 	sll	v1,t9,0x4
    356c:	00191080 	sll	v0,t9,0x2
    3570:	00431021 	addu	v0,v0,v1
    3574:	0082c823 	subu	t9,a0,v0
    3578:	3c026666 	lui	v0,0x6666
    357c:	27250001 	addiu	a1,t9,1
    3580:	34426667 	ori	v0,v0,0x6667
    3584:	00a20018 	mult	a1,v0
    3588:	3c020005 	lui	v0,0x5
    358c:	24429a0c 	addiu	v0,v0,-26100
    3590:	01a26821 	addu	t5,t5,v0
    3594:	000537c3 	sra	a2,a1,0x1f
    3598:	3c030004 	lui	v1,0x4
    359c:	3c020004 	lui	v0,0x4
    35a0:	24637b1c 	addiu	v1,v1,31516
    35a4:	24425c2c 	addiu	v0,v0,23596
    35a8:	01e27821 	addu	t7,t7,v0
    35ac:	02038021 	addu	s0,s0,v1
    35b0:	01c37021 	addu	t6,t6,v1
    35b4:	00002010 	mfhi	a0
    35b8:	000420c3 	sra	a0,a0,0x3
    35bc:	0086a023 	subu	s4,a0,a2
    35c0:	00141900 	sll	v1,s4,0x4
    35c4:	00141080 	sll	v0,s4,0x2
    35c8:	00431021 	addu	v0,v0,v1
    35cc:	00a2a023 	subu	s4,a1,v0
    35d0:	3c026666 	lui	v0,0x6666
    35d4:	26840001 	addiu	a0,s4,1
    35d8:	34426667 	ori	v0,v0,0x6667
    35dc:	00820018 	mult	a0,v0
    35e0:	000457c3 	sra	t2,a0,0x1f
    35e4:	00121140 	sll	v0,s2,0x5
    35e8:	00123880 	sll	a3,s2,0x2
    35ec:	00e23821 	addu	a3,a3,v0
    35f0:	26acbb3c 	addiu	t4,s5,-17604
    35f4:	8dc9000c 	lw	t1,12(t6)
    35f8:	8da60010 	lw	a2,16(t5)
    35fc:	8e080004 	lw	t0,4(s0)
    3600:	8de50000 	lw	a1,0(t7)
    3604:	00c93021 	addu	a2,a2,t1
    3608:	00a82821 	addu	a1,a1,t0
    360c:	00001810 	mfhi	v1
    3610:	000318c3 	sra	v1,v1,0x3
    3614:	006a9023 	subu	s2,v1,t2
    3618:	00121900 	sll	v1,s2,0x4
    361c:	00121080 	sll	v0,s2,0x2
    3620:	00431021 	addu	v0,v0,v1
    3624:	00829023 	subu	s2,a0,v0
    3628:	3c036666 	lui	v1,0x6666
    362c:	26440001 	addiu	a0,s2,1
    3630:	34636667 	ori	v1,v1,0x6667
    3634:	00830018 	mult	a0,v1
    3638:	00041fc3 	sra	v1,a0,0x1f
    363c:	00134080 	sll	t0,s3,0x2
    3640:	00c53021 	addu	a2,a2,a1
    3644:	00ec3821 	addu	a3,a3,t4
    3648:	44860000 	mtc1	a2,$f0
    364c:	c4e20014 	lwc1	$f2,20(a3)
    3650:	8dcb0030 	lw	t3,48(t6)
    3654:	8da60034 	lw	a2,52(t5)
    3658:	46800020 	cvt.s.w	$f0,$f0
    365c:	46020000 	add.s	$f0,$f0,$f2
    3660:	00cb3021 	addu	a2,a2,t3
    3664:	00001010 	mfhi	v0
    3668:	000210c3 	sra	v0,v0,0x3
    366c:	0043a823 	subu	s5,v0,v1
    3670:	00151900 	sll	v1,s5,0x4
    3674:	00151080 	sll	v0,s5,0x2
    3678:	00431021 	addu	v0,v0,v1
    367c:	0082a823 	subu	s5,a0,v0
    3680:	3c026666 	lui	v0,0x6666
    3684:	26a40001 	addiu	a0,s5,1
    3688:	34426667 	ori	v0,v0,0x6667
    368c:	00820018 	mult	a0,v0
    3690:	00044fc3 	sra	t1,a0,0x1f
    3694:	00131140 	sll	v0,s3,0x5
    3698:	01024021 	addu	t0,t0,v0
    369c:	e4e00014 	swc1	$f0,20(a3)
    36a0:	00183880 	sll	a3,t8,0x2
    36a4:	8e0a0028 	lw	t2,40(s0)
    36a8:	8de50024 	lw	a1,36(t7)
    36ac:	010c4021 	addu	t0,t0,t4
    36b0:	00aa2821 	addu	a1,a1,t2
    36b4:	00c53021 	addu	a2,a2,a1
    36b8:	44860000 	mtc1	a2,$f0
    36bc:	00001810 	mfhi	v1
    36c0:	000318c3 	sra	v1,v1,0x3
    36c4:	00699823 	subu	s3,v1,t1
    36c8:	00131900 	sll	v1,s3,0x4
    36cc:	00131080 	sll	v0,s3,0x2
    36d0:	00431021 	addu	v0,v0,v1
    36d4:	00829823 	subu	s3,a0,v0
    36d8:	3c026666 	lui	v0,0x6666
    36dc:	26640001 	addiu	a0,s3,1
    36e0:	34426667 	ori	v0,v0,0x6667
    36e4:	00820018 	mult	a0,v0
    36e8:	00045fc3 	sra	t3,a0,0x1f
    36ec:	00181140 	sll	v0,t8,0x5
    36f0:	00e23821 	addu	a3,a3,v0
    36f4:	c5020014 	lwc1	$f2,20(t0)
    36f8:	8dca0054 	lw	t2,84(t6)
    36fc:	8e09004c 	lw	t1,76(s0)
    3700:	8da60058 	lw	a2,88(t5)
    3704:	8de50048 	lw	a1,72(t7)
    3708:	46800020 	cvt.s.w	$f0,$f0
    370c:	46020000 	add.s	$f0,$f0,$f2
    3710:	00a92821 	addu	a1,a1,t1
    3714:	00001810 	mfhi	v1
    3718:	000318c3 	sra	v1,v1,0x3
    371c:	006bf023 	subu	s8,v1,t3
    3720:	001e1900 	sll	v1,s8,0x4
    3724:	001e1080 	sll	v0,s8,0x2
    3728:	00431021 	addu	v0,v0,v1
    372c:	0082f023 	subu	s8,a0,v0
    3730:	3c036666 	lui	v1,0x6666
    3734:	27c40001 	addiu	a0,s8,1
    3738:	34636667 	ori	v1,v1,0x6667
    373c:	00830018 	mult	a0,v1
    3740:	00041fc3 	sra	v1,a0,0x1f
    3744:	00ca3021 	addu	a2,a2,t2
    3748:	00c53021 	addu	a2,a2,a1
    374c:	e5000014 	swc1	$f0,20(t0)
    3750:	8dcb0078 	lw	t3,120(t6)
    3754:	8e0a0070 	lw	t2,112(s0)
    3758:	44860000 	mtc1	a2,$f0
    375c:	8de5006c 	lw	a1,108(t7)
    3760:	8da6007c 	lw	a2,124(t5)
    3764:	00aa2821 	addu	a1,a1,t2
    3768:	00cb3021 	addu	a2,a2,t3
    376c:	00001010 	mfhi	v0
    3770:	000210c3 	sra	v0,v0,0x3
    3774:	0043b823 	subu	s7,v0,v1
    3778:	00171900 	sll	v1,s7,0x4
    377c:	00171080 	sll	v0,s7,0x2
    3780:	00431021 	addu	v0,v0,v1
    3784:	0082b823 	subu	s7,a0,v0
    3788:	3c026666 	lui	v0,0x6666
    378c:	26e40001 	addiu	a0,s7,1
    3790:	34426667 	ori	v0,v0,0x6667
    3794:	00820018 	mult	a0,v0
    3798:	000447c3 	sra	t0,a0,0x1f
    379c:	00c53021 	addu	a2,a2,a1
    37a0:	00191140 	sll	v0,t9,0x5
    37a4:	00194880 	sll	t1,t9,0x2
    37a8:	01224821 	addu	t1,t1,v0
    37ac:	00ec3821 	addu	a3,a3,t4
    37b0:	c4e20014 	lwc1	$f2,20(a3)
    37b4:	46800020 	cvt.s.w	$f0,$f0
    37b8:	46020000 	add.s	$f0,$f0,$f2
    37bc:	012c4821 	addu	t1,t1,t4
    37c0:	e4e00014 	swc1	$f0,20(a3)
    37c4:	00001810 	mfhi	v1
    37c8:	000318c3 	sra	v1,v1,0x3
    37cc:	00681823 	subu	v1,v1,t0
    37d0:	afa30018 	sw	v1,24(sp)
    37d4:	8fa50018 	lw	a1,24(sp)
    37d8:	00031900 	sll	v1,v1,0x4
    37dc:	00051080 	sll	v0,a1,0x2
    37e0:	00431021 	addu	v0,v0,v1
    37e4:	00822023 	subu	a0,a0,v0
    37e8:	3c026666 	lui	v0,0x6666
    37ec:	24850001 	addiu	a1,a0,1
    37f0:	34426667 	ori	v0,v0,0x6667
    37f4:	00a20018 	mult	a1,v0
    37f8:	00055fc3 	sra	t3,a1,0x1f
    37fc:	00141140 	sll	v0,s4,0x5
    3800:	afa40018 	sw	a0,24(sp)
    3804:	00142080 	sll	a0,s4,0x2
    3808:	00822021 	addu	a0,a0,v0
    380c:	8e070094 	lw	a3,148(s0)
    3810:	44860000 	mtc1	a2,$f0
    3814:	8de60090 	lw	a2,144(t7)
    3818:	c5220014 	lwc1	$f2,20(t1)
    381c:	00c73021 	addu	a2,a2,a3
    3820:	46800020 	cvt.s.w	$f0,$f0
    3824:	00001810 	mfhi	v1
    3828:	000318c3 	sra	v1,v1,0x3
    382c:	006bb023 	subu	s6,v1,t3
    3830:	00161900 	sll	v1,s6,0x4
    3834:	00161080 	sll	v0,s6,0x2
    3838:	00431021 	addu	v0,v0,v1
    383c:	00a2b023 	subu	s6,a1,v0
    3840:	3c036666 	lui	v1,0x6666
    3844:	26c70001 	addiu	a3,s6,1
    3848:	34636667 	ori	v1,v1,0x6667
    384c:	00e30018 	mult	a3,v1
    3850:	46020000 	add.s	$f0,$f0,$f2
    3854:	8dca009c 	lw	t2,156(t6)
    3858:	8da800a0 	lw	t0,160(t5)
    385c:	00071fc3 	sra	v1,a3,0x1f
    3860:	e5200014 	swc1	$f0,20(t1)
    3864:	010a4021 	addu	t0,t0,t2
    3868:	00124880 	sll	t1,s2,0x2
    386c:	00125140 	sll	t2,s2,0x5
    3870:	01064021 	addu	t0,t0,a2
    3874:	008c2021 	addu	a0,a0,t4
    3878:	44880000 	mtc1	t0,$f0
    387c:	00001010 	mfhi	v0
    3880:	000210c3 	sra	v0,v0,0x3
    3884:	00439023 	subu	s2,v0,v1
    3888:	00121900 	sll	v1,s2,0x4
    388c:	00121080 	sll	v0,s2,0x2
    3890:	00431021 	addu	v0,v0,v1
    3894:	00e29023 	subu	s2,a3,v0
    3898:	3c026666 	lui	v0,0x6666
    389c:	26460001 	addiu	a2,s2,1
    38a0:	34426667 	ori	v0,v0,0x6667
    38a4:	00c20018 	mult	a2,v0
    38a8:	c4820014 	lwc1	$f2,20(a0)
    38ac:	46800020 	cvt.s.w	$f0,$f0
    38b0:	46020000 	add.s	$f0,$f0,$f2
    38b4:	8dc800c0 	lw	t0,192(t6)
    38b8:	e4800014 	swc1	$f0,20(a0)
    38bc:	8e0300b8 	lw	v1,184(s0)
    38c0:	8da500c4 	lw	a1,196(t5)
    38c4:	8de200b4 	lw	v0,180(t7)
    38c8:	00063fc3 	sra	a3,a2,0x1f
    38cc:	00431021 	addu	v0,v0,v1
    38d0:	00a82821 	addu	a1,a1,t0
    38d4:	00002010 	mfhi	a0
    38d8:	000420c3 	sra	a0,a0,0x3
    38dc:	0087c823 	subu	t9,a0,a3
    38e0:	00a22821 	addu	a1,a1,v0
    38e4:	00191900 	sll	v1,t9,0x4
    38e8:	00191080 	sll	v0,t9,0x2
    38ec:	00431021 	addu	v0,v0,v1
    38f0:	00c2c823 	subu	t9,a2,v0
    38f4:	3c026666 	lui	v0,0x6666
    38f8:	27240001 	addiu	a0,t9,1
    38fc:	34426667 	ori	v0,v0,0x6667
    3900:	00820018 	mult	a0,v0
    3904:	00045fc3 	sra	t3,a0,0x1f
    3908:	00151140 	sll	v0,s5,0x5
    390c:	00154080 	sll	t0,s5,0x2
    3910:	01024021 	addu	t0,t0,v0
    3914:	012a4821 	addu	t1,t1,t2
    3918:	012c4821 	addu	t1,t1,t4
    391c:	44850000 	mtc1	a1,$f0
    3920:	c5220014 	lwc1	$f2,20(t1)
    3924:	46800020 	cvt.s.w	$f0,$f0
    3928:	46020000 	add.s	$f0,$f0,$f2
    392c:	8e0700dc 	lw	a3,220(s0)
    3930:	00001810 	mfhi	v1
    3934:	000318c3 	sra	v1,v1,0x3
    3938:	006bc023 	subu	t8,v1,t3
    393c:	00181900 	sll	v1,t8,0x4
    3940:	00181080 	sll	v0,t8,0x2
    3944:	00431021 	addu	v0,v0,v1
    3948:	0082c023 	subu	t8,a0,v0
    394c:	3c036666 	lui	v1,0x6666
    3950:	27040001 	addiu	a0,t8,1
    3954:	34636667 	ori	v1,v1,0x6667
    3958:	00830018 	mult	a0,v1
    395c:	00041fc3 	sra	v1,a0,0x1f
    3960:	8de500d8 	lw	a1,216(t7)
    3964:	e5200014 	swc1	$f0,20(t1)
    3968:	8dca00e4 	lw	t2,228(t6)
    396c:	8da600e8 	lw	a2,232(t5)
    3970:	00a72821 	addu	a1,a1,a3
    3974:	00133880 	sll	a3,s3,0x2
    3978:	00ca3021 	addu	a2,a2,t2
    397c:	00c53021 	addu	a2,a2,a1
    3980:	8e0a0100 	lw	t2,256(s0)
    3984:	8de500fc 	lw	a1,252(t7)
    3988:	00001010 	mfhi	v0
    398c:	000210c3 	sra	v0,v0,0x3
    3990:	0043a823 	subu	s5,v0,v1
    3994:	00151900 	sll	v1,s5,0x4
    3998:	00151080 	sll	v0,s5,0x2
    399c:	00431021 	addu	v0,v0,v1
    39a0:	0082a823 	subu	s5,a0,v0
    39a4:	3c026666 	lui	v0,0x6666
    39a8:	26a40001 	addiu	a0,s5,1
    39ac:	34426667 	ori	v0,v0,0x6667
    39b0:	00820018 	mult	a0,v0
    39b4:	00044fc3 	sra	t1,a0,0x1f
    39b8:	00131140 	sll	v0,s3,0x5
    39bc:	00e23821 	addu	a3,a3,v0
    39c0:	00aa2821 	addu	a1,a1,t2
    39c4:	010c4021 	addu	t0,t0,t4
    39c8:	44860000 	mtc1	a2,$f0
    39cc:	c5020014 	lwc1	$f2,20(t0)
    39d0:	8dcb0108 	lw	t3,264(t6)
    39d4:	8da6010c 	lw	a2,268(t5)
    39d8:	46800020 	cvt.s.w	$f0,$f0
    39dc:	46020000 	add.s	$f0,$f0,$f2
    39e0:	00001810 	mfhi	v1
    39e4:	000318c3 	sra	v1,v1,0x3
    39e8:	0069a023 	subu	s4,v1,t1
    39ec:	00141900 	sll	v1,s4,0x4
    39f0:	00141080 	sll	v0,s4,0x2
    39f4:	00431021 	addu	v0,v0,v1
    39f8:	0082a023 	subu	s4,a0,v0
    39fc:	3c026666 	lui	v0,0x6666
    3a00:	268a0001 	addiu	t2,s4,1
    3a04:	34426667 	ori	v0,v0,0x6667
    3a08:	01420018 	mult	t2,v0
    3a0c:	00cb3021 	addu	a2,a2,t3
    3a10:	00c53021 	addu	a2,a2,a1
    3a14:	e5000014 	swc1	$f0,20(t0)
    3a18:	00ec3821 	addu	a3,a3,t4
    3a1c:	44860000 	mtc1	a2,$f0
    3a20:	c4e20014 	lwc1	$f2,20(a3)
    3a24:	8dc9012c 	lw	t1,300(t6)
    3a28:	8e060124 	lw	a2,292(s0)
    3a2c:	8da40130 	lw	a0,304(t5)
    3a30:	8de30120 	lw	v1,288(t7)
    3a34:	46800020 	cvt.s.w	$f0,$f0
    3a38:	46020000 	add.s	$f0,$f0,$f2
    3a3c:	00661821 	addu	v1,v1,a2
    3a40:	001e1140 	sll	v0,s8,0x5
    3a44:	00892021 	addu	a0,a0,t1
    3a48:	001e2880 	sll	a1,s8,0x2
    3a4c:	00004010 	mfhi	t0
    3a50:	00832021 	addu	a0,a0,v1
    3a54:	00a22821 	addu	a1,a1,v0
    3a58:	e4e00014 	swc1	$f0,20(a3)
    3a5c:	00ac2821 	addu	a1,a1,t4
    3a60:	8e090148 	lw	t1,328(s0)
    3a64:	000a17c3 	sra	v0,t2,0x1f
    3a68:	44840000 	mtc1	a0,$f0
    3a6c:	000840c3 	sra	t0,t0,0x3
    3a70:	8de40144 	lw	a0,324(t7)
    3a74:	c4a20014 	lwc1	$f2,20(a1)
    3a78:	01029823 	subu	s3,t0,v0
    3a7c:	8dcb0150 	lw	t3,336(t6)
    3a80:	8da70154 	lw	a3,340(t5)
    3a84:	00171940 	sll	v1,s7,0x5
    3a88:	00173080 	sll	a2,s7,0x2
    3a8c:	00892021 	addu	a0,a0,t1
    3a90:	00c33021 	addu	a2,a2,v1
    3a94:	8fa90018 	lw	t1,24(sp)
    3a98:	00131900 	sll	v1,s3,0x4
    3a9c:	00131080 	sll	v0,s3,0x2
    3aa0:	46800020 	cvt.s.w	$f0,$f0
    3aa4:	46020000 	add.s	$f0,$f0,$f2
    3aa8:	00431021 	addu	v0,v0,v1
    3aac:	00eb3821 	addu	a3,a3,t3
    3ab0:	01429823 	subu	s3,t2,v0
    3ab4:	00e43821 	addu	a3,a3,a0
    3ab8:	00091140 	sll	v0,t1,0x5
    3abc:	00091880 	sll	v1,t1,0x2
    3ac0:	e4a00014 	swc1	$f0,20(a1)
    3ac4:	00cc3021 	addu	a2,a2,t4
    3ac8:	44870000 	mtc1	a3,$f0
    3acc:	00621821 	addu	v1,v1,v0
    3ad0:	3c026666 	lui	v0,0x6666
    3ad4:	c4c20014 	lwc1	$f2,20(a2)
    3ad8:	266a0001 	addiu	t2,s3,1
    3adc:	8dc80174 	lw	t0,372(t6)
    3ae0:	8e07016c 	lw	a3,364(s0)
    3ae4:	8da50178 	lw	a1,376(t5)
    3ae8:	8de40168 	lw	a0,360(t7)
    3aec:	34426667 	ori	v0,v0,0x6667
    3af0:	01420018 	mult	t2,v0
    3af4:	46800020 	cvt.s.w	$f0,$f0
    3af8:	46020000 	add.s	$f0,$f0,$f2
    3afc:	00872021 	addu	a0,a0,a3
    3b00:	00a82821 	addu	a1,a1,t0
    3b04:	00a42821 	addu	a1,a1,a0
    3b08:	e4c00014 	swc1	$f0,20(a2)
    3b0c:	006c1821 	addu	v1,v1,t4
    3b10:	44850000 	mtc1	a1,$f0
    3b14:	c4620014 	lwc1	$f2,20(v1)
    3b18:	46800020 	cvt.s.w	$f0,$f0
    3b1c:	46020000 	add.s	$f0,$f0,$f2
    3b20:	8dc60198 	lw	a2,408(t6)
    3b24:	e4600014 	swc1	$f0,20(v1)
    3b28:	8e040190 	lw	a0,400(s0)
    3b2c:	8da3019c 	lw	v1,412(t5)
    3b30:	8de2018c 	lw	v0,396(t7)
    3b34:	00661821 	addu	v1,v1,a2
    3b38:	00441021 	addu	v0,v0,a0
    3b3c:	00621821 	addu	v1,v1,v0
    3b40:	00163940 	sll	a3,s6,0x5
    3b44:	00162880 	sll	a1,s6,0x2
    3b48:	00004810 	mfhi	t1
    3b4c:	8dc801bc 	lw	t0,444(t6)
    3b50:	8e0601b4 	lw	a2,436(s0)
    3b54:	00121140 	sll	v0,s2,0x5
    3b58:	00a72821 	addu	a1,a1,a3
    3b5c:	44830000 	mtc1	v1,$f0
    3b60:	8da401c0 	lw	a0,448(t5)
    3b64:	8de301b0 	lw	v1,432(t7)
    3b68:	00123880 	sll	a3,s2,0x2
    3b6c:	00ac2821 	addu	a1,a1,t4
    3b70:	00e23821 	addu	a3,a3,v0
    3b74:	000948c3 	sra	t1,t1,0x3
    3b78:	000a17c3 	sra	v0,t2,0x1f
    3b7c:	c4a20014 	lwc1	$f2,20(a1)
    3b80:	01229023 	subu	s2,t1,v0
    3b84:	00661821 	addu	v1,v1,a2
    3b88:	00882021 	addu	a0,a0,t0
    3b8c:	00832021 	addu	a0,a0,v1
    3b90:	00121080 	sll	v0,s2,0x2
    3b94:	00121900 	sll	v1,s2,0x4
    3b98:	46800020 	cvt.s.w	$f0,$f0
    3b9c:	46020000 	add.s	$f0,$f0,$f2
    3ba0:	00431021 	addu	v0,v0,v1
    3ba4:	01429023 	subu	s2,t2,v0
    3ba8:	00193080 	sll	a2,t9,0x2
    3bac:	00191140 	sll	v0,t9,0x5
    3bb0:	e4a00014 	swc1	$f0,20(a1)
    3bb4:	00ec3821 	addu	a3,a3,t4
    3bb8:	44840000 	mtc1	a0,$f0
    3bbc:	00c23021 	addu	a2,a2,v0
    3bc0:	3c026666 	lui	v0,0x6666
    3bc4:	c4e20014 	lwc1	$f2,20(a3)
    3bc8:	264a0001 	addiu	t2,s2,1
    3bcc:	8dc801e0 	lw	t0,480(t6)
    3bd0:	8e0501d8 	lw	a1,472(s0)
    3bd4:	8da401e4 	lw	a0,484(t5)
    3bd8:	8de301d4 	lw	v1,468(t7)
    3bdc:	34426667 	ori	v0,v0,0x6667
    3be0:	01420018 	mult	t2,v0
    3be4:	46800020 	cvt.s.w	$f0,$f0
    3be8:	46020000 	add.s	$f0,$f0,$f2
    3bec:	00651821 	addu	v1,v1,a1
    3bf0:	00882021 	addu	a0,a0,t0
    3bf4:	00832021 	addu	a0,a0,v1
    3bf8:	e4e00014 	swc1	$f0,20(a3)
    3bfc:	00cc3021 	addu	a2,a2,t4
    3c00:	44840000 	mtc1	a0,$f0
    3c04:	c4c20014 	lwc1	$f2,20(a2)
    3c08:	8dc80204 	lw	t0,516(t6)
    3c0c:	8e0701fc 	lw	a3,508(s0)
    3c10:	8da50208 	lw	a1,520(t5)
    3c14:	8de301f8 	lw	v1,504(t7)
    3c18:	46800020 	cvt.s.w	$f0,$f0
    3c1c:	46020000 	add.s	$f0,$f0,$f2
    3c20:	00671821 	addu	v1,v1,a3
    3c24:	00181140 	sll	v0,t8,0x5
    3c28:	00a82821 	addu	a1,a1,t0
    3c2c:	00182080 	sll	a0,t8,0x2
    3c30:	00a32821 	addu	a1,a1,v1
    3c34:	00822021 	addu	a0,a0,v0
    3c38:	e4c00014 	swc1	$f0,20(a2)
    3c3c:	008c2021 	addu	a0,a0,t4
    3c40:	44850000 	mtc1	a1,$f0
    3c44:	c4820014 	lwc1	$f2,20(a0)
    3c48:	8dc80228 	lw	t0,552(t6)
    3c4c:	8e070220 	lw	a3,544(s0)
    3c50:	8da5022c 	lw	a1,556(t5)
    3c54:	8de3021c 	lw	v1,540(t7)
    3c58:	46800020 	cvt.s.w	$f0,$f0
    3c5c:	46020000 	add.s	$f0,$f0,$f2
    3c60:	00671821 	addu	v1,v1,a3
    3c64:	00151140 	sll	v0,s5,0x5
    3c68:	00a82821 	addu	a1,a1,t0
    3c6c:	00153080 	sll	a2,s5,0x2
    3c70:	00a32821 	addu	a1,a1,v1
    3c74:	00004810 	mfhi	t1
    3c78:	00c23021 	addu	a2,a2,v0
    3c7c:	e4800014 	swc1	$f0,20(a0)
    3c80:	00cc3021 	addu	a2,a2,t4
    3c84:	000a17c3 	sra	v0,t2,0x1f
    3c88:	44850000 	mtc1	a1,$f0
    3c8c:	000948c3 	sra	t1,t1,0x3
    3c90:	01225823 	subu	t3,t1,v0
    3c94:	c4c20014 	lwc1	$f2,20(a2)
    3c98:	8dc9024c 	lw	t1,588(t6)
    3c9c:	8e080244 	lw	t0,580(s0)
    3ca0:	8da50250 	lw	a1,592(t5)
    3ca4:	8de40240 	lw	a0,576(t7)
    3ca8:	46800020 	cvt.s.w	$f0,$f0
    3cac:	46020000 	add.s	$f0,$f0,$f2
    3cb0:	00141140 	sll	v0,s4,0x5
    3cb4:	00882021 	addu	a0,a0,t0
    3cb8:	00141880 	sll	v1,s4,0x2
    3cbc:	00a92821 	addu	a1,a1,t1
    3cc0:	00a42821 	addu	a1,a1,a0
    3cc4:	00621821 	addu	v1,v1,v0
    3cc8:	e4c00014 	swc1	$f0,20(a2)
    3ccc:	000b3900 	sll	a3,t3,0x4
    3cd0:	006c1821 	addu	v1,v1,t4
    3cd4:	000b1080 	sll	v0,t3,0x2
    3cd8:	44850000 	mtc1	a1,$f0
    3cdc:	c4620014 	lwc1	$f2,20(v1)
    3ce0:	00471021 	addu	v0,v0,a3
    3ce4:	01425823 	subu	t3,t2,v0
    3ce8:	46800020 	cvt.s.w	$f0,$f0
    3cec:	3c026666 	lui	v0,0x6666
    3cf0:	256a0001 	addiu	t2,t3,1
    3cf4:	46020000 	add.s	$f0,$f0,$f2
    3cf8:	34426667 	ori	v0,v0,0x6667
    3cfc:	01420018 	mult	t2,v0
    3d00:	e4600014 	swc1	$f0,20(v1)
    3d04:	8dc60270 	lw	a2,624(t6)
    3d08:	8e040268 	lw	a0,616(s0)
    3d0c:	8da30274 	lw	v1,628(t5)
    3d10:	8de20264 	lw	v0,612(t7)
    3d14:	00133940 	sll	a3,s3,0x5
    3d18:	00441021 	addu	v0,v0,a0
    3d1c:	00661821 	addu	v1,v1,a2
    3d20:	00132880 	sll	a1,s3,0x2
    3d24:	00621821 	addu	v1,v1,v0
    3d28:	00a72821 	addu	a1,a1,a3
    3d2c:	00ac2821 	addu	a1,a1,t4
    3d30:	44830000 	mtc1	v1,$f0
    3d34:	c4a20014 	lwc1	$f2,20(a1)
    3d38:	8dc80294 	lw	t0,660(t6)
    3d3c:	8e04028c 	lw	a0,652(s0)
    3d40:	8da30298 	lw	v1,664(t5)
    3d44:	8de20288 	lw	v0,648(t7)
    3d48:	46800020 	cvt.s.w	$f0,$f0
    3d4c:	46020000 	add.s	$f0,$f0,$f2
    3d50:	00123940 	sll	a3,s2,0x5
    3d54:	00441021 	addu	v0,v0,a0
    3d58:	00123080 	sll	a2,s2,0x2
    3d5c:	00681821 	addu	v1,v1,t0
    3d60:	00621821 	addu	v1,v1,v0
    3d64:	00c73021 	addu	a2,a2,a3
    3d68:	e4a00014 	swc1	$f0,20(a1)
    3d6c:	00cc3021 	addu	a2,a2,t4
    3d70:	44830000 	mtc1	v1,$f0
    3d74:	c4c20014 	lwc1	$f2,20(a2)
    3d78:	8e0802b0 	lw	t0,688(s0)
    3d7c:	8da702bc 	lw	a3,700(t5)
    3d80:	8dc902b8 	lw	t1,696(t6)
    3d84:	8de502ac 	lw	a1,684(t7)
    3d88:	0000a010 	mfhi	s4
    3d8c:	46800020 	cvt.s.w	$f0,$f0
    3d90:	46020000 	add.s	$f0,$f0,$f2
    3d94:	00a82821 	addu	a1,a1,t0
    3d98:	0014a0c3 	sra	s4,s4,0x3
    3d9c:	000b1940 	sll	v1,t3,0x5
    3da0:	000a17c3 	sra	v0,t2,0x1f
    3da4:	000b2080 	sll	a0,t3,0x2
    3da8:	00e93821 	addu	a3,a3,t1
    3dac:	02829023 	subu	s2,s4,v0
    3db0:	00832021 	addu	a0,a0,v1
    3db4:	00e53821 	addu	a3,a3,a1
    3db8:	e4c00014 	swc1	$f0,20(a2)
    3dbc:	008c2021 	addu	a0,a0,t4
    3dc0:	00121900 	sll	v1,s2,0x4
    3dc4:	00121080 	sll	v0,s2,0x2
    3dc8:	44870000 	mtc1	a3,$f0
    3dcc:	c4820014 	lwc1	$f2,20(a0)
    3dd0:	00431021 	addu	v0,v0,v1
    3dd4:	01429023 	subu	s2,t2,v0
    3dd8:	46800020 	cvt.s.w	$f0,$f0
    3ddc:	46020000 	add.s	$f0,$f0,$f2
    3de0:	00121140 	sll	v0,s2,0x5
    3de4:	00121880 	sll	v1,s2,0x2
    3de8:	00621821 	addu	v1,v1,v0
    3dec:	e4800014 	swc1	$f0,20(a0)
    3df0:	006c1821 	addu	v1,v1,t4
    3df4:	3c040000 	lui	a0,0x0
    3df8:	c4825c28 	lwc1	$f2,23592(a0)
    3dfc:	c4600014 	lwc1	$f0,20(v1)
    3e00:	3c050005 	lui	a1,0x5
    3e04:	46020003 	div.s	$f0,$f0,$f2
    3e08:	24a4bb18 	addiu	a0,a1,-17640
    3e0c:	8fa6002c 	lw	a2,44(sp)
    3e10:	24020006 	li	v0,6
    3e14:	c4820014 	lwc1	$f2,20(a0)
    3e18:	3c080005 	lui	t0,0x5
    3e1c:	00461023 	subu	v0,v0,a2
    3e20:	afb40044 	sw	s4,68(sp)
    3e24:	ad12be0c 	sw	s2,-16884(t0)
    3e28:	080000ba 	j	2e8 <main+0x2e8>
    3e2c:	ac600014 	sw	zero,20(v1)
    3e30:	3c026666 	lui	v0,0x6666
    3e34:	26470001 	addiu	a3,s2,1
    3e38:	34426667 	ori	v0,v0,0x6667
    3e3c:	00e20018 	mult	a3,v0
    3e40:	00021880 	sll	v1,v0,0x2
    3e44:	00021140 	sll	v0,v0,0x5
    3e48:	00621821 	addu	v1,v1,v0
    3e4c:	3c020005 	lui	v0,0x5
    3e50:	000757c3 	sra	t2,a3,0x1f
    3e54:	2442b8fc 	addiu	v0,v0,-18180
    3e58:	00621821 	addu	v1,v1,v0
    3e5c:	8c690028 	lw	t1,40(v1)
    3e60:	8c650018 	lw	a1,24(v1)
    3e64:	8c660014 	lw	a2,20(v1)
    3e68:	8c680024 	lw	t0,36(v1)
    3e6c:	00002010 	mfhi	a0
    3e70:	000420c3 	sra	a0,a0,0x3
    3e74:	008a9823 	subu	s3,a0,t2
    3e78:	00131900 	sll	v1,s3,0x4
    3e7c:	00131080 	sll	v0,s3,0x2
    3e80:	00431021 	addu	v0,v0,v1
    3e84:	00e29823 	subu	s3,a3,v0
    3e88:	3c036666 	lui	v1,0x6666
    3e8c:	26640001 	addiu	a0,s3,1
    3e90:	34636667 	ori	v1,v1,0x6667
    3e94:	00830018 	mult	a0,v1
    3e98:	00041fc3 	sra	v1,a0,0x1f
    3e9c:	00053980 	sll	a3,a1,0x6
    3ea0:	00052900 	sll	a1,a1,0x4
    3ea4:	00e53823 	subu	a3,a3,a1
    3ea8:	00065180 	sll	t2,a2,0x6
    3eac:	00095980 	sll	t3,t1,0x6
    3eb0:	00086180 	sll	t4,t0,0x6
    3eb4:	00063100 	sll	a2,a2,0x4
    3eb8:	00094900 	sll	t1,t1,0x4
    3ebc:	00084100 	sll	t0,t0,0x4
    3ec0:	00076900 	sll	t5,a3,0x4
    3ec4:	00001010 	mfhi	v0
    3ec8:	000210c3 	sra	v0,v0,0x3
    3ecc:	0043c023 	subu	t8,v0,v1
    3ed0:	00181900 	sll	v1,t8,0x4
    3ed4:	00181080 	sll	v0,t8,0x2
    3ed8:	00431021 	addu	v0,v0,v1
    3edc:	0082c023 	subu	t8,a0,v0
    3ee0:	3c036666 	lui	v1,0x6666
    3ee4:	27040001 	addiu	a0,t8,1
    3ee8:	34636667 	ori	v1,v1,0x6667
    3eec:	00830018 	mult	a0,v1
    3ef0:	00041fc3 	sra	v1,a0,0x1f
    3ef4:	01465023 	subu	t2,t2,a2
    3ef8:	01695823 	subu	t3,t3,t1
    3efc:	01886023 	subu	t4,t4,t0
    3f00:	01a76823 	subu	t5,t5,a3
    3f04:	000a7100 	sll	t6,t2,0x4
    3f08:	000b7900 	sll	t7,t3,0x4
    3f0c:	000c8100 	sll	s0,t4,0x4
    3f10:	01ca7023 	subu	t6,t6,t2
    3f14:	01eb7823 	subu	t7,t7,t3
    3f18:	020c8023 	subu	s0,s0,t4
    3f1c:	00001010 	mfhi	v0
    3f20:	000210c3 	sra	v0,v0,0x3
    3f24:	0043c823 	subu	t9,v0,v1
    3f28:	00191900 	sll	v1,t9,0x4
    3f2c:	00191080 	sll	v0,t9,0x2
    3f30:	00431021 	addu	v0,v0,v1
    3f34:	0082c823 	subu	t9,a0,v0
    3f38:	3c026666 	lui	v0,0x6666
    3f3c:	27250001 	addiu	a1,t9,1
    3f40:	34426667 	ori	v0,v0,0x6667
    3f44:	00a20018 	mult	a1,v0
    3f48:	3c020005 	lui	v0,0x5
    3f4c:	24429a0c 	addiu	v0,v0,-26100
    3f50:	01a26821 	addu	t5,t5,v0
    3f54:	000537c3 	sra	a2,a1,0x1f
    3f58:	3c030004 	lui	v1,0x4
    3f5c:	3c020004 	lui	v0,0x4
    3f60:	24637b1c 	addiu	v1,v1,31516
    3f64:	24425c2c 	addiu	v0,v0,23596
    3f68:	01e27821 	addu	t7,t7,v0
    3f6c:	02038021 	addu	s0,s0,v1
    3f70:	01c37021 	addu	t6,t6,v1
    3f74:	00002010 	mfhi	a0
    3f78:	000420c3 	sra	a0,a0,0x3
    3f7c:	0086a023 	subu	s4,a0,a2
    3f80:	00141900 	sll	v1,s4,0x4
    3f84:	00141080 	sll	v0,s4,0x2
    3f88:	00431021 	addu	v0,v0,v1
    3f8c:	00a2a023 	subu	s4,a1,v0
    3f90:	3c026666 	lui	v0,0x6666
    3f94:	26840001 	addiu	a0,s4,1
    3f98:	34426667 	ori	v0,v0,0x6667
    3f9c:	00820018 	mult	a0,v0
    3fa0:	000457c3 	sra	t2,a0,0x1f
    3fa4:	00121140 	sll	v0,s2,0x5
    3fa8:	00123880 	sll	a3,s2,0x2
    3fac:	00e23821 	addu	a3,a3,v0
    3fb0:	26acbb3c 	addiu	t4,s5,-17604
    3fb4:	8dc9000c 	lw	t1,12(t6)
    3fb8:	8da60010 	lw	a2,16(t5)
    3fbc:	8e080004 	lw	t0,4(s0)
    3fc0:	8de50000 	lw	a1,0(t7)
    3fc4:	00c93021 	addu	a2,a2,t1
    3fc8:	00a82821 	addu	a1,a1,t0
    3fcc:	00001810 	mfhi	v1
    3fd0:	000318c3 	sra	v1,v1,0x3
    3fd4:	006a9023 	subu	s2,v1,t2
    3fd8:	00121900 	sll	v1,s2,0x4
    3fdc:	00121080 	sll	v0,s2,0x2
    3fe0:	00431021 	addu	v0,v0,v1
    3fe4:	00829023 	subu	s2,a0,v0
    3fe8:	3c036666 	lui	v1,0x6666
    3fec:	26440001 	addiu	a0,s2,1
    3ff0:	34636667 	ori	v1,v1,0x6667
    3ff4:	00830018 	mult	a0,v1
    3ff8:	00041fc3 	sra	v1,a0,0x1f
    3ffc:	00134080 	sll	t0,s3,0x2
    4000:	00c53021 	addu	a2,a2,a1
    4004:	00ec3821 	addu	a3,a3,t4
    4008:	44860000 	mtc1	a2,$f0
    400c:	c4e20018 	lwc1	$f2,24(a3)
    4010:	8dcb0030 	lw	t3,48(t6)
    4014:	8da60034 	lw	a2,52(t5)
    4018:	46800020 	cvt.s.w	$f0,$f0
    401c:	46020000 	add.s	$f0,$f0,$f2
    4020:	00cb3021 	addu	a2,a2,t3
    4024:	00001010 	mfhi	v0
    4028:	000210c3 	sra	v0,v0,0x3
    402c:	0043a823 	subu	s5,v0,v1
    4030:	00151900 	sll	v1,s5,0x4
    4034:	00151080 	sll	v0,s5,0x2
    4038:	00431021 	addu	v0,v0,v1
    403c:	0082a823 	subu	s5,a0,v0
    4040:	3c026666 	lui	v0,0x6666
    4044:	26a40001 	addiu	a0,s5,1
    4048:	34426667 	ori	v0,v0,0x6667
    404c:	00820018 	mult	a0,v0
    4050:	00044fc3 	sra	t1,a0,0x1f
    4054:	00131140 	sll	v0,s3,0x5
    4058:	01024021 	addu	t0,t0,v0
    405c:	e4e00018 	swc1	$f0,24(a3)
    4060:	00183880 	sll	a3,t8,0x2
    4064:	8e0a0028 	lw	t2,40(s0)
    4068:	8de50024 	lw	a1,36(t7)
    406c:	010c4021 	addu	t0,t0,t4
    4070:	00aa2821 	addu	a1,a1,t2
    4074:	00c53021 	addu	a2,a2,a1
    4078:	44860000 	mtc1	a2,$f0
    407c:	00001810 	mfhi	v1
    4080:	000318c3 	sra	v1,v1,0x3
    4084:	00699823 	subu	s3,v1,t1
    4088:	00131900 	sll	v1,s3,0x4
    408c:	00131080 	sll	v0,s3,0x2
    4090:	00431021 	addu	v0,v0,v1
    4094:	00829823 	subu	s3,a0,v0
    4098:	3c026666 	lui	v0,0x6666
    409c:	26640001 	addiu	a0,s3,1
    40a0:	34426667 	ori	v0,v0,0x6667
    40a4:	00820018 	mult	a0,v0
    40a8:	00045fc3 	sra	t3,a0,0x1f
    40ac:	00181140 	sll	v0,t8,0x5
    40b0:	00e23821 	addu	a3,a3,v0
    40b4:	c5020018 	lwc1	$f2,24(t0)
    40b8:	8dca0054 	lw	t2,84(t6)
    40bc:	8e09004c 	lw	t1,76(s0)
    40c0:	8da60058 	lw	a2,88(t5)
    40c4:	8de50048 	lw	a1,72(t7)
    40c8:	46800020 	cvt.s.w	$f0,$f0
    40cc:	46020000 	add.s	$f0,$f0,$f2
    40d0:	00a92821 	addu	a1,a1,t1
    40d4:	00001810 	mfhi	v1
    40d8:	000318c3 	sra	v1,v1,0x3
    40dc:	006bf023 	subu	s8,v1,t3
    40e0:	001e1900 	sll	v1,s8,0x4
    40e4:	001e1080 	sll	v0,s8,0x2
    40e8:	00431021 	addu	v0,v0,v1
    40ec:	0082f023 	subu	s8,a0,v0
    40f0:	3c036666 	lui	v1,0x6666
    40f4:	27c40001 	addiu	a0,s8,1
    40f8:	34636667 	ori	v1,v1,0x6667
    40fc:	00830018 	mult	a0,v1
    4100:	00041fc3 	sra	v1,a0,0x1f
    4104:	00ca3021 	addu	a2,a2,t2
    4108:	00c53021 	addu	a2,a2,a1
    410c:	e5000018 	swc1	$f0,24(t0)
    4110:	8dcb0078 	lw	t3,120(t6)
    4114:	8e0a0070 	lw	t2,112(s0)
    4118:	44860000 	mtc1	a2,$f0
    411c:	8de5006c 	lw	a1,108(t7)
    4120:	8da6007c 	lw	a2,124(t5)
    4124:	00aa2821 	addu	a1,a1,t2
    4128:	00cb3021 	addu	a2,a2,t3
    412c:	00001010 	mfhi	v0
    4130:	000210c3 	sra	v0,v0,0x3
    4134:	0043b823 	subu	s7,v0,v1
    4138:	00171900 	sll	v1,s7,0x4
    413c:	00171080 	sll	v0,s7,0x2
    4140:	00431021 	addu	v0,v0,v1
    4144:	0082b823 	subu	s7,a0,v0
    4148:	3c026666 	lui	v0,0x6666
    414c:	26e40001 	addiu	a0,s7,1
    4150:	34426667 	ori	v0,v0,0x6667
    4154:	00820018 	mult	a0,v0
    4158:	000447c3 	sra	t0,a0,0x1f
    415c:	00c53021 	addu	a2,a2,a1
    4160:	00191140 	sll	v0,t9,0x5
    4164:	00194880 	sll	t1,t9,0x2
    4168:	01224821 	addu	t1,t1,v0
    416c:	00ec3821 	addu	a3,a3,t4
    4170:	c4e20018 	lwc1	$f2,24(a3)
    4174:	46800020 	cvt.s.w	$f0,$f0
    4178:	46020000 	add.s	$f0,$f0,$f2
    417c:	012c4821 	addu	t1,t1,t4
    4180:	e4e00018 	swc1	$f0,24(a3)
    4184:	00001810 	mfhi	v1
    4188:	000318c3 	sra	v1,v1,0x3
    418c:	00681823 	subu	v1,v1,t0
    4190:	afa3001c 	sw	v1,28(sp)
    4194:	8fa5001c 	lw	a1,28(sp)
    4198:	00031900 	sll	v1,v1,0x4
    419c:	00051080 	sll	v0,a1,0x2
    41a0:	00431021 	addu	v0,v0,v1
    41a4:	00822023 	subu	a0,a0,v0
    41a8:	3c026666 	lui	v0,0x6666
    41ac:	24850001 	addiu	a1,a0,1
    41b0:	34426667 	ori	v0,v0,0x6667
    41b4:	00a20018 	mult	a1,v0
    41b8:	00055fc3 	sra	t3,a1,0x1f
    41bc:	00141140 	sll	v0,s4,0x5
    41c0:	afa4001c 	sw	a0,28(sp)
    41c4:	00142080 	sll	a0,s4,0x2
    41c8:	00822021 	addu	a0,a0,v0
    41cc:	8e070094 	lw	a3,148(s0)
    41d0:	44860000 	mtc1	a2,$f0
    41d4:	8de60090 	lw	a2,144(t7)
    41d8:	c5220018 	lwc1	$f2,24(t1)
    41dc:	00c73021 	addu	a2,a2,a3
    41e0:	46800020 	cvt.s.w	$f0,$f0
    41e4:	00001810 	mfhi	v1
    41e8:	000318c3 	sra	v1,v1,0x3
    41ec:	006bb023 	subu	s6,v1,t3
    41f0:	00161900 	sll	v1,s6,0x4
    41f4:	00161080 	sll	v0,s6,0x2
    41f8:	00431021 	addu	v0,v0,v1
    41fc:	00a2b023 	subu	s6,a1,v0
    4200:	3c036666 	lui	v1,0x6666
    4204:	26c70001 	addiu	a3,s6,1
    4208:	34636667 	ori	v1,v1,0x6667
    420c:	00e30018 	mult	a3,v1
    4210:	46020000 	add.s	$f0,$f0,$f2
    4214:	8dca009c 	lw	t2,156(t6)
    4218:	8da800a0 	lw	t0,160(t5)
    421c:	00071fc3 	sra	v1,a3,0x1f
    4220:	e5200018 	swc1	$f0,24(t1)
    4224:	010a4021 	addu	t0,t0,t2
    4228:	00124880 	sll	t1,s2,0x2
    422c:	00125140 	sll	t2,s2,0x5
    4230:	01064021 	addu	t0,t0,a2
    4234:	008c2021 	addu	a0,a0,t4
    4238:	44880000 	mtc1	t0,$f0
    423c:	00001010 	mfhi	v0
    4240:	000210c3 	sra	v0,v0,0x3
    4244:	00439023 	subu	s2,v0,v1
    4248:	00121900 	sll	v1,s2,0x4
    424c:	00121080 	sll	v0,s2,0x2
    4250:	00431021 	addu	v0,v0,v1
    4254:	00e29023 	subu	s2,a3,v0
    4258:	3c026666 	lui	v0,0x6666
    425c:	26460001 	addiu	a2,s2,1
    4260:	34426667 	ori	v0,v0,0x6667
    4264:	00c20018 	mult	a2,v0
    4268:	c4820018 	lwc1	$f2,24(a0)
    426c:	46800020 	cvt.s.w	$f0,$f0
    4270:	46020000 	add.s	$f0,$f0,$f2
    4274:	8dc800c0 	lw	t0,192(t6)
    4278:	e4800018 	swc1	$f0,24(a0)
    427c:	8e0300b8 	lw	v1,184(s0)
    4280:	8da500c4 	lw	a1,196(t5)
    4284:	8de200b4 	lw	v0,180(t7)
    4288:	00063fc3 	sra	a3,a2,0x1f
    428c:	00431021 	addu	v0,v0,v1
    4290:	00a82821 	addu	a1,a1,t0
    4294:	00002010 	mfhi	a0
    4298:	000420c3 	sra	a0,a0,0x3
    429c:	0087c823 	subu	t9,a0,a3
    42a0:	00a22821 	addu	a1,a1,v0
    42a4:	00191900 	sll	v1,t9,0x4
    42a8:	00191080 	sll	v0,t9,0x2
    42ac:	00431021 	addu	v0,v0,v1
    42b0:	00c2c823 	subu	t9,a2,v0
    42b4:	3c026666 	lui	v0,0x6666
    42b8:	27240001 	addiu	a0,t9,1
    42bc:	34426667 	ori	v0,v0,0x6667
    42c0:	00820018 	mult	a0,v0
    42c4:	00045fc3 	sra	t3,a0,0x1f
    42c8:	00151140 	sll	v0,s5,0x5
    42cc:	00154080 	sll	t0,s5,0x2
    42d0:	01024021 	addu	t0,t0,v0
    42d4:	012a4821 	addu	t1,t1,t2
    42d8:	012c4821 	addu	t1,t1,t4
    42dc:	44850000 	mtc1	a1,$f0
    42e0:	c5220018 	lwc1	$f2,24(t1)
    42e4:	46800020 	cvt.s.w	$f0,$f0
    42e8:	46020000 	add.s	$f0,$f0,$f2
    42ec:	8e0700dc 	lw	a3,220(s0)
    42f0:	00001810 	mfhi	v1
    42f4:	000318c3 	sra	v1,v1,0x3
    42f8:	006bc023 	subu	t8,v1,t3
    42fc:	00181900 	sll	v1,t8,0x4
    4300:	00181080 	sll	v0,t8,0x2
    4304:	00431021 	addu	v0,v0,v1
    4308:	0082c023 	subu	t8,a0,v0
    430c:	3c036666 	lui	v1,0x6666
    4310:	27040001 	addiu	a0,t8,1
    4314:	34636667 	ori	v1,v1,0x6667
    4318:	00830018 	mult	a0,v1
    431c:	00041fc3 	sra	v1,a0,0x1f
    4320:	8de500d8 	lw	a1,216(t7)
    4324:	e5200018 	swc1	$f0,24(t1)
    4328:	8dca00e4 	lw	t2,228(t6)
    432c:	8da600e8 	lw	a2,232(t5)
    4330:	00a72821 	addu	a1,a1,a3
    4334:	00133880 	sll	a3,s3,0x2
    4338:	00ca3021 	addu	a2,a2,t2
    433c:	00c53021 	addu	a2,a2,a1
    4340:	8e0a0100 	lw	t2,256(s0)
    4344:	8de500fc 	lw	a1,252(t7)
    4348:	00001010 	mfhi	v0
    434c:	000210c3 	sra	v0,v0,0x3
    4350:	0043a823 	subu	s5,v0,v1
    4354:	00151900 	sll	v1,s5,0x4
    4358:	00151080 	sll	v0,s5,0x2
    435c:	00431021 	addu	v0,v0,v1
    4360:	0082a823 	subu	s5,a0,v0
    4364:	3c026666 	lui	v0,0x6666
    4368:	26a40001 	addiu	a0,s5,1
    436c:	34426667 	ori	v0,v0,0x6667
    4370:	00820018 	mult	a0,v0
    4374:	00044fc3 	sra	t1,a0,0x1f
    4378:	00131140 	sll	v0,s3,0x5
    437c:	00e23821 	addu	a3,a3,v0
    4380:	00aa2821 	addu	a1,a1,t2
    4384:	010c4021 	addu	t0,t0,t4
    4388:	44860000 	mtc1	a2,$f0
    438c:	c5020018 	lwc1	$f2,24(t0)
    4390:	8dcb0108 	lw	t3,264(t6)
    4394:	8da6010c 	lw	a2,268(t5)
    4398:	46800020 	cvt.s.w	$f0,$f0
    439c:	46020000 	add.s	$f0,$f0,$f2
    43a0:	00001810 	mfhi	v1
    43a4:	000318c3 	sra	v1,v1,0x3
    43a8:	0069a023 	subu	s4,v1,t1
    43ac:	00141900 	sll	v1,s4,0x4
    43b0:	00141080 	sll	v0,s4,0x2
    43b4:	00431021 	addu	v0,v0,v1
    43b8:	0082a023 	subu	s4,a0,v0
    43bc:	3c026666 	lui	v0,0x6666
    43c0:	268a0001 	addiu	t2,s4,1
    43c4:	34426667 	ori	v0,v0,0x6667
    43c8:	01420018 	mult	t2,v0
    43cc:	00cb3021 	addu	a2,a2,t3
    43d0:	00c53021 	addu	a2,a2,a1
    43d4:	e5000018 	swc1	$f0,24(t0)
    43d8:	00ec3821 	addu	a3,a3,t4
    43dc:	44860000 	mtc1	a2,$f0
    43e0:	c4e20018 	lwc1	$f2,24(a3)
    43e4:	8dc9012c 	lw	t1,300(t6)
    43e8:	8e060124 	lw	a2,292(s0)
    43ec:	8da40130 	lw	a0,304(t5)
    43f0:	8de30120 	lw	v1,288(t7)
    43f4:	46800020 	cvt.s.w	$f0,$f0
    43f8:	46020000 	add.s	$f0,$f0,$f2
    43fc:	00661821 	addu	v1,v1,a2
    4400:	001e1140 	sll	v0,s8,0x5
    4404:	00892021 	addu	a0,a0,t1
    4408:	001e2880 	sll	a1,s8,0x2
    440c:	00004010 	mfhi	t0
    4410:	00832021 	addu	a0,a0,v1
    4414:	00a22821 	addu	a1,a1,v0
    4418:	e4e00018 	swc1	$f0,24(a3)
    441c:	00ac2821 	addu	a1,a1,t4
    4420:	8e090148 	lw	t1,328(s0)
    4424:	000a17c3 	sra	v0,t2,0x1f
    4428:	44840000 	mtc1	a0,$f0
    442c:	000840c3 	sra	t0,t0,0x3
    4430:	8de40144 	lw	a0,324(t7)
    4434:	c4a20018 	lwc1	$f2,24(a1)
    4438:	01029823 	subu	s3,t0,v0
    443c:	8dcb0150 	lw	t3,336(t6)
    4440:	8da70154 	lw	a3,340(t5)
    4444:	00171940 	sll	v1,s7,0x5
    4448:	00173080 	sll	a2,s7,0x2
    444c:	00892021 	addu	a0,a0,t1
    4450:	00c33021 	addu	a2,a2,v1
    4454:	8fa9001c 	lw	t1,28(sp)
    4458:	00131900 	sll	v1,s3,0x4
    445c:	00131080 	sll	v0,s3,0x2
    4460:	46800020 	cvt.s.w	$f0,$f0
    4464:	46020000 	add.s	$f0,$f0,$f2
    4468:	00431021 	addu	v0,v0,v1
    446c:	00eb3821 	addu	a3,a3,t3
    4470:	01429823 	subu	s3,t2,v0
    4474:	00e43821 	addu	a3,a3,a0
    4478:	00091140 	sll	v0,t1,0x5
    447c:	00091880 	sll	v1,t1,0x2
    4480:	e4a00018 	swc1	$f0,24(a1)
    4484:	00cc3021 	addu	a2,a2,t4
    4488:	44870000 	mtc1	a3,$f0
    448c:	00621821 	addu	v1,v1,v0
    4490:	3c026666 	lui	v0,0x6666
    4494:	c4c20018 	lwc1	$f2,24(a2)
    4498:	266a0001 	addiu	t2,s3,1
    449c:	8dc80174 	lw	t0,372(t6)
    44a0:	8e07016c 	lw	a3,364(s0)
    44a4:	8da50178 	lw	a1,376(t5)
    44a8:	8de40168 	lw	a0,360(t7)
    44ac:	34426667 	ori	v0,v0,0x6667
    44b0:	01420018 	mult	t2,v0
    44b4:	46800020 	cvt.s.w	$f0,$f0
    44b8:	46020000 	add.s	$f0,$f0,$f2
    44bc:	00872021 	addu	a0,a0,a3
    44c0:	00a82821 	addu	a1,a1,t0
    44c4:	00a42821 	addu	a1,a1,a0
    44c8:	e4c00018 	swc1	$f0,24(a2)
    44cc:	006c1821 	addu	v1,v1,t4
    44d0:	44850000 	mtc1	a1,$f0
    44d4:	c4620018 	lwc1	$f2,24(v1)
    44d8:	46800020 	cvt.s.w	$f0,$f0
    44dc:	46020000 	add.s	$f0,$f0,$f2
    44e0:	8dc60198 	lw	a2,408(t6)
    44e4:	e4600018 	swc1	$f0,24(v1)
    44e8:	8e040190 	lw	a0,400(s0)
    44ec:	8da3019c 	lw	v1,412(t5)
    44f0:	8de2018c 	lw	v0,396(t7)
    44f4:	00661821 	addu	v1,v1,a2
    44f8:	00441021 	addu	v0,v0,a0
    44fc:	00621821 	addu	v1,v1,v0
    4500:	00163940 	sll	a3,s6,0x5
    4504:	00162880 	sll	a1,s6,0x2
    4508:	00004810 	mfhi	t1
    450c:	8dc801bc 	lw	t0,444(t6)
    4510:	8e0601b4 	lw	a2,436(s0)
    4514:	00121140 	sll	v0,s2,0x5
    4518:	00a72821 	addu	a1,a1,a3
    451c:	44830000 	mtc1	v1,$f0
    4520:	8da401c0 	lw	a0,448(t5)
    4524:	8de301b0 	lw	v1,432(t7)
    4528:	00123880 	sll	a3,s2,0x2
    452c:	00ac2821 	addu	a1,a1,t4
    4530:	00e23821 	addu	a3,a3,v0
    4534:	000948c3 	sra	t1,t1,0x3
    4538:	000a17c3 	sra	v0,t2,0x1f
    453c:	c4a20018 	lwc1	$f2,24(a1)
    4540:	01229023 	subu	s2,t1,v0
    4544:	00661821 	addu	v1,v1,a2
    4548:	00882021 	addu	a0,a0,t0
    454c:	00832021 	addu	a0,a0,v1
    4550:	00121080 	sll	v0,s2,0x2
    4554:	00121900 	sll	v1,s2,0x4
    4558:	46800020 	cvt.s.w	$f0,$f0
    455c:	46020000 	add.s	$f0,$f0,$f2
    4560:	00431021 	addu	v0,v0,v1
    4564:	01429023 	subu	s2,t2,v0
    4568:	00193080 	sll	a2,t9,0x2
    456c:	00191140 	sll	v0,t9,0x5
    4570:	e4a00018 	swc1	$f0,24(a1)
    4574:	00ec3821 	addu	a3,a3,t4
    4578:	44840000 	mtc1	a0,$f0
    457c:	00c23021 	addu	a2,a2,v0
    4580:	3c026666 	lui	v0,0x6666
    4584:	c4e20018 	lwc1	$f2,24(a3)
    4588:	264a0001 	addiu	t2,s2,1
    458c:	8dc801e0 	lw	t0,480(t6)
    4590:	8e0501d8 	lw	a1,472(s0)
    4594:	8da401e4 	lw	a0,484(t5)
    4598:	8de301d4 	lw	v1,468(t7)
    459c:	34426667 	ori	v0,v0,0x6667
    45a0:	01420018 	mult	t2,v0
    45a4:	46800020 	cvt.s.w	$f0,$f0
    45a8:	46020000 	add.s	$f0,$f0,$f2
    45ac:	00651821 	addu	v1,v1,a1
    45b0:	00882021 	addu	a0,a0,t0
    45b4:	00832021 	addu	a0,a0,v1
    45b8:	e4e00018 	swc1	$f0,24(a3)
    45bc:	00cc3021 	addu	a2,a2,t4
    45c0:	44840000 	mtc1	a0,$f0
    45c4:	c4c20018 	lwc1	$f2,24(a2)
    45c8:	8dc80204 	lw	t0,516(t6)
    45cc:	8e0701fc 	lw	a3,508(s0)
    45d0:	8da50208 	lw	a1,520(t5)
    45d4:	8de301f8 	lw	v1,504(t7)
    45d8:	46800020 	cvt.s.w	$f0,$f0
    45dc:	46020000 	add.s	$f0,$f0,$f2
    45e0:	00671821 	addu	v1,v1,a3
    45e4:	00181140 	sll	v0,t8,0x5
    45e8:	00a82821 	addu	a1,a1,t0
    45ec:	00182080 	sll	a0,t8,0x2
    45f0:	00a32821 	addu	a1,a1,v1
    45f4:	00822021 	addu	a0,a0,v0
    45f8:	e4c00018 	swc1	$f0,24(a2)
    45fc:	008c2021 	addu	a0,a0,t4
    4600:	44850000 	mtc1	a1,$f0
    4604:	c4820018 	lwc1	$f2,24(a0)
    4608:	8dc80228 	lw	t0,552(t6)
    460c:	8e070220 	lw	a3,544(s0)
    4610:	8da5022c 	lw	a1,556(t5)
    4614:	8de3021c 	lw	v1,540(t7)
    4618:	46800020 	cvt.s.w	$f0,$f0
    461c:	46020000 	add.s	$f0,$f0,$f2
    4620:	00671821 	addu	v1,v1,a3
    4624:	00151140 	sll	v0,s5,0x5
    4628:	00a82821 	addu	a1,a1,t0
    462c:	00153080 	sll	a2,s5,0x2
    4630:	00a32821 	addu	a1,a1,v1
    4634:	00004810 	mfhi	t1
    4638:	00c23021 	addu	a2,a2,v0
    463c:	e4800018 	swc1	$f0,24(a0)
    4640:	00cc3021 	addu	a2,a2,t4
    4644:	000a17c3 	sra	v0,t2,0x1f
    4648:	44850000 	mtc1	a1,$f0
    464c:	000948c3 	sra	t1,t1,0x3
    4650:	01225823 	subu	t3,t1,v0
    4654:	c4c20018 	lwc1	$f2,24(a2)
    4658:	8dc9024c 	lw	t1,588(t6)
    465c:	8e080244 	lw	t0,580(s0)
    4660:	8da50250 	lw	a1,592(t5)
    4664:	8de40240 	lw	a0,576(t7)
    4668:	46800020 	cvt.s.w	$f0,$f0
    466c:	46020000 	add.s	$f0,$f0,$f2
    4670:	00141140 	sll	v0,s4,0x5
    4674:	00882021 	addu	a0,a0,t0
    4678:	00141880 	sll	v1,s4,0x2
    467c:	00a92821 	addu	a1,a1,t1
    4680:	00a42821 	addu	a1,a1,a0
    4684:	00621821 	addu	v1,v1,v0
    4688:	e4c00018 	swc1	$f0,24(a2)
    468c:	000b3900 	sll	a3,t3,0x4
    4690:	006c1821 	addu	v1,v1,t4
    4694:	000b1080 	sll	v0,t3,0x2
    4698:	44850000 	mtc1	a1,$f0
    469c:	c4620018 	lwc1	$f2,24(v1)
    46a0:	00471021 	addu	v0,v0,a3
    46a4:	01425823 	subu	t3,t2,v0
    46a8:	46800020 	cvt.s.w	$f0,$f0
    46ac:	3c026666 	lui	v0,0x6666
    46b0:	256a0001 	addiu	t2,t3,1
    46b4:	46020000 	add.s	$f0,$f0,$f2
    46b8:	34426667 	ori	v0,v0,0x6667
    46bc:	01420018 	mult	t2,v0
    46c0:	e4600018 	swc1	$f0,24(v1)
    46c4:	8dc60270 	lw	a2,624(t6)
    46c8:	8e040268 	lw	a0,616(s0)
    46cc:	8da30274 	lw	v1,628(t5)
    46d0:	8de20264 	lw	v0,612(t7)
    46d4:	00133940 	sll	a3,s3,0x5
    46d8:	00441021 	addu	v0,v0,a0
    46dc:	00661821 	addu	v1,v1,a2
    46e0:	00132880 	sll	a1,s3,0x2
    46e4:	00621821 	addu	v1,v1,v0
    46e8:	00a72821 	addu	a1,a1,a3
    46ec:	00ac2821 	addu	a1,a1,t4
    46f0:	44830000 	mtc1	v1,$f0
    46f4:	c4a20018 	lwc1	$f2,24(a1)
    46f8:	8dc80294 	lw	t0,660(t6)
    46fc:	8e04028c 	lw	a0,652(s0)
    4700:	8da30298 	lw	v1,664(t5)
    4704:	8de20288 	lw	v0,648(t7)
    4708:	46800020 	cvt.s.w	$f0,$f0
    470c:	46020000 	add.s	$f0,$f0,$f2
    4710:	00123940 	sll	a3,s2,0x5
    4714:	00441021 	addu	v0,v0,a0
    4718:	00123080 	sll	a2,s2,0x2
    471c:	00681821 	addu	v1,v1,t0
    4720:	00621821 	addu	v1,v1,v0
    4724:	00c73021 	addu	a2,a2,a3
    4728:	e4a00018 	swc1	$f0,24(a1)
    472c:	00cc3021 	addu	a2,a2,t4
    4730:	44830000 	mtc1	v1,$f0
    4734:	c4c20018 	lwc1	$f2,24(a2)
    4738:	8e0802b0 	lw	t0,688(s0)
    473c:	8da702bc 	lw	a3,700(t5)
    4740:	8dc902b8 	lw	t1,696(t6)
    4744:	8de502ac 	lw	a1,684(t7)
    4748:	0000a010 	mfhi	s4
    474c:	46800020 	cvt.s.w	$f0,$f0
    4750:	46020000 	add.s	$f0,$f0,$f2
    4754:	00a82821 	addu	a1,a1,t0
    4758:	0014a0c3 	sra	s4,s4,0x3
    475c:	000b1940 	sll	v1,t3,0x5
    4760:	000a17c3 	sra	v0,t2,0x1f
    4764:	000b2080 	sll	a0,t3,0x2
    4768:	00e93821 	addu	a3,a3,t1
    476c:	02829023 	subu	s2,s4,v0
    4770:	00832021 	addu	a0,a0,v1
    4774:	00e53821 	addu	a3,a3,a1
    4778:	e4c00018 	swc1	$f0,24(a2)
    477c:	008c2021 	addu	a0,a0,t4
    4780:	00121900 	sll	v1,s2,0x4
    4784:	00121080 	sll	v0,s2,0x2
    4788:	44870000 	mtc1	a3,$f0
    478c:	c4820018 	lwc1	$f2,24(a0)
    4790:	00431021 	addu	v0,v0,v1
    4794:	01429023 	subu	s2,t2,v0
    4798:	46800020 	cvt.s.w	$f0,$f0
    479c:	46020000 	add.s	$f0,$f0,$f2
    47a0:	00121140 	sll	v0,s2,0x5
    47a4:	00121880 	sll	v1,s2,0x2
    47a8:	00621821 	addu	v1,v1,v0
    47ac:	e4800018 	swc1	$f0,24(a0)
    47b0:	006c1821 	addu	v1,v1,t4
    47b4:	3c040000 	lui	a0,0x0
    47b8:	c4825c28 	lwc1	$f2,23592(a0)
    47bc:	c4600018 	lwc1	$f0,24(v1)
    47c0:	3c050005 	lui	a1,0x5
    47c4:	46020003 	div.s	$f0,$f0,$f2
    47c8:	24a4bb18 	addiu	a0,a1,-17640
    47cc:	8fa6002c 	lw	a2,44(sp)
    47d0:	24020007 	li	v0,7
    47d4:	c4820018 	lwc1	$f2,24(a0)
    47d8:	3c080005 	lui	t0,0x5
    47dc:	00461023 	subu	v0,v0,a2
    47e0:	afb40048 	sw	s4,72(sp)
    47e4:	ad12be0c 	sw	s2,-16884(t0)
    47e8:	080000d0 	j	340 <main+0x340>
    47ec:	ac600018 	sw	zero,24(v1)
    47f0:	3c026666 	lui	v0,0x6666
    47f4:	26470001 	addiu	a3,s2,1
    47f8:	34426667 	ori	v0,v0,0x6667
    47fc:	00e20018 	mult	a3,v0
    4800:	00021880 	sll	v1,v0,0x2
    4804:	00021140 	sll	v0,v0,0x5
    4808:	00621821 	addu	v1,v1,v0
    480c:	3c020005 	lui	v0,0x5
    4810:	000757c3 	sra	t2,a3,0x1f
    4814:	2442b8fc 	addiu	v0,v0,-18180
    4818:	00621821 	addu	v1,v1,v0
    481c:	8c69002c 	lw	t1,44(v1)
    4820:	8c65001c 	lw	a1,28(v1)
    4824:	8c660018 	lw	a2,24(v1)
    4828:	8c680028 	lw	t0,40(v1)
    482c:	00002010 	mfhi	a0
    4830:	000420c3 	sra	a0,a0,0x3
    4834:	008a9823 	subu	s3,a0,t2
    4838:	00131900 	sll	v1,s3,0x4
    483c:	00131080 	sll	v0,s3,0x2
    4840:	00431021 	addu	v0,v0,v1
    4844:	00e29823 	subu	s3,a3,v0
    4848:	3c036666 	lui	v1,0x6666
    484c:	26640001 	addiu	a0,s3,1
    4850:	34636667 	ori	v1,v1,0x6667
    4854:	00830018 	mult	a0,v1
    4858:	00041fc3 	sra	v1,a0,0x1f
    485c:	00053980 	sll	a3,a1,0x6
    4860:	00052900 	sll	a1,a1,0x4
    4864:	00e53823 	subu	a3,a3,a1
    4868:	00065180 	sll	t2,a2,0x6
    486c:	00095980 	sll	t3,t1,0x6
    4870:	00086180 	sll	t4,t0,0x6
    4874:	00063100 	sll	a2,a2,0x4
    4878:	00094900 	sll	t1,t1,0x4
    487c:	00084100 	sll	t0,t0,0x4
    4880:	00076900 	sll	t5,a3,0x4
    4884:	00001010 	mfhi	v0
    4888:	000210c3 	sra	v0,v0,0x3
    488c:	0043c023 	subu	t8,v0,v1
    4890:	00181900 	sll	v1,t8,0x4
    4894:	00181080 	sll	v0,t8,0x2
    4898:	00431021 	addu	v0,v0,v1
    489c:	0082c023 	subu	t8,a0,v0
    48a0:	3c036666 	lui	v1,0x6666
    48a4:	27040001 	addiu	a0,t8,1
    48a8:	34636667 	ori	v1,v1,0x6667
    48ac:	00830018 	mult	a0,v1
    48b0:	00041fc3 	sra	v1,a0,0x1f
    48b4:	01465023 	subu	t2,t2,a2
    48b8:	01695823 	subu	t3,t3,t1
    48bc:	01886023 	subu	t4,t4,t0
    48c0:	01a76823 	subu	t5,t5,a3
    48c4:	000a7100 	sll	t6,t2,0x4
    48c8:	000b7900 	sll	t7,t3,0x4
    48cc:	000c8100 	sll	s0,t4,0x4
    48d0:	01ca7023 	subu	t6,t6,t2
    48d4:	01eb7823 	subu	t7,t7,t3
    48d8:	020c8023 	subu	s0,s0,t4
    48dc:	00001010 	mfhi	v0
    48e0:	000210c3 	sra	v0,v0,0x3
    48e4:	0043c823 	subu	t9,v0,v1
    48e8:	00191900 	sll	v1,t9,0x4
    48ec:	00191080 	sll	v0,t9,0x2
    48f0:	00431021 	addu	v0,v0,v1
    48f4:	0082c823 	subu	t9,a0,v0
    48f8:	3c026666 	lui	v0,0x6666
    48fc:	27250001 	addiu	a1,t9,1
    4900:	34426667 	ori	v0,v0,0x6667
    4904:	00a20018 	mult	a1,v0
    4908:	3c020005 	lui	v0,0x5
    490c:	24429a0c 	addiu	v0,v0,-26100
    4910:	01a26821 	addu	t5,t5,v0
    4914:	000537c3 	sra	a2,a1,0x1f
    4918:	3c030004 	lui	v1,0x4
    491c:	3c020004 	lui	v0,0x4
    4920:	24637b1c 	addiu	v1,v1,31516
    4924:	24425c2c 	addiu	v0,v0,23596
    4928:	01e27821 	addu	t7,t7,v0
    492c:	02038021 	addu	s0,s0,v1
    4930:	01c37021 	addu	t6,t6,v1
    4934:	00002010 	mfhi	a0
    4938:	000420c3 	sra	a0,a0,0x3
    493c:	0086a023 	subu	s4,a0,a2
    4940:	00141900 	sll	v1,s4,0x4
    4944:	00141080 	sll	v0,s4,0x2
    4948:	00431021 	addu	v0,v0,v1
    494c:	00a2a023 	subu	s4,a1,v0
    4950:	3c026666 	lui	v0,0x6666
    4954:	26840001 	addiu	a0,s4,1
    4958:	34426667 	ori	v0,v0,0x6667
    495c:	00820018 	mult	a0,v0
    4960:	000457c3 	sra	t2,a0,0x1f
    4964:	00121140 	sll	v0,s2,0x5
    4968:	00123880 	sll	a3,s2,0x2
    496c:	00e23821 	addu	a3,a3,v0
    4970:	26acbb3c 	addiu	t4,s5,-17604
    4974:	8dc9000c 	lw	t1,12(t6)
    4978:	8da60010 	lw	a2,16(t5)
    497c:	8e080004 	lw	t0,4(s0)
    4980:	8de50000 	lw	a1,0(t7)
    4984:	00c93021 	addu	a2,a2,t1
    4988:	00a82821 	addu	a1,a1,t0
    498c:	00001810 	mfhi	v1
    4990:	000318c3 	sra	v1,v1,0x3
    4994:	006a9023 	subu	s2,v1,t2
    4998:	00121900 	sll	v1,s2,0x4
    499c:	00121080 	sll	v0,s2,0x2
    49a0:	00431021 	addu	v0,v0,v1
    49a4:	00829023 	subu	s2,a0,v0
    49a8:	3c036666 	lui	v1,0x6666
    49ac:	26440001 	addiu	a0,s2,1
    49b0:	34636667 	ori	v1,v1,0x6667
    49b4:	00830018 	mult	a0,v1
    49b8:	00041fc3 	sra	v1,a0,0x1f
    49bc:	00134080 	sll	t0,s3,0x2
    49c0:	00c53021 	addu	a2,a2,a1
    49c4:	00ec3821 	addu	a3,a3,t4
    49c8:	44860000 	mtc1	a2,$f0
    49cc:	c4e2001c 	lwc1	$f2,28(a3)
    49d0:	8dcb0030 	lw	t3,48(t6)
    49d4:	8da60034 	lw	a2,52(t5)
    49d8:	46800020 	cvt.s.w	$f0,$f0
    49dc:	46020000 	add.s	$f0,$f0,$f2
    49e0:	00cb3021 	addu	a2,a2,t3
    49e4:	00001010 	mfhi	v0
    49e8:	000210c3 	sra	v0,v0,0x3
    49ec:	0043a823 	subu	s5,v0,v1
    49f0:	00151900 	sll	v1,s5,0x4
    49f4:	00151080 	sll	v0,s5,0x2
    49f8:	00431021 	addu	v0,v0,v1
    49fc:	0082a823 	subu	s5,a0,v0
    4a00:	3c026666 	lui	v0,0x6666
    4a04:	26a40001 	addiu	a0,s5,1
    4a08:	34426667 	ori	v0,v0,0x6667
    4a0c:	00820018 	mult	a0,v0
    4a10:	00044fc3 	sra	t1,a0,0x1f
    4a14:	00131140 	sll	v0,s3,0x5
    4a18:	01024021 	addu	t0,t0,v0
    4a1c:	e4e0001c 	swc1	$f0,28(a3)
    4a20:	00183880 	sll	a3,t8,0x2
    4a24:	8e0a0028 	lw	t2,40(s0)
    4a28:	8de50024 	lw	a1,36(t7)
    4a2c:	010c4021 	addu	t0,t0,t4
    4a30:	00aa2821 	addu	a1,a1,t2
    4a34:	00c53021 	addu	a2,a2,a1
    4a38:	44860000 	mtc1	a2,$f0
    4a3c:	00001810 	mfhi	v1
    4a40:	000318c3 	sra	v1,v1,0x3
    4a44:	00699823 	subu	s3,v1,t1
    4a48:	00131900 	sll	v1,s3,0x4
    4a4c:	00131080 	sll	v0,s3,0x2
    4a50:	00431021 	addu	v0,v0,v1
    4a54:	00829823 	subu	s3,a0,v0
    4a58:	3c026666 	lui	v0,0x6666
    4a5c:	26640001 	addiu	a0,s3,1
    4a60:	34426667 	ori	v0,v0,0x6667
    4a64:	00820018 	mult	a0,v0
    4a68:	00045fc3 	sra	t3,a0,0x1f
    4a6c:	00181140 	sll	v0,t8,0x5
    4a70:	00e23821 	addu	a3,a3,v0
    4a74:	c502001c 	lwc1	$f2,28(t0)
    4a78:	8dca0054 	lw	t2,84(t6)
    4a7c:	8e09004c 	lw	t1,76(s0)
    4a80:	8da60058 	lw	a2,88(t5)
    4a84:	8de50048 	lw	a1,72(t7)
    4a88:	46800020 	cvt.s.w	$f0,$f0
    4a8c:	46020000 	add.s	$f0,$f0,$f2
    4a90:	00a92821 	addu	a1,a1,t1
    4a94:	00001810 	mfhi	v1
    4a98:	000318c3 	sra	v1,v1,0x3
    4a9c:	006bf023 	subu	s8,v1,t3
    4aa0:	001e1900 	sll	v1,s8,0x4
    4aa4:	001e1080 	sll	v0,s8,0x2
    4aa8:	00431021 	addu	v0,v0,v1
    4aac:	0082f023 	subu	s8,a0,v0
    4ab0:	3c036666 	lui	v1,0x6666
    4ab4:	27c40001 	addiu	a0,s8,1
    4ab8:	34636667 	ori	v1,v1,0x6667
    4abc:	00830018 	mult	a0,v1
    4ac0:	00041fc3 	sra	v1,a0,0x1f
    4ac4:	00ca3021 	addu	a2,a2,t2
    4ac8:	00c53021 	addu	a2,a2,a1
    4acc:	e500001c 	swc1	$f0,28(t0)
    4ad0:	8dcb0078 	lw	t3,120(t6)
    4ad4:	8e0a0070 	lw	t2,112(s0)
    4ad8:	44860000 	mtc1	a2,$f0
    4adc:	8de5006c 	lw	a1,108(t7)
    4ae0:	8da6007c 	lw	a2,124(t5)
    4ae4:	00aa2821 	addu	a1,a1,t2
    4ae8:	00cb3021 	addu	a2,a2,t3
    4aec:	00001010 	mfhi	v0
    4af0:	000210c3 	sra	v0,v0,0x3
    4af4:	0043b823 	subu	s7,v0,v1
    4af8:	00171900 	sll	v1,s7,0x4
    4afc:	00171080 	sll	v0,s7,0x2
    4b00:	00431021 	addu	v0,v0,v1
    4b04:	0082b823 	subu	s7,a0,v0
    4b08:	3c026666 	lui	v0,0x6666
    4b0c:	26e40001 	addiu	a0,s7,1
    4b10:	34426667 	ori	v0,v0,0x6667
    4b14:	00820018 	mult	a0,v0
    4b18:	000447c3 	sra	t0,a0,0x1f
    4b1c:	00c53021 	addu	a2,a2,a1
    4b20:	00191140 	sll	v0,t9,0x5
    4b24:	00194880 	sll	t1,t9,0x2
    4b28:	01224821 	addu	t1,t1,v0
    4b2c:	00ec3821 	addu	a3,a3,t4
    4b30:	c4e2001c 	lwc1	$f2,28(a3)
    4b34:	46800020 	cvt.s.w	$f0,$f0
    4b38:	46020000 	add.s	$f0,$f0,$f2
    4b3c:	012c4821 	addu	t1,t1,t4
    4b40:	e4e0001c 	swc1	$f0,28(a3)
    4b44:	00001810 	mfhi	v1
    4b48:	000318c3 	sra	v1,v1,0x3
    4b4c:	00681823 	subu	v1,v1,t0
    4b50:	afa30020 	sw	v1,32(sp)
    4b54:	8fa50020 	lw	a1,32(sp)
    4b58:	00031900 	sll	v1,v1,0x4
    4b5c:	00051080 	sll	v0,a1,0x2
    4b60:	00431021 	addu	v0,v0,v1
    4b64:	00822023 	subu	a0,a0,v0
    4b68:	3c026666 	lui	v0,0x6666
    4b6c:	24850001 	addiu	a1,a0,1
    4b70:	34426667 	ori	v0,v0,0x6667
    4b74:	00a20018 	mult	a1,v0
    4b78:	00055fc3 	sra	t3,a1,0x1f
    4b7c:	00141140 	sll	v0,s4,0x5
    4b80:	afa40020 	sw	a0,32(sp)
    4b84:	00142080 	sll	a0,s4,0x2
    4b88:	00822021 	addu	a0,a0,v0
    4b8c:	8e070094 	lw	a3,148(s0)
    4b90:	44860000 	mtc1	a2,$f0
    4b94:	8de60090 	lw	a2,144(t7)
    4b98:	c522001c 	lwc1	$f2,28(t1)
    4b9c:	00c73021 	addu	a2,a2,a3
    4ba0:	46800020 	cvt.s.w	$f0,$f0
    4ba4:	00001810 	mfhi	v1
    4ba8:	000318c3 	sra	v1,v1,0x3
    4bac:	006bb023 	subu	s6,v1,t3
    4bb0:	00161900 	sll	v1,s6,0x4
    4bb4:	00161080 	sll	v0,s6,0x2
    4bb8:	00431021 	addu	v0,v0,v1
    4bbc:	00a2b023 	subu	s6,a1,v0
    4bc0:	3c036666 	lui	v1,0x6666
    4bc4:	26c70001 	addiu	a3,s6,1
    4bc8:	34636667 	ori	v1,v1,0x6667
    4bcc:	00e30018 	mult	a3,v1
    4bd0:	46020000 	add.s	$f0,$f0,$f2
    4bd4:	8dca009c 	lw	t2,156(t6)
    4bd8:	8da800a0 	lw	t0,160(t5)
    4bdc:	00071fc3 	sra	v1,a3,0x1f
    4be0:	e520001c 	swc1	$f0,28(t1)
    4be4:	010a4021 	addu	t0,t0,t2
    4be8:	00124880 	sll	t1,s2,0x2
    4bec:	00125140 	sll	t2,s2,0x5
    4bf0:	01064021 	addu	t0,t0,a2
    4bf4:	008c2021 	addu	a0,a0,t4
    4bf8:	44880000 	mtc1	t0,$f0
    4bfc:	00001010 	mfhi	v0
    4c00:	000210c3 	sra	v0,v0,0x3
    4c04:	00439023 	subu	s2,v0,v1
    4c08:	00121900 	sll	v1,s2,0x4
    4c0c:	00121080 	sll	v0,s2,0x2
    4c10:	00431021 	addu	v0,v0,v1
    4c14:	00e29023 	subu	s2,a3,v0
    4c18:	3c026666 	lui	v0,0x6666
    4c1c:	26460001 	addiu	a2,s2,1
    4c20:	34426667 	ori	v0,v0,0x6667
    4c24:	00c20018 	mult	a2,v0
    4c28:	c482001c 	lwc1	$f2,28(a0)
    4c2c:	46800020 	cvt.s.w	$f0,$f0
    4c30:	46020000 	add.s	$f0,$f0,$f2
    4c34:	8dc800c0 	lw	t0,192(t6)
    4c38:	e480001c 	swc1	$f0,28(a0)
    4c3c:	8e0300b8 	lw	v1,184(s0)
    4c40:	8da500c4 	lw	a1,196(t5)
    4c44:	8de200b4 	lw	v0,180(t7)
    4c48:	00063fc3 	sra	a3,a2,0x1f
    4c4c:	00431021 	addu	v0,v0,v1
    4c50:	00a82821 	addu	a1,a1,t0
    4c54:	00002010 	mfhi	a0
    4c58:	000420c3 	sra	a0,a0,0x3
    4c5c:	0087c823 	subu	t9,a0,a3
    4c60:	00a22821 	addu	a1,a1,v0
    4c64:	00191900 	sll	v1,t9,0x4
    4c68:	00191080 	sll	v0,t9,0x2
    4c6c:	00431021 	addu	v0,v0,v1
    4c70:	00c2c823 	subu	t9,a2,v0
    4c74:	3c026666 	lui	v0,0x6666
    4c78:	27240001 	addiu	a0,t9,1
    4c7c:	34426667 	ori	v0,v0,0x6667
    4c80:	00820018 	mult	a0,v0
    4c84:	00045fc3 	sra	t3,a0,0x1f
    4c88:	00151140 	sll	v0,s5,0x5
    4c8c:	00154080 	sll	t0,s5,0x2
    4c90:	01024021 	addu	t0,t0,v0
    4c94:	012a4821 	addu	t1,t1,t2
    4c98:	012c4821 	addu	t1,t1,t4
    4c9c:	44850000 	mtc1	a1,$f0
    4ca0:	c522001c 	lwc1	$f2,28(t1)
    4ca4:	46800020 	cvt.s.w	$f0,$f0
    4ca8:	46020000 	add.s	$f0,$f0,$f2
    4cac:	8e0700dc 	lw	a3,220(s0)
    4cb0:	00001810 	mfhi	v1
    4cb4:	000318c3 	sra	v1,v1,0x3
    4cb8:	006bc023 	subu	t8,v1,t3
    4cbc:	00181900 	sll	v1,t8,0x4
    4cc0:	00181080 	sll	v0,t8,0x2
    4cc4:	00431021 	addu	v0,v0,v1
    4cc8:	0082c023 	subu	t8,a0,v0
    4ccc:	3c036666 	lui	v1,0x6666
    4cd0:	27040001 	addiu	a0,t8,1
    4cd4:	34636667 	ori	v1,v1,0x6667
    4cd8:	00830018 	mult	a0,v1
    4cdc:	00041fc3 	sra	v1,a0,0x1f
    4ce0:	8de500d8 	lw	a1,216(t7)
    4ce4:	e520001c 	swc1	$f0,28(t1)
    4ce8:	8dca00e4 	lw	t2,228(t6)
    4cec:	8da600e8 	lw	a2,232(t5)
    4cf0:	00a72821 	addu	a1,a1,a3
    4cf4:	00133880 	sll	a3,s3,0x2
    4cf8:	00ca3021 	addu	a2,a2,t2
    4cfc:	00c53021 	addu	a2,a2,a1
    4d00:	8e0a0100 	lw	t2,256(s0)
    4d04:	8de500fc 	lw	a1,252(t7)
    4d08:	00001010 	mfhi	v0
    4d0c:	000210c3 	sra	v0,v0,0x3
    4d10:	0043a823 	subu	s5,v0,v1
    4d14:	00151900 	sll	v1,s5,0x4
    4d18:	00151080 	sll	v0,s5,0x2
    4d1c:	00431021 	addu	v0,v0,v1
    4d20:	0082a823 	subu	s5,a0,v0
    4d24:	3c026666 	lui	v0,0x6666
    4d28:	26a40001 	addiu	a0,s5,1
    4d2c:	34426667 	ori	v0,v0,0x6667
    4d30:	00820018 	mult	a0,v0
    4d34:	00044fc3 	sra	t1,a0,0x1f
    4d38:	00131140 	sll	v0,s3,0x5
    4d3c:	00e23821 	addu	a3,a3,v0
    4d40:	00aa2821 	addu	a1,a1,t2
    4d44:	010c4021 	addu	t0,t0,t4
    4d48:	44860000 	mtc1	a2,$f0
    4d4c:	c502001c 	lwc1	$f2,28(t0)
    4d50:	8dcb0108 	lw	t3,264(t6)
    4d54:	8da6010c 	lw	a2,268(t5)
    4d58:	46800020 	cvt.s.w	$f0,$f0
    4d5c:	46020000 	add.s	$f0,$f0,$f2
    4d60:	00001810 	mfhi	v1
    4d64:	000318c3 	sra	v1,v1,0x3
    4d68:	0069a023 	subu	s4,v1,t1
    4d6c:	00141900 	sll	v1,s4,0x4
    4d70:	00141080 	sll	v0,s4,0x2
    4d74:	00431021 	addu	v0,v0,v1
    4d78:	0082a023 	subu	s4,a0,v0
    4d7c:	3c026666 	lui	v0,0x6666
    4d80:	268a0001 	addiu	t2,s4,1
    4d84:	34426667 	ori	v0,v0,0x6667
    4d88:	01420018 	mult	t2,v0
    4d8c:	00cb3021 	addu	a2,a2,t3
    4d90:	00c53021 	addu	a2,a2,a1
    4d94:	e500001c 	swc1	$f0,28(t0)
    4d98:	00ec3821 	addu	a3,a3,t4
    4d9c:	44860000 	mtc1	a2,$f0
    4da0:	c4e2001c 	lwc1	$f2,28(a3)
    4da4:	8dc9012c 	lw	t1,300(t6)
    4da8:	8e060124 	lw	a2,292(s0)
    4dac:	8da40130 	lw	a0,304(t5)
    4db0:	8de30120 	lw	v1,288(t7)
    4db4:	46800020 	cvt.s.w	$f0,$f0
    4db8:	46020000 	add.s	$f0,$f0,$f2
    4dbc:	00661821 	addu	v1,v1,a2
    4dc0:	001e1140 	sll	v0,s8,0x5
    4dc4:	00892021 	addu	a0,a0,t1
    4dc8:	001e2880 	sll	a1,s8,0x2
    4dcc:	00004010 	mfhi	t0
    4dd0:	00832021 	addu	a0,a0,v1
    4dd4:	00a22821 	addu	a1,a1,v0
    4dd8:	e4e0001c 	swc1	$f0,28(a3)
    4ddc:	00ac2821 	addu	a1,a1,t4
    4de0:	8e090148 	lw	t1,328(s0)
    4de4:	000a17c3 	sra	v0,t2,0x1f
    4de8:	44840000 	mtc1	a0,$f0
    4dec:	000840c3 	sra	t0,t0,0x3
    4df0:	8de40144 	lw	a0,324(t7)
    4df4:	c4a2001c 	lwc1	$f2,28(a1)
    4df8:	01029823 	subu	s3,t0,v0
    4dfc:	8dcb0150 	lw	t3,336(t6)
    4e00:	8da70154 	lw	a3,340(t5)
    4e04:	00171940 	sll	v1,s7,0x5
    4e08:	00173080 	sll	a2,s7,0x2
    4e0c:	00892021 	addu	a0,a0,t1
    4e10:	00c33021 	addu	a2,a2,v1
    4e14:	8fa90020 	lw	t1,32(sp)
    4e18:	00131900 	sll	v1,s3,0x4
    4e1c:	00131080 	sll	v0,s3,0x2
    4e20:	46800020 	cvt.s.w	$f0,$f0
    4e24:	46020000 	add.s	$f0,$f0,$f2
    4e28:	00431021 	addu	v0,v0,v1
    4e2c:	00eb3821 	addu	a3,a3,t3
    4e30:	01429823 	subu	s3,t2,v0
    4e34:	00e43821 	addu	a3,a3,a0
    4e38:	00091140 	sll	v0,t1,0x5
    4e3c:	00091880 	sll	v1,t1,0x2
    4e40:	e4a0001c 	swc1	$f0,28(a1)
    4e44:	00cc3021 	addu	a2,a2,t4
    4e48:	44870000 	mtc1	a3,$f0
    4e4c:	00621821 	addu	v1,v1,v0
    4e50:	3c026666 	lui	v0,0x6666
    4e54:	c4c2001c 	lwc1	$f2,28(a2)
    4e58:	266a0001 	addiu	t2,s3,1
    4e5c:	8dc80174 	lw	t0,372(t6)
    4e60:	8e07016c 	lw	a3,364(s0)
    4e64:	8da50178 	lw	a1,376(t5)
    4e68:	8de40168 	lw	a0,360(t7)
    4e6c:	34426667 	ori	v0,v0,0x6667
    4e70:	01420018 	mult	t2,v0
    4e74:	46800020 	cvt.s.w	$f0,$f0
    4e78:	46020000 	add.s	$f0,$f0,$f2
    4e7c:	00872021 	addu	a0,a0,a3
    4e80:	00a82821 	addu	a1,a1,t0
    4e84:	00a42821 	addu	a1,a1,a0
    4e88:	e4c0001c 	swc1	$f0,28(a2)
    4e8c:	006c1821 	addu	v1,v1,t4
    4e90:	44850000 	mtc1	a1,$f0
    4e94:	c462001c 	lwc1	$f2,28(v1)
    4e98:	46800020 	cvt.s.w	$f0,$f0
    4e9c:	46020000 	add.s	$f0,$f0,$f2
    4ea0:	8dc60198 	lw	a2,408(t6)
    4ea4:	e460001c 	swc1	$f0,28(v1)
    4ea8:	8e040190 	lw	a0,400(s0)
    4eac:	8da3019c 	lw	v1,412(t5)
    4eb0:	8de2018c 	lw	v0,396(t7)
    4eb4:	00661821 	addu	v1,v1,a2
    4eb8:	00441021 	addu	v0,v0,a0
    4ebc:	00621821 	addu	v1,v1,v0
    4ec0:	00163940 	sll	a3,s6,0x5
    4ec4:	00162880 	sll	a1,s6,0x2
    4ec8:	00004810 	mfhi	t1
    4ecc:	8dc801bc 	lw	t0,444(t6)
    4ed0:	8e0601b4 	lw	a2,436(s0)
    4ed4:	00121140 	sll	v0,s2,0x5
    4ed8:	00a72821 	addu	a1,a1,a3
    4edc:	44830000 	mtc1	v1,$f0
    4ee0:	8da401c0 	lw	a0,448(t5)
    4ee4:	8de301b0 	lw	v1,432(t7)
    4ee8:	00123880 	sll	a3,s2,0x2
    4eec:	00ac2821 	addu	a1,a1,t4
    4ef0:	00e23821 	addu	a3,a3,v0
    4ef4:	000948c3 	sra	t1,t1,0x3
    4ef8:	000a17c3 	sra	v0,t2,0x1f
    4efc:	c4a2001c 	lwc1	$f2,28(a1)
    4f00:	01229023 	subu	s2,t1,v0
    4f04:	00661821 	addu	v1,v1,a2
    4f08:	00882021 	addu	a0,a0,t0
    4f0c:	00832021 	addu	a0,a0,v1
    4f10:	00121080 	sll	v0,s2,0x2
    4f14:	00121900 	sll	v1,s2,0x4
    4f18:	46800020 	cvt.s.w	$f0,$f0
    4f1c:	46020000 	add.s	$f0,$f0,$f2
    4f20:	00431021 	addu	v0,v0,v1
    4f24:	01429023 	subu	s2,t2,v0
    4f28:	00193080 	sll	a2,t9,0x2
    4f2c:	00191140 	sll	v0,t9,0x5
    4f30:	e4a0001c 	swc1	$f0,28(a1)
    4f34:	00ec3821 	addu	a3,a3,t4
    4f38:	44840000 	mtc1	a0,$f0
    4f3c:	00c23021 	addu	a2,a2,v0
    4f40:	3c026666 	lui	v0,0x6666
    4f44:	c4e2001c 	lwc1	$f2,28(a3)
    4f48:	264a0001 	addiu	t2,s2,1
    4f4c:	8dc801e0 	lw	t0,480(t6)
    4f50:	8e0501d8 	lw	a1,472(s0)
    4f54:	8da401e4 	lw	a0,484(t5)
    4f58:	8de301d4 	lw	v1,468(t7)
    4f5c:	34426667 	ori	v0,v0,0x6667
    4f60:	01420018 	mult	t2,v0
    4f64:	46800020 	cvt.s.w	$f0,$f0
    4f68:	46020000 	add.s	$f0,$f0,$f2
    4f6c:	00651821 	addu	v1,v1,a1
    4f70:	00882021 	addu	a0,a0,t0
    4f74:	00832021 	addu	a0,a0,v1
    4f78:	e4e0001c 	swc1	$f0,28(a3)
    4f7c:	00cc3021 	addu	a2,a2,t4
    4f80:	44840000 	mtc1	a0,$f0
    4f84:	c4c2001c 	lwc1	$f2,28(a2)
    4f88:	8dc80204 	lw	t0,516(t6)
    4f8c:	8e0701fc 	lw	a3,508(s0)
    4f90:	8da50208 	lw	a1,520(t5)
    4f94:	8de301f8 	lw	v1,504(t7)
    4f98:	46800020 	cvt.s.w	$f0,$f0
    4f9c:	46020000 	add.s	$f0,$f0,$f2
    4fa0:	00671821 	addu	v1,v1,a3
    4fa4:	00181140 	sll	v0,t8,0x5
    4fa8:	00a82821 	addu	a1,a1,t0
    4fac:	00182080 	sll	a0,t8,0x2
    4fb0:	00a32821 	addu	a1,a1,v1
    4fb4:	00822021 	addu	a0,a0,v0
    4fb8:	e4c0001c 	swc1	$f0,28(a2)
    4fbc:	008c2021 	addu	a0,a0,t4
    4fc0:	44850000 	mtc1	a1,$f0
    4fc4:	c482001c 	lwc1	$f2,28(a0)
    4fc8:	8dc80228 	lw	t0,552(t6)
    4fcc:	8e070220 	lw	a3,544(s0)
    4fd0:	8da5022c 	lw	a1,556(t5)
    4fd4:	8de3021c 	lw	v1,540(t7)
    4fd8:	46800020 	cvt.s.w	$f0,$f0
    4fdc:	46020000 	add.s	$f0,$f0,$f2
    4fe0:	00671821 	addu	v1,v1,a3
    4fe4:	00151140 	sll	v0,s5,0x5
    4fe8:	00a82821 	addu	a1,a1,t0
    4fec:	00153080 	sll	a2,s5,0x2
    4ff0:	00a32821 	addu	a1,a1,v1
    4ff4:	00004810 	mfhi	t1
    4ff8:	00c23021 	addu	a2,a2,v0
    4ffc:	e480001c 	swc1	$f0,28(a0)
    5000:	00cc3021 	addu	a2,a2,t4
    5004:	000a17c3 	sra	v0,t2,0x1f
    5008:	44850000 	mtc1	a1,$f0
    500c:	000948c3 	sra	t1,t1,0x3
    5010:	01225823 	subu	t3,t1,v0
    5014:	c4c2001c 	lwc1	$f2,28(a2)
    5018:	8dc9024c 	lw	t1,588(t6)
    501c:	8e080244 	lw	t0,580(s0)
    5020:	8da50250 	lw	a1,592(t5)
    5024:	8de40240 	lw	a0,576(t7)
    5028:	46800020 	cvt.s.w	$f0,$f0
    502c:	46020000 	add.s	$f0,$f0,$f2
    5030:	00141140 	sll	v0,s4,0x5
    5034:	00882021 	addu	a0,a0,t0
    5038:	00141880 	sll	v1,s4,0x2
    503c:	00a92821 	addu	a1,a1,t1
    5040:	00a42821 	addu	a1,a1,a0
    5044:	00621821 	addu	v1,v1,v0
    5048:	e4c0001c 	swc1	$f0,28(a2)
    504c:	000b3900 	sll	a3,t3,0x4
    5050:	006c1821 	addu	v1,v1,t4
    5054:	000b1080 	sll	v0,t3,0x2
    5058:	44850000 	mtc1	a1,$f0
    505c:	c462001c 	lwc1	$f2,28(v1)
    5060:	00471021 	addu	v0,v0,a3
    5064:	01425823 	subu	t3,t2,v0
    5068:	46800020 	cvt.s.w	$f0,$f0
    506c:	3c026666 	lui	v0,0x6666
    5070:	256a0001 	addiu	t2,t3,1
    5074:	46020000 	add.s	$f0,$f0,$f2
    5078:	34426667 	ori	v0,v0,0x6667
    507c:	01420018 	mult	t2,v0
    5080:	e460001c 	swc1	$f0,28(v1)
    5084:	8dc60270 	lw	a2,624(t6)
    5088:	8e040268 	lw	a0,616(s0)
    508c:	8da30274 	lw	v1,628(t5)
    5090:	8de20264 	lw	v0,612(t7)
    5094:	00133940 	sll	a3,s3,0x5
    5098:	00441021 	addu	v0,v0,a0
    509c:	00661821 	addu	v1,v1,a2
    50a0:	00132880 	sll	a1,s3,0x2
    50a4:	00621821 	addu	v1,v1,v0
    50a8:	00a72821 	addu	a1,a1,a3
    50ac:	00ac2821 	addu	a1,a1,t4
    50b0:	44830000 	mtc1	v1,$f0
    50b4:	c4a2001c 	lwc1	$f2,28(a1)
    50b8:	8dc80294 	lw	t0,660(t6)
    50bc:	8e04028c 	lw	a0,652(s0)
    50c0:	8da30298 	lw	v1,664(t5)
    50c4:	8de20288 	lw	v0,648(t7)
    50c8:	46800020 	cvt.s.w	$f0,$f0
    50cc:	46020000 	add.s	$f0,$f0,$f2
    50d0:	00123940 	sll	a3,s2,0x5
    50d4:	00441021 	addu	v0,v0,a0
    50d8:	00123080 	sll	a2,s2,0x2
    50dc:	00681821 	addu	v1,v1,t0
    50e0:	00621821 	addu	v1,v1,v0
    50e4:	00c73021 	addu	a2,a2,a3
    50e8:	e4a0001c 	swc1	$f0,28(a1)
    50ec:	00cc3021 	addu	a2,a2,t4
    50f0:	44830000 	mtc1	v1,$f0
    50f4:	c4c2001c 	lwc1	$f2,28(a2)
    50f8:	8e0802b0 	lw	t0,688(s0)
    50fc:	8da702bc 	lw	a3,700(t5)
    5100:	8dc902b8 	lw	t1,696(t6)
    5104:	8de502ac 	lw	a1,684(t7)
    5108:	0000a010 	mfhi	s4
    510c:	46800020 	cvt.s.w	$f0,$f0
    5110:	46020000 	add.s	$f0,$f0,$f2
    5114:	00a82821 	addu	a1,a1,t0
    5118:	0014a0c3 	sra	s4,s4,0x3
    511c:	000b1940 	sll	v1,t3,0x5
    5120:	000a17c3 	sra	v0,t2,0x1f
    5124:	000b2080 	sll	a0,t3,0x2
    5128:	00e93821 	addu	a3,a3,t1
    512c:	02829023 	subu	s2,s4,v0
    5130:	00832021 	addu	a0,a0,v1
    5134:	00e53821 	addu	a3,a3,a1
    5138:	e4c0001c 	swc1	$f0,28(a2)
    513c:	008c2021 	addu	a0,a0,t4
    5140:	00121900 	sll	v1,s2,0x4
    5144:	00121080 	sll	v0,s2,0x2
    5148:	44870000 	mtc1	a3,$f0
    514c:	c482001c 	lwc1	$f2,28(a0)
    5150:	00431021 	addu	v0,v0,v1
    5154:	01429023 	subu	s2,t2,v0
    5158:	46800020 	cvt.s.w	$f0,$f0
    515c:	46020000 	add.s	$f0,$f0,$f2
    5160:	00121140 	sll	v0,s2,0x5
    5164:	00121880 	sll	v1,s2,0x2
    5168:	00621821 	addu	v1,v1,v0
    516c:	e480001c 	swc1	$f0,28(a0)
    5170:	006c1821 	addu	v1,v1,t4
    5174:	3c040000 	lui	a0,0x0
    5178:	c4825c28 	lwc1	$f2,23592(a0)
    517c:	c460001c 	lwc1	$f0,28(v1)
    5180:	3c050005 	lui	a1,0x5
    5184:	46020003 	div.s	$f0,$f0,$f2
    5188:	24a4bb18 	addiu	a0,a1,-17640
    518c:	8fa6002c 	lw	a2,44(sp)
    5190:	24020008 	li	v0,8
    5194:	c482001c 	lwc1	$f2,28(a0)
    5198:	3c080005 	lui	t0,0x5
    519c:	00461023 	subu	v0,v0,a2
    51a0:	afb4004c 	sw	s4,76(sp)
    51a4:	ad12be0c 	sw	s2,-16884(t0)
    51a8:	080000e6 	j	398 <main+0x398>
    51ac:	ac60001c 	sw	zero,28(v1)
    51b0:	3c0a6666 	lui	t2,0x6666
    51b4:	354a6667 	ori	t2,t2,0x6667
    51b8:	26470001 	addiu	a3,s2,1
    51bc:	00ea0018 	mult	a3,t2
    51c0:	00021140 	sll	v0,v0,0x5
    51c4:	00021880 	sll	v1,v0,0x2
    51c8:	00621821 	addu	v1,v1,v0
    51cc:	3c020005 	lui	v0,0x5
    51d0:	00075fc3 	sra	t3,a3,0x1f
    51d4:	2442b8fc 	addiu	v0,v0,-18180
    51d8:	00621821 	addu	v1,v1,v0
    51dc:	8c690030 	lw	t1,48(v1)
    51e0:	8c650020 	lw	a1,32(v1)
    51e4:	8c66001c 	lw	a2,28(v1)
    51e8:	8c68002c 	lw	t0,44(v1)
    51ec:	00002010 	mfhi	a0
    51f0:	000420c3 	sra	a0,a0,0x3
    51f4:	008b9823 	subu	s3,a0,t3
    51f8:	00131900 	sll	v1,s3,0x4
    51fc:	00131080 	sll	v0,s3,0x2
    5200:	00431021 	addu	v0,v0,v1
    5204:	00e29823 	subu	s3,a3,v0
    5208:	26640001 	addiu	a0,s3,1
    520c:	008a0018 	mult	a0,t2
    5210:	00041fc3 	sra	v1,a0,0x1f
    5214:	00086980 	sll	t5,t0,0x6
    5218:	00084100 	sll	t0,t0,0x4
    521c:	01a86823 	subu	t5,t5,t0
    5220:	00053980 	sll	a3,a1,0x6
    5224:	00052900 	sll	a1,a1,0x4
    5228:	00e53823 	subu	a3,a3,a1
    522c:	000d2900 	sll	a1,t5,0x4
    5230:	afa50054 	sw	a1,84(sp)
    5234:	00065980 	sll	t3,a2,0x6
    5238:	00096180 	sll	t4,t1,0x6
    523c:	00001010 	mfhi	v0
    5240:	000210c3 	sra	v0,v0,0x3
    5244:	0043c023 	subu	t8,v0,v1
    5248:	00181900 	sll	v1,t8,0x4
    524c:	00181080 	sll	v0,t8,0x2
    5250:	00431021 	addu	v0,v0,v1
    5254:	0082c023 	subu	t8,a0,v0
    5258:	27040001 	addiu	a0,t8,1
    525c:	008a0018 	mult	a0,t2
    5260:	00041fc3 	sra	v1,a0,0x1f
    5264:	00063100 	sll	a2,a2,0x4
    5268:	00094900 	sll	t1,t1,0x4
    526c:	00077100 	sll	t6,a3,0x4
    5270:	01665823 	subu	t3,t3,a2
    5274:	01896023 	subu	t4,t4,t1
    5278:	01c77023 	subu	t6,t6,a3
    527c:	000b7900 	sll	t7,t3,0x4
    5280:	000c8100 	sll	s0,t4,0x4
    5284:	01eb7823 	subu	t7,t7,t3
    5288:	020c8023 	subu	s0,s0,t4
    528c:	00001010 	mfhi	v0
    5290:	000210c3 	sra	v0,v0,0x3
    5294:	0043a023 	subu	s4,v0,v1
    5298:	00141900 	sll	v1,s4,0x4
    529c:	00141080 	sll	v0,s4,0x2
    52a0:	00431021 	addu	v0,v0,v1
    52a4:	0082a023 	subu	s4,a0,v0
    52a8:	26850001 	addiu	a1,s4,1
    52ac:	00aa0018 	mult	a1,t2
    52b0:	8fa20054 	lw	v0,84(sp)
    52b4:	000537c3 	sra	a2,a1,0x1f
    52b8:	004d6823 	subu	t5,v0,t5
    52bc:	3c020005 	lui	v0,0x5
    52c0:	24429a0c 	addiu	v0,v0,-26100
    52c4:	01c27021 	addu	t6,t6,v0
    52c8:	3c030004 	lui	v1,0x4
    52cc:	3c020004 	lui	v0,0x4
    52d0:	24637b1c 	addiu	v1,v1,31516
    52d4:	24425c2c 	addiu	v0,v0,23596
    52d8:	02028021 	addu	s0,s0,v0
    52dc:	00002010 	mfhi	a0
    52e0:	000420c3 	sra	a0,a0,0x3
    52e4:	0086a823 	subu	s5,a0,a2
    52e8:	01e37821 	addu	t7,t7,v1
    52ec:	01a34021 	addu	t0,t5,v1
    52f0:	00151080 	sll	v0,s5,0x2
    52f4:	00151900 	sll	v1,s5,0x4
    52f8:	00431021 	addu	v0,v0,v1
    52fc:	00a2a823 	subu	s5,a1,v0
    5300:	26a40001 	addiu	a0,s5,1
    5304:	008a0018 	mult	a0,t2
    5308:	00044fc3 	sra	t1,a0,0x1f
    530c:	afa80050 	sw	t0,80(sp)
    5310:	8d0c0004 	lw	t4,4(t0)
    5314:	00121140 	sll	v0,s2,0x5
    5318:	00124080 	sll	t0,s2,0x2
    531c:	01024021 	addu	t0,t0,v0
    5320:	8de7000c 	lw	a3,12(t7)
    5324:	8dc60010 	lw	a2,16(t6)
    5328:	8e050000 	lw	a1,0(s0)
    532c:	00c73021 	addu	a2,a2,a3
    5330:	00ac2821 	addu	a1,a1,t4
    5334:	00001810 	mfhi	v1
    5338:	000318c3 	sra	v1,v1,0x3
    533c:	00699023 	subu	s2,v1,t1
    5340:	00121900 	sll	v1,s2,0x4
    5344:	00121080 	sll	v0,s2,0x2
    5348:	00431021 	addu	v0,v0,v1
    534c:	00829023 	subu	s2,a0,v0
    5350:	26440001 	addiu	a0,s2,1
    5354:	008a0018 	mult	a0,t2
    5358:	00041fc3 	sra	v1,a0,0x1f
    535c:	00c53021 	addu	a2,a2,a1
    5360:	44860000 	mtc1	a2,$f0
    5364:	8fa60050 	lw	a2,80(sp)
    5368:	8ded0030 	lw	t5,48(t7)
    536c:	8ccc0028 	lw	t4,40(a2)
    5370:	8dc70034 	lw	a3,52(t6)
    5374:	8e050024 	lw	a1,36(s0)
    5378:	00ed3821 	addu	a3,a3,t5
    537c:	00ac2821 	addu	a1,a1,t4
    5380:	00e53821 	addu	a3,a3,a1
    5384:	00001010 	mfhi	v0
    5388:	000210c3 	sra	v0,v0,0x3
    538c:	0043b023 	subu	s6,v0,v1
    5390:	00161900 	sll	v1,s6,0x4
    5394:	00161080 	sll	v0,s6,0x2
    5398:	00431021 	addu	v0,v0,v1
    539c:	0082b023 	subu	s6,a0,v0
    53a0:	26c60001 	addiu	a2,s6,1
    53a4:	00ca0018 	mult	a2,t2
    53a8:	00064fc3 	sra	t1,a2,0x1f
    53ac:	00131140 	sll	v0,s3,0x5
    53b0:	00132080 	sll	a0,s3,0x2
    53b4:	00822021 	addu	a0,a0,v0
    53b8:	3c0b0005 	lui	t3,0x5
    53bc:	256bbb3c 	addiu	t3,t3,-17604
    53c0:	010b4021 	addu	t0,t0,t3
    53c4:	c5020020 	lwc1	$f2,32(t0)
    53c8:	46800020 	cvt.s.w	$f0,$f0
    53cc:	46020000 	add.s	$f0,$f0,$f2
    53d0:	008b2021 	addu	a0,a0,t3
    53d4:	00001810 	mfhi	v1
    53d8:	000318c3 	sra	v1,v1,0x3
    53dc:	0069b823 	subu	s7,v1,t1
    53e0:	00171900 	sll	v1,s7,0x4
    53e4:	00171080 	sll	v0,s7,0x2
    53e8:	00431021 	addu	v0,v0,v1
    53ec:	00c2b823 	subu	s7,a2,v0
    53f0:	26e50001 	addiu	a1,s7,1
    53f4:	00aa0018 	mult	a1,t2
    53f8:	e5000020 	swc1	$f0,32(t0)
    53fc:	44870000 	mtc1	a3,$f0
    5400:	c4820020 	lwc1	$f2,32(a0)
    5404:	000567c3 	sra	t4,a1,0x1f
    5408:	46800020 	cvt.s.w	$f0,$f0
    540c:	46020000 	add.s	$f0,$f0,$f2
    5410:	8fa20050 	lw	v0,80(sp)
    5414:	e4800020 	swc1	$f0,32(a0)
    5418:	8c4d004c 	lw	t5,76(v0)
    541c:	00184080 	sll	t0,t8,0x2
    5420:	00181140 	sll	v0,t8,0x5
    5424:	00001810 	mfhi	v1
    5428:	000318c3 	sra	v1,v1,0x3
    542c:	006c1823 	subu	v1,v1,t4
    5430:	afa30024 	sw	v1,36(sp)
    5434:	8fa40024 	lw	a0,36(sp)
    5438:	01024021 	addu	t0,t0,v0
    543c:	00031900 	sll	v1,v1,0x4
    5440:	00041080 	sll	v0,a0,0x2
    5444:	00431021 	addu	v0,v0,v1
    5448:	00a22823 	subu	a1,a1,v0
    544c:	24a40001 	addiu	a0,a1,1
    5450:	008a0018 	mult	a0,t2
    5454:	00041fc3 	sra	v1,a0,0x1f
    5458:	8de90054 	lw	t1,84(t7)
    545c:	8dc70058 	lw	a3,88(t6)
    5460:	8e060048 	lw	a2,72(s0)
    5464:	00e93821 	addu	a3,a3,t1
    5468:	00cd3021 	addu	a2,a2,t5
    546c:	00e63821 	addu	a3,a3,a2
    5470:	010b4021 	addu	t0,t0,t3
    5474:	44870000 	mtc1	a3,$f0
    5478:	c5020020 	lwc1	$f2,32(t0)
    547c:	afa50024 	sw	a1,36(sp)
    5480:	00001010 	mfhi	v0
    5484:	000210c3 	sra	v0,v0,0x3
    5488:	0043f023 	subu	s8,v0,v1
    548c:	001e1900 	sll	v1,s8,0x4
    5490:	001e1080 	sll	v0,s8,0x2
    5494:	00431021 	addu	v0,v0,v1
    5498:	0082f023 	subu	s8,a0,v0
    549c:	27c40001 	addiu	a0,s8,1
    54a0:	008a0018 	mult	a0,t2
    54a4:	8fa50050 	lw	a1,80(sp)
    54a8:	46800020 	cvt.s.w	$f0,$f0
    54ac:	8cac0070 	lw	t4,112(a1)
    54b0:	46020000 	add.s	$f0,$f0,$f2
    54b4:	8ded0078 	lw	t5,120(t7)
    54b8:	00044fc3 	sra	t1,a0,0x1f
    54bc:	8dc7007c 	lw	a3,124(t6)
    54c0:	8e06006c 	lw	a2,108(s0)
    54c4:	00ed3821 	addu	a3,a3,t5
    54c8:	e5000020 	swc1	$f0,32(t0)
    54cc:	00cc3021 	addu	a2,a2,t4
    54d0:	00001810 	mfhi	v1
    54d4:	000318c3 	sra	v1,v1,0x3
    54d8:	00691823 	subu	v1,v1,t1
    54dc:	afa30028 	sw	v1,40(sp)
    54e0:	00e63821 	addu	a3,a3,a2
    54e4:	8fa60028 	lw	a2,40(sp)
    54e8:	00141140 	sll	v0,s4,0x5
    54ec:	00142880 	sll	a1,s4,0x2
    54f0:	00a22821 	addu	a1,a1,v0
    54f4:	00031900 	sll	v1,v1,0x4
    54f8:	00061080 	sll	v0,a2,0x2
    54fc:	00431021 	addu	v0,v0,v1
    5500:	00822023 	subu	a0,a0,v0
    5504:	24860001 	addiu	a2,a0,1
    5508:	00ca0018 	mult	a2,t2
    550c:	8fa20050 	lw	v0,80(sp)
    5510:	00ab2821 	addu	a1,a1,t3
    5514:	000667c3 	sra	t4,a2,0x1f
    5518:	44870000 	mtc1	a3,$f0
    551c:	c4a20020 	lwc1	$f2,32(a1)
    5520:	8c4d0094 	lw	t5,148(v0)
    5524:	afa40028 	sw	a0,40(sp)
    5528:	00151140 	sll	v0,s5,0x5
    552c:	00152080 	sll	a0,s5,0x2
    5530:	00822021 	addu	a0,a0,v0
    5534:	46800020 	cvt.s.w	$f0,$f0
    5538:	00001810 	mfhi	v1
    553c:	000318c3 	sra	v1,v1,0x3
    5540:	006cc023 	subu	t8,v1,t4
    5544:	00181900 	sll	v1,t8,0x4
    5548:	00181080 	sll	v0,t8,0x2
    554c:	46020000 	add.s	$f0,$f0,$f2
    5550:	00431021 	addu	v0,v0,v1
    5554:	00c2c023 	subu	t8,a2,v0
    5558:	e4a00020 	swc1	$f0,32(a1)
    555c:	27050001 	addiu	a1,t8,1
    5560:	00aa0018 	mult	a1,t2
    5564:	00051fc3 	sra	v1,a1,0x1f
    5568:	8de9009c 	lw	t1,156(t7)
    556c:	8dc800a0 	lw	t0,160(t6)
    5570:	8e070090 	lw	a3,144(s0)
    5574:	01094021 	addu	t0,t0,t1
    5578:	00ed3821 	addu	a3,a3,t5
    557c:	01074021 	addu	t0,t0,a3
    5580:	008b2021 	addu	a0,a0,t3
    5584:	44880000 	mtc1	t0,$f0
    5588:	c4820020 	lwc1	$f2,32(a0)
    558c:	46800020 	cvt.s.w	$f0,$f0
    5590:	00001010 	mfhi	v0
    5594:	000210c3 	sra	v0,v0,0x3
    5598:	00439823 	subu	s3,v0,v1
    559c:	00131900 	sll	v1,s3,0x4
    55a0:	00131080 	sll	v0,s3,0x2
    55a4:	00431021 	addu	v0,v0,v1
    55a8:	00a29823 	subu	s3,a1,v0
    55ac:	26670001 	addiu	a3,s3,1
    55b0:	00ea0018 	mult	a3,t2
    55b4:	46020000 	add.s	$f0,$f0,$f2
    55b8:	8fad0050 	lw	t5,80(sp)
    55bc:	e4800020 	swc1	$f0,32(a0)
    55c0:	8da300b8 	lw	v1,184(t5)
    55c4:	8de500c0 	lw	a1,192(t7)
    55c8:	8dc600c4 	lw	a2,196(t6)
    55cc:	8e0200b4 	lw	v0,180(s0)
    55d0:	000747c3 	sra	t0,a3,0x1f
    55d4:	00431021 	addu	v0,v0,v1
    55d8:	00c53021 	addu	a2,a2,a1
    55dc:	00c23021 	addu	a2,a2,v0
    55e0:	00002010 	mfhi	a0
    55e4:	000420c3 	sra	a0,a0,0x3
    55e8:	0088c823 	subu	t9,a0,t0
    55ec:	00191900 	sll	v1,t9,0x4
    55f0:	00191080 	sll	v0,t9,0x2
    55f4:	00431021 	addu	v0,v0,v1
    55f8:	00e2c823 	subu	t9,a3,v0
    55fc:	27240001 	addiu	a0,t9,1
    5600:	008a0018 	mult	a0,t2
    5604:	00126140 	sll	t4,s2,0x5
    5608:	00124880 	sll	t1,s2,0x2
    560c:	012c4821 	addu	t1,t1,t4
    5610:	000467c3 	sra	t4,a0,0x1f
    5614:	00161140 	sll	v0,s6,0x5
    5618:	00164080 	sll	t0,s6,0x2
    561c:	01024021 	addu	t0,t0,v0
    5620:	012b4821 	addu	t1,t1,t3
    5624:	44860000 	mtc1	a2,$f0
    5628:	c5220020 	lwc1	$f2,32(t1)
    562c:	8de700e4 	lw	a3,228(t7)
    5630:	00001810 	mfhi	v1
    5634:	000318c3 	sra	v1,v1,0x3
    5638:	006cb023 	subu	s6,v1,t4
    563c:	00161900 	sll	v1,s6,0x4
    5640:	00161080 	sll	v0,s6,0x2
    5644:	00431021 	addu	v0,v0,v1
    5648:	0082b023 	subu	s6,a0,v0
    564c:	26c40001 	addiu	a0,s6,1
    5650:	008a0018 	mult	a0,t2
    5654:	00041fc3 	sra	v1,a0,0x1f
    5658:	8dad00dc 	lw	t5,220(t5)
    565c:	8dc600e8 	lw	a2,232(t6)
    5660:	8e0500d8 	lw	a1,216(s0)
    5664:	46800020 	cvt.s.w	$f0,$f0
    5668:	46020000 	add.s	$f0,$f0,$f2
    566c:	00ad2821 	addu	a1,a1,t5
    5670:	00c73021 	addu	a2,a2,a3
    5674:	00c53021 	addu	a2,a2,a1
    5678:	e5200020 	swc1	$f0,32(t1)
    567c:	44860000 	mtc1	a2,$f0
    5680:	00001010 	mfhi	v0
    5684:	000210c3 	sra	v0,v0,0x3
    5688:	0043a823 	subu	s5,v0,v1
    568c:	00151900 	sll	v1,s5,0x4
    5690:	00151080 	sll	v0,s5,0x2
    5694:	00431021 	addu	v0,v0,v1
    5698:	0082a823 	subu	s5,a0,v0
    569c:	26a40001 	addiu	a0,s5,1
    56a0:	008a0018 	mult	a0,t2
    56a4:	8fa60050 	lw	a2,80(sp)
    56a8:	00044fc3 	sra	t1,a0,0x1f
    56ac:	8ccc0100 	lw	t4,256(a2)
    56b0:	00171140 	sll	v0,s7,0x5
    56b4:	00173080 	sll	a2,s7,0x2
    56b8:	00c23021 	addu	a2,a2,v0
    56bc:	8e0500fc 	lw	a1,252(s0)
    56c0:	010b4021 	addu	t0,t0,t3
    56c4:	00ac2821 	addu	a1,a1,t4
    56c8:	c5020020 	lwc1	$f2,32(t0)
    56cc:	8ded0108 	lw	t5,264(t7)
    56d0:	00001810 	mfhi	v1
    56d4:	000318c3 	sra	v1,v1,0x3
    56d8:	00699023 	subu	s2,v1,t1
    56dc:	00121900 	sll	v1,s2,0x4
    56e0:	00121080 	sll	v0,s2,0x2
    56e4:	00431021 	addu	v0,v0,v1
    56e8:	00829023 	subu	s2,a0,v0
    56ec:	264c0001 	addiu	t4,s2,1
    56f0:	018a0018 	mult	t4,t2
    56f4:	8dc7010c 	lw	a3,268(t6)
    56f8:	46800020 	cvt.s.w	$f0,$f0
    56fc:	46020000 	add.s	$f0,$f0,$f2
    5700:	00ed3821 	addu	a3,a3,t5
    5704:	00e53821 	addu	a3,a3,a1
    5708:	e5000020 	swc1	$f0,32(t0)
    570c:	00cb3021 	addu	a2,a2,t3
    5710:	8fa20050 	lw	v0,80(sp)
    5714:	44870000 	mtc1	a3,$f0
    5718:	c4c20020 	lwc1	$f2,32(a2)
    571c:	8c470124 	lw	a3,292(v0)
    5720:	8fad0024 	lw	t5,36(sp)
    5724:	8de8012c 	lw	t0,300(t7)
    5728:	8dc50130 	lw	a1,304(t6)
    572c:	8e030120 	lw	v1,288(s0)
    5730:	46800020 	cvt.s.w	$f0,$f0
    5734:	46020000 	add.s	$f0,$f0,$f2
    5738:	000d1140 	sll	v0,t5,0x5
    573c:	00671821 	addu	v1,v1,a3
    5740:	000d2080 	sll	a0,t5,0x2
    5744:	00a82821 	addu	a1,a1,t0
    5748:	e4c00020 	swc1	$f0,32(a2)
    574c:	00a32821 	addu	a1,a1,v1
    5750:	00822021 	addu	a0,a0,v0
    5754:	8fa20050 	lw	v0,80(sp)
    5758:	008b2021 	addu	a0,a0,t3
    575c:	44850000 	mtc1	a1,$f0
    5760:	c4820020 	lwc1	$f2,32(a0)
    5764:	8c460148 	lw	a2,328(v0)
    5768:	8de80150 	lw	t0,336(t7)
    576c:	8dc50154 	lw	a1,340(t6)
    5770:	8e030144 	lw	v1,324(s0)
    5774:	00004810 	mfhi	t1
    5778:	001e1140 	sll	v0,s8,0x5
    577c:	46800020 	cvt.s.w	$f0,$f0
    5780:	001e3880 	sll	a3,s8,0x2
    5784:	46020000 	add.s	$f0,$f0,$f2
    5788:	00661821 	addu	v1,v1,a2
    578c:	00e23821 	addu	a3,a3,v0
    5790:	00a82821 	addu	a1,a1,t0
    5794:	000c17c3 	sra	v0,t4,0x1f
    5798:	000948c3 	sra	t1,t1,0x3
    579c:	0122a023 	subu	s4,t1,v0
    57a0:	00a32821 	addu	a1,a1,v1
    57a4:	8fa30050 	lw	v1,80(sp)
    57a8:	e4800020 	swc1	$f0,32(a0)
    57ac:	00eb3821 	addu	a3,a3,t3
    57b0:	00141100 	sll	v0,s4,0x4
    57b4:	44850000 	mtc1	a1,$f0
    57b8:	00142080 	sll	a0,s4,0x2
    57bc:	c4e20020 	lwc1	$f2,32(a3)
    57c0:	8c68016c 	lw	t0,364(v1)
    57c4:	8fad0028 	lw	t5,40(sp)
    57c8:	00822021 	addu	a0,a0,v0
    57cc:	8de90174 	lw	t1,372(t7)
    57d0:	8dc60178 	lw	a2,376(t6)
    57d4:	8e050168 	lw	a1,360(s0)
    57d8:	0184a023 	subu	s4,t4,a0
    57dc:	46800020 	cvt.s.w	$f0,$f0
    57e0:	46020000 	add.s	$f0,$f0,$f2
    57e4:	000d1140 	sll	v0,t5,0x5
    57e8:	00a82821 	addu	a1,a1,t0
    57ec:	000d1880 	sll	v1,t5,0x2
    57f0:	00c93021 	addu	a2,a2,t1
    57f4:	268d0001 	addiu	t5,s4,1
    57f8:	01aa0018 	mult	t5,t2
    57fc:	00c53021 	addu	a2,a2,a1
    5800:	00621821 	addu	v1,v1,v0
    5804:	e4e00020 	swc1	$f0,32(a3)
    5808:	006b1821 	addu	v1,v1,t3
    580c:	44860000 	mtc1	a2,$f0
    5810:	c4620020 	lwc1	$f2,32(v1)
    5814:	46800020 	cvt.s.w	$f0,$f0
    5818:	46020000 	add.s	$f0,$f0,$f2
    581c:	8fa80050 	lw	t0,80(sp)
    5820:	e4600020 	swc1	$f0,32(v1)
    5824:	8d040190 	lw	a0,400(t0)
    5828:	8de60198 	lw	a2,408(t7)
    582c:	8dc3019c 	lw	v1,412(t6)
    5830:	8e02018c 	lw	v0,396(s0)
    5834:	00183940 	sll	a3,t8,0x5
    5838:	00441021 	addu	v0,v0,a0
    583c:	00661821 	addu	v1,v1,a2
    5840:	00182880 	sll	a1,t8,0x2
    5844:	00621821 	addu	v1,v1,v0
    5848:	8fac0050 	lw	t4,80(sp)
    584c:	00a72821 	addu	a1,a1,a3
    5850:	00ab2821 	addu	a1,a1,t3
    5854:	44830000 	mtc1	v1,$f0
    5858:	c4a20020 	lwc1	$f2,32(a1)
    585c:	8d8601b4 	lw	a2,436(t4)
    5860:	8de801bc 	lw	t0,444(t7)
    5864:	8dc401c0 	lw	a0,448(t6)
    5868:	8e0301b0 	lw	v1,432(s0)
    586c:	00004810 	mfhi	t1
    5870:	00131140 	sll	v0,s3,0x5
    5874:	00133880 	sll	a3,s3,0x2
    5878:	46800020 	cvt.s.w	$f0,$f0
    587c:	46020000 	add.s	$f0,$f0,$f2
    5880:	00661821 	addu	v1,v1,a2
    5884:	00e23821 	addu	a3,a3,v0
    5888:	00882021 	addu	a0,a0,t0
    588c:	000d17c3 	sra	v0,t5,0x1f
    5890:	000948c3 	sra	t1,t1,0x3
    5894:	01229823 	subu	s3,t1,v0
    5898:	00832021 	addu	a0,a0,v1
    589c:	8fa20050 	lw	v0,80(sp)
    58a0:	e4a00020 	swc1	$f0,32(a1)
    58a4:	00eb3821 	addu	a3,a3,t3
    58a8:	44840000 	mtc1	a0,$f0
    58ac:	c4e20020 	lwc1	$f2,32(a3)
    58b0:	8c4901d8 	lw	t1,472(v0)
    58b4:	8dec01e0 	lw	t4,480(t7)
    58b8:	8dc501e4 	lw	a1,484(t6)
    58bc:	8e0401d4 	lw	a0,468(s0)
    58c0:	46800020 	cvt.s.w	$f0,$f0
    58c4:	46020000 	add.s	$f0,$f0,$f2
    58c8:	00892021 	addu	a0,a0,t1
    58cc:	00191140 	sll	v0,t9,0x5
    58d0:	00ac2821 	addu	a1,a1,t4
    58d4:	00193080 	sll	a2,t9,0x2
    58d8:	00134100 	sll	t0,s3,0x4
    58dc:	00a42821 	addu	a1,a1,a0
    58e0:	00131880 	sll	v1,s3,0x2
    58e4:	00c23021 	addu	a2,a2,v0
    58e8:	e4e00020 	swc1	$f0,32(a3)
    58ec:	00681821 	addu	v1,v1,t0
    58f0:	00cb3021 	addu	a2,a2,t3
    58f4:	8fa20050 	lw	v0,80(sp)
    58f8:	44850000 	mtc1	a1,$f0
    58fc:	c4c20020 	lwc1	$f2,32(a2)
    5900:	01a39823 	subu	s3,t5,v1
    5904:	8c4701fc 	lw	a3,508(v0)
    5908:	266c0001 	addiu	t4,s3,1
    590c:	8de80204 	lw	t0,516(t7)
    5910:	8dc50208 	lw	a1,520(t6)
    5914:	8e0301f8 	lw	v1,504(s0)
    5918:	46800020 	cvt.s.w	$f0,$f0
    591c:	018a0018 	mult	t4,t2
    5920:	46020000 	add.s	$f0,$f0,$f2
    5924:	00671821 	addu	v1,v1,a3
    5928:	00161140 	sll	v0,s6,0x5
    592c:	00a82821 	addu	a1,a1,t0
    5930:	00162080 	sll	a0,s6,0x2
    5934:	e4c00020 	swc1	$f0,32(a2)
    5938:	00a32821 	addu	a1,a1,v1
    593c:	8fa60050 	lw	a2,80(sp)
    5940:	00822021 	addu	a0,a0,v0
    5944:	008b2021 	addu	a0,a0,t3
    5948:	44850000 	mtc1	a1,$f0
    594c:	c4820020 	lwc1	$f2,32(a0)
    5950:	8cc70220 	lw	a3,544(a2)
    5954:	8de80228 	lw	t0,552(t7)
    5958:	8dc5022c 	lw	a1,556(t6)
    595c:	8e03021c 	lw	v1,540(s0)
    5960:	46800020 	cvt.s.w	$f0,$f0
    5964:	46020000 	add.s	$f0,$f0,$f2
    5968:	00671821 	addu	v1,v1,a3
    596c:	00151140 	sll	v0,s5,0x5
    5970:	00a82821 	addu	a1,a1,t0
    5974:	00153080 	sll	a2,s5,0x2
    5978:	8fad0050 	lw	t5,80(sp)
    597c:	00a32821 	addu	a1,a1,v1
    5980:	00c23021 	addu	a2,a2,v0
    5984:	e4800020 	swc1	$f0,32(a0)
    5988:	00cb3021 	addu	a2,a2,t3
    598c:	44850000 	mtc1	a1,$f0
    5990:	c4c20020 	lwc1	$f2,32(a2)
    5994:	8de8024c 	lw	t0,588(t7)
    5998:	8da70244 	lw	a3,580(t5)
    599c:	8dc50250 	lw	a1,592(t6)
    59a0:	8e040240 	lw	a0,576(s0)
    59a4:	46800020 	cvt.s.w	$f0,$f0
    59a8:	46020000 	add.s	$f0,$f0,$f2
    59ac:	00121140 	sll	v0,s2,0x5
    59b0:	00872021 	addu	a0,a0,a3
    59b4:	00121880 	sll	v1,s2,0x2
    59b8:	00a82821 	addu	a1,a1,t0
    59bc:	00a42821 	addu	a1,a1,a0
    59c0:	00004810 	mfhi	t1
    59c4:	00621821 	addu	v1,v1,v0
    59c8:	e4c00020 	swc1	$f0,32(a2)
    59cc:	006b1821 	addu	v1,v1,t3
    59d0:	000948c3 	sra	t1,t1,0x3
    59d4:	000c17c3 	sra	v0,t4,0x1f
    59d8:	44850000 	mtc1	a1,$f0
    59dc:	c4620020 	lwc1	$f2,32(v1)
    59e0:	01229023 	subu	s2,t1,v0
    59e4:	00122100 	sll	a0,s2,0x4
    59e8:	00121080 	sll	v0,s2,0x2
    59ec:	46800020 	cvt.s.w	$f0,$f0
    59f0:	00441021 	addu	v0,v0,a0
    59f4:	46020000 	add.s	$f0,$f0,$f2
    59f8:	01829023 	subu	s2,t4,v0
    59fc:	e4600020 	swc1	$f0,32(v1)
    5a00:	26490001 	addiu	t1,s2,1
    5a04:	8de60270 	lw	a2,624(t7)
    5a08:	8da50268 	lw	a1,616(t5)
    5a0c:	8dc30274 	lw	v1,628(t6)
    5a10:	8e020264 	lw	v0,612(s0)
    5a14:	012a0018 	mult	t1,t2
    5a18:	00451021 	addu	v0,v0,a1
    5a1c:	00143940 	sll	a3,s4,0x5
    5a20:	00661821 	addu	v1,v1,a2
    5a24:	00142080 	sll	a0,s4,0x2
    5a28:	00621821 	addu	v1,v1,v0
    5a2c:	00872021 	addu	a0,a0,a3
    5a30:	008b2021 	addu	a0,a0,t3
    5a34:	44830000 	mtc1	v1,$f0
    5a38:	c4820020 	lwc1	$f2,32(a0)
    5a3c:	8de80294 	lw	t0,660(t7)
    5a40:	8da6028c 	lw	a2,652(t5)
    5a44:	8dc30298 	lw	v1,664(t6)
    5a48:	8e020288 	lw	v0,648(s0)
    5a4c:	46800020 	cvt.s.w	$f0,$f0
    5a50:	46020000 	add.s	$f0,$f0,$f2
    5a54:	00461021 	addu	v0,v0,a2
    5a58:	00133940 	sll	a3,s3,0x5
    5a5c:	00681821 	addu	v1,v1,t0
    5a60:	00132880 	sll	a1,s3,0x2
    5a64:	00621821 	addu	v1,v1,v0
    5a68:	00a72821 	addu	a1,a1,a3
    5a6c:	e4800020 	swc1	$f0,32(a0)
    5a70:	00ab2821 	addu	a1,a1,t3
    5a74:	44830000 	mtc1	v1,$f0
    5a78:	c4a20020 	lwc1	$f2,32(a1)
    5a7c:	8dc602bc 	lw	a2,700(t6)
    5a80:	8de802b8 	lw	t0,696(t7)
    5a84:	8e0402ac 	lw	a0,684(s0)
    5a88:	8da702b0 	lw	a3,688(t5)
    5a8c:	46800020 	cvt.s.w	$f0,$f0
    5a90:	46020000 	add.s	$f0,$f0,$f2
    5a94:	00121140 	sll	v0,s2,0x5
    5a98:	00121880 	sll	v1,s2,0x2
    5a9c:	00c83021 	addu	a2,a2,t0
    5aa0:	00872021 	addu	a0,a0,a3
    5aa4:	00621821 	addu	v1,v1,v0
    5aa8:	00005010 	mfhi	t2
    5aac:	00c43021 	addu	a2,a2,a0
    5ab0:	e4a00020 	swc1	$f0,32(a1)
    5ab4:	000917c3 	sra	v0,t1,0x1f
    5ab8:	006b1821 	addu	v1,v1,t3
    5abc:	000a50c3 	sra	t2,t2,0x3
    5ac0:	44860000 	mtc1	a2,$f0
    5ac4:	01425023 	subu	t2,t2,v0
    5ac8:	c4620020 	lwc1	$f2,32(v1)
    5acc:	000a1100 	sll	v0,t2,0x4
    5ad0:	46800020 	cvt.s.w	$f0,$f0
    5ad4:	000a5080 	sll	t2,t2,0x2
    5ad8:	01425021 	addu	t2,t2,v0
    5adc:	46020000 	add.s	$f0,$f0,$f2
    5ae0:	012a4823 	subu	t1,t1,t2
    5ae4:	3c020005 	lui	v0,0x5
    5ae8:	e4600020 	swc1	$f0,32(v1)
    5aec:	080016e1 	j	5b84 <main+0x5b84>
    5af0:	ac49be0c 	sw	t1,-16884(v0)
    5af4:	8c52be0c 	lw	s2,-16884(v0)
    5af8:	3c040005 	lui	a0,0x5
    5afc:	00121140 	sll	v0,s2,0x5
    5b00:	00121880 	sll	v1,s2,0x2
    5b04:	00621821 	addu	v1,v1,v0
    5b08:	3c020005 	lui	v0,0x5
    5b0c:	2442bb3c 	addiu	v0,v0,-17604
    5b10:	00621821 	addu	v1,v1,v0
    5b14:	3c020000 	lui	v0,0x0
    5b18:	c4405c28 	lwc1	$f0,23592(v0)
    5b1c:	c4620000 	lwc1	$f2,0(v1)
    5b20:	8fa5002c 	lw	a1,44(sp)
    5b24:	46001083 	div.s	$f2,$f2,$f0
    5b28:	24020001 	li	v0,1
    5b2c:	c480bb18 	lwc1	$f0,-17640(a0)
    5b30:	0800005b 	j	16c <main+0x16c>
    5b34:	00451023 	subu	v0,v0,a1
    5b38:	8c52be0c 	lw	s2,-16884(v0)
    5b3c:	3c030005 	lui	v1,0x5
    5b40:	00121140 	sll	v0,s2,0x5
    5b44:	00122080 	sll	a0,s2,0x2
    5b48:	00822021 	addu	a0,a0,v0
    5b4c:	3c020005 	lui	v0,0x5
    5b50:	2442bb3c 	addiu	v0,v0,-17604
    5b54:	00822021 	addu	a0,a0,v0
    5b58:	3c020000 	lui	v0,0x0
    5b5c:	c4405c28 	lwc1	$f0,23592(v0)
    5b60:	c4820008 	lwc1	$f2,8(a0)
    5b64:	2463bb18 	addiu	v1,v1,-17640
    5b68:	46001083 	div.s	$f2,$f2,$f0
    5b6c:	8fa6002c 	lw	a2,44(sp)
    5b70:	24020003 	li	v0,3
    5b74:	c4600008 	lwc1	$f0,8(v1)
    5b78:	08000077 	j	1dc <main+0x1dc>
    5b7c:	00462823 	subu	a1,v0,a2
    5b80:	3c020005 	lui	v0,0x5
    5b84:	8c43be0c 	lw	v1,-16884(v0)
    5b88:	3c040005 	lui	a0,0x5
    5b8c:	00031140 	sll	v0,v1,0x5
    5b90:	00031880 	sll	v1,v1,0x2
    5b94:	00621821 	addu	v1,v1,v0
    5b98:	3c020005 	lui	v0,0x5
    5b9c:	2442bb3c 	addiu	v0,v0,-17604
    5ba0:	00621821 	addu	v1,v1,v0
    5ba4:	3c020000 	lui	v0,0x0
    5ba8:	c4405c28 	lwc1	$f0,23592(v0)
    5bac:	c4620020 	lwc1	$f2,32(v1)
    5bb0:	2484bb18 	addiu	a0,a0,-17640
    5bb4:	46001083 	div.s	$f2,$f2,$f0
    5bb8:	c4800020 	lwc1	$f0,32(a0)
    5bbc:	ac600020 	sw	zero,32(v1)
    5bc0:	00001021 	move	v0,zero
    5bc4:	46001080 	add.s	$f2,$f2,$f0
    5bc8:	e4820020 	swc1	$f2,32(a0)
    5bcc:	c7be00b4 	lwc1	$f30,180(sp)
    5bd0:	c7bc00ac 	lwc1	$f28,172(sp)
    5bd4:	c7ba00a4 	lwc1	$f26,164(sp)
    5bd8:	c7b8009c 	lwc1	$f24,156(sp)
    5bdc:	c7b60094 	lwc1	$f22,148(sp)
    5be0:	c7b4008c 	lwc1	$f20,140(sp)
    5be4:	8fbe0080 	lw	s8,128(sp)
    5be8:	8fb7007c 	lw	s7,124(sp)
    5bec:	8fb60078 	lw	s6,120(sp)
    5bf0:	8fb50074 	lw	s5,116(sp)
    5bf4:	8fb40070 	lw	s4,112(sp)
    5bf8:	8fb3006c 	lw	s3,108(sp)
    5bfc:	8fb20068 	lw	s2,104(sp)
    5c00:	8fb10064 	lw	s1,100(sp)
    5c04:	8fb00060 	lw	s0,96(sp)
    5c08:	c7bf00b0 	lwc1	$f31,176(sp)
    5c0c:	c7bd00a8 	lwc1	$f29,168(sp)
    5c10:	c7bb00a0 	lwc1	$f27,160(sp)
    5c14:	c7b90098 	lwc1	$f25,152(sp)
    5c18:	c7b70090 	lwc1	$f23,144(sp)
    5c1c:	c7b50088 	lwc1	$f21,136(sp)
    5c20:	03e00008 	jr	ra
    5c24:	27bd00b8 	addiu	sp,sp,184
